TI ARM Assembler PC v5.2.4 Thu Sep 17 23:20:49 2015

Tools Copyright (c) 1996-2015 Texas Instruments Incorporated
esp8266.asm                                                          PAGE    1

       1                    ;******************************************************************************
       2                    ;* TI ARM C/C++ Codegen                                             PC v5.2.4 *
       3                    ;* Date/Time created: Thu Sep 17 23:20:49 2015                                *
       4                    ;******************************************************************************
       5                            .compiler_opts --abi=eabi --arm_vmrs_si_workaround=off --code_state=16 --diag_wrap=off --disab
       6 00000000                   .thumb
       7                    
       8                    $C$DW$CU        .dwtag  DW_TAG_compile_unit
       9                            .dwattr $C$DW$CU, DW_AT_name("../esp8266.c")
      10                            .dwattr $C$DW$CU, DW_AT_producer("TI TI ARM C/C++ Codegen PC v5.2.4 Copyright (c) 1996-2015 Te
      11                            .dwattr $C$DW$CU, DW_AT_TI_version(0x01)
      12                            .dwattr $C$DW$CU, DW_AT_comp_dir("C:\Dropbox\ArmBook\LaunchPad\ValvanoWareTM4C123\ESP8266_4C12
      13                    
      14                    $C$DW$1 .dwtag  DW_TAG_subprogram, DW_AT_name("__builtin_strlen")
      15                            .dwattr $C$DW$1, DW_AT_TI_symbol_name("__builtin_strlen")
      16                            .dwattr $C$DW$1, DW_AT_type(*$C$DW$T$11)
      17                            .dwattr $C$DW$1, DW_AT_declaration
      18                            .dwattr $C$DW$1, DW_AT_external
      19                    $C$DW$2 .dwtag  DW_TAG_formal_parameter
      20                            .dwattr $C$DW$2, DW_AT_type(*$C$DW$T$36)
      21                            .dwendtag $C$DW$1
      22                    
      23                    
      24                    $C$DW$3 .dwtag  DW_TAG_subprogram, DW_AT_name("printf")
      25                            .dwattr $C$DW$3, DW_AT_TI_symbol_name("printf")
      26                            .dwattr $C$DW$3, DW_AT_type(*$C$DW$T$10)
      27                            .dwattr $C$DW$3, DW_AT_declaration
      28                            .dwattr $C$DW$3, DW_AT_external
      29                            .dwattr $C$DW$3, DW_AT_decl_file("C:/ti/ccsv6/tools/compiler/ti-cgt-arm_5.2.4/include/stdio.h"
      30                            .dwattr $C$DW$3, DW_AT_decl_line(0xf5)
      31                            .dwattr $C$DW$3, DW_AT_decl_column(0x19)
      32                    $C$DW$4 .dwtag  DW_TAG_formal_parameter
      33                            .dwattr $C$DW$4, DW_AT_type(*$C$DW$T$36)
      34                    $C$DW$5 .dwtag  DW_TAG_unspecified_parameters
      35                            .dwendtag $C$DW$3
      36                    
      37                    
      38                    $C$DW$6 .dwtag  DW_TAG_subprogram, DW_AT_name("sprintf")
      39                            .dwattr $C$DW$6, DW_AT_TI_symbol_name("sprintf")
      40                            .dwattr $C$DW$6, DW_AT_type(*$C$DW$T$10)
      41                            .dwattr $C$DW$6, DW_AT_declaration
      42                            .dwattr $C$DW$6, DW_AT_external
      43                            .dwattr $C$DW$6, DW_AT_decl_file("C:/ti/ccsv6/tools/compiler/ti-cgt-arm_5.2.4/include/stdio.h"
      44                            .dwattr $C$DW$6, DW_AT_decl_line(0xf9)
      45                            .dwattr $C$DW$6, DW_AT_decl_column(0x19)
      46                    $C$DW$7 .dwtag  DW_TAG_formal_parameter
      47                            .dwattr $C$DW$7, DW_AT_type(*$C$DW$T$59)
      48                    $C$DW$8 .dwtag  DW_TAG_formal_parameter
      49                            .dwattr $C$DW$8, DW_AT_type(*$C$DW$T$36)
      50                    $C$DW$9 .dwtag  DW_TAG_unspecified_parameters
      51                            .dwendtag $C$DW$6
      52                    
      53                    
      54                    $C$DW$10        .dwtag  DW_TAG_subprogram, DW_AT_name("strlen")
      55                            .dwattr $C$DW$10, DW_AT_TI_symbol_name("strlen")
TI ARM Assembler PC v5.2.4 Thu Sep 17 23:20:49 2015

Tools Copyright (c) 1996-2015 Texas Instruments Incorporated
esp8266.asm                                                          PAGE    2

      56                            .dwattr $C$DW$10, DW_AT_type(*$C$DW$T$81)
      57                            .dwattr $C$DW$10, DW_AT_declaration
      58                            .dwattr $C$DW$10, DW_AT_external
      59                            .dwattr $C$DW$10, DW_AT_decl_file("C:/ti/ccsv6/tools/compiler/ti-cgt-arm_5.2.4/include/string.
      60                            .dwattr $C$DW$10, DW_AT_decl_line(0x4f)
      61                            .dwattr $C$DW$10, DW_AT_decl_column(0x14)
      62                    $C$DW$11        .dwtag  DW_TAG_formal_parameter
      63                            .dwattr $C$DW$11, DW_AT_type(*$C$DW$T$36)
      64                            .dwendtag $C$DW$10
      65                    
      66                    
      67                    $C$DW$12        .dwtag  DW_TAG_subprogram, DW_AT_name("strcpy")
      68                            .dwattr $C$DW$12, DW_AT_TI_symbol_name("strcpy")
      69                            .dwattr $C$DW$12, DW_AT_type(*$C$DW$T$59)
      70                            .dwattr $C$DW$12, DW_AT_declaration
      71                            .dwattr $C$DW$12, DW_AT_external
      72                            .dwattr $C$DW$12, DW_AT_decl_file("C:/ti/ccsv6/tools/compiler/ti-cgt-arm_5.2.4/include/string.
      73                            .dwattr $C$DW$12, DW_AT_decl_line(0x51)
      74                            .dwattr $C$DW$12, DW_AT_decl_column(0x12)
      75                    $C$DW$13        .dwtag  DW_TAG_formal_parameter
      76                            .dwattr $C$DW$13, DW_AT_type(*$C$DW$T$59)
      77                    $C$DW$14        .dwtag  DW_TAG_formal_parameter
      78                            .dwattr $C$DW$14, DW_AT_type(*$C$DW$T$36)
      79                            .dwendtag $C$DW$12
      80                    
      81                    
      82                    $C$DW$15        .dwtag  DW_TAG_subprogram, DW_AT_name("strstr")
      83                            .dwattr $C$DW$15, DW_AT_TI_symbol_name("strstr")
      84                            .dwattr $C$DW$15, DW_AT_type(*$C$DW$T$59)
      85                            .dwattr $C$DW$15, DW_AT_declaration
      86                            .dwattr $C$DW$15, DW_AT_external
      87                            .dwattr $C$DW$15, DW_AT_decl_file("C:/ti/ccsv6/tools/compiler/ti-cgt-arm_5.2.4/include/string.
      88                            .dwattr $C$DW$15, DW_AT_decl_line(0x60)
      89                            .dwattr $C$DW$15, DW_AT_decl_column(0x16)
      90                    $C$DW$16        .dwtag  DW_TAG_formal_parameter
      91                            .dwattr $C$DW$16, DW_AT_type(*$C$DW$T$36)
      92                    $C$DW$17        .dwtag  DW_TAG_formal_parameter
      93                            .dwattr $C$DW$17, DW_AT_type(*$C$DW$T$36)
      94                            .dwendtag $C$DW$15
      95                    
      96                    
      97                    $C$DW$18        .dwtag  DW_TAG_subprogram, DW_AT_name("UART_OutCharNonBlock")
      98                            .dwattr $C$DW$18, DW_AT_TI_symbol_name("UART_OutCharNonBlock")
      99                            .dwattr $C$DW$18, DW_AT_declaration
     100                            .dwattr $C$DW$18, DW_AT_external
     101                            .dwattr $C$DW$18, DW_AT_decl_file("..\UART.h")
     102                            .dwattr $C$DW$18, DW_AT_decl_line(0x3e)
     103                            .dwattr $C$DW$18, DW_AT_decl_column(0x06)
     104                    $C$DW$19        .dwtag  DW_TAG_formal_parameter
     105                            .dwattr $C$DW$19, DW_AT_type(*$C$DW$T$6)
     106                            .dwendtag $C$DW$18
     107                    
     108                    
     109                    $C$DW$20        .dwtag  DW_TAG_subprogram, DW_AT_name("EnableInterrupts")
     110                            .dwattr $C$DW$20, DW_AT_TI_symbol_name("EnableInterrupts")
TI ARM Assembler PC v5.2.4 Thu Sep 17 23:20:49 2015

Tools Copyright (c) 1996-2015 Texas Instruments Incorporated
esp8266.asm                                                          PAGE    3

     111                            .dwattr $C$DW$20, DW_AT_declaration
     112                            .dwattr $C$DW$20, DW_AT_external
     113                            .dwattr $C$DW$20, DW_AT_decl_file("../esp8266.c")
     114                            .dwattr $C$DW$20, DW_AT_decl_line(0x3f)
     115                            .dwattr $C$DW$20, DW_AT_decl_column(0x06)
     116                            .global ESP8266_RXBufferIndex
     117 00000000                   .data
     118                            .align  4
     119                            .elfsym ESP8266_RXBufferIndex,SYM_SIZE(4)
     120 00000000           ESP8266_RXBufferIndex:
     121 00000000 00000000          .bits   0,32                    ; ESP8266_RXBufferIndex @ 0
     122                    
     123                    $C$DW$21        .dwtag  DW_TAG_variable, DW_AT_name("ESP8266_RXBufferIndex")
     124                            .dwattr $C$DW$21, DW_AT_TI_symbol_name("ESP8266_RXBufferIndex")
     125                            .dwattr $C$DW$21, DW_AT_location[DW_OP_addr ESP8266_RXBufferIndex]
     126                            .dwattr $C$DW$21, DW_AT_type(*$C$DW$T$39)
     127                            .dwattr $C$DW$21, DW_AT_external
     128                            .dwattr $C$DW$21, DW_AT_decl_file("../esp8266.c")
     129                            .dwattr $C$DW$21, DW_AT_decl_line(0x57)
     130                            .dwattr $C$DW$21, DW_AT_decl_column(0x0a)
     131                            .global ESP8266_RXBuffer
     132 00000000           ESP8266_RXBuffer:       .usect  ".bss:ESP8266_RXBuffer",1024,1
     133                    $C$DW$22        .dwtag  DW_TAG_variable, DW_AT_name("ESP8266_RXBuffer")
     134                            .dwattr $C$DW$22, DW_AT_TI_symbol_name("ESP8266_RXBuffer")
     135                            .dwattr $C$DW$22, DW_AT_location[DW_OP_addr ESP8266_RXBuffer]
     136                            .dwattr $C$DW$22, DW_AT_type(*$C$DW$T$110)
     137                            .dwattr $C$DW$22, DW_AT_external
     138                            .dwattr $C$DW$22, DW_AT_decl_file("../esp8266.c")
     139                            .dwattr $C$DW$22, DW_AT_decl_line(0x58)
     140                            .dwattr $C$DW$22, DW_AT_decl_column(0x06)
     141                            .global ESP8266_TXBuffer
     142 00000000           ESP8266_TXBuffer:       .usect  ".bss:ESP8266_TXBuffer",1024,1
     143                    $C$DW$23        .dwtag  DW_TAG_variable, DW_AT_name("ESP8266_TXBuffer")
     144                            .dwattr $C$DW$23, DW_AT_TI_symbol_name("ESP8266_TXBuffer")
     145                            .dwattr $C$DW$23, DW_AT_location[DW_OP_addr ESP8266_TXBuffer]
     146                            .dwattr $C$DW$23, DW_AT_type(*$C$DW$T$110)
     147                            .dwattr $C$DW$23, DW_AT_external
     148                            .dwattr $C$DW$23, DW_AT_decl_file("../esp8266.c")
     149                            .dwattr $C$DW$23, DW_AT_decl_line(0x59)
     150                            .dwattr $C$DW$23, DW_AT_decl_column(0x06)
     151                            .global ESP8266_ProcessBuffer
     152 00000004                   .data
     153                            .align  1
     154                            .elfsym ESP8266_ProcessBuffer,SYM_SIZE(1)
     155 00000004           ESP8266_ProcessBuffer:
     156 00000004 00000000          .bits   0,8                     ; ESP8266_ProcessBuffer @ 0
     157                    
     158                    $C$DW$24        .dwtag  DW_TAG_variable, DW_AT_name("ESP8266_ProcessBuffer")
     159                            .dwattr $C$DW$24, DW_AT_TI_symbol_name("ESP8266_ProcessBuffer")
     160                            .dwattr $C$DW$24, DW_AT_location[DW_OP_addr ESP8266_ProcessBuffer]
     161                            .dwattr $C$DW$24, DW_AT_type(*$C$DW$T$161)
     162                            .dwattr $C$DW$24, DW_AT_external
     163                            .dwattr $C$DW$24, DW_AT_decl_file("../esp8266.c")
     164                            .dwattr $C$DW$24, DW_AT_decl_line(0x5b)
     165                            .dwattr $C$DW$24, DW_AT_decl_column(0x0f)
TI ARM Assembler PC v5.2.4 Thu Sep 17 23:20:49 2015

Tools Copyright (c) 1996-2015 Texas Instruments Incorporated
esp8266.asm                                                          PAGE    4

     166                            .global ESP8266_EchoResponse
     167 00000005                   .data
     168                            .align  1
     169                            .elfsym ESP8266_EchoResponse,SYM_SIZE(1)
     170 00000005           ESP8266_EchoResponse:
     171 00000004 00000000          .bits   0,8                     ; ESP8266_EchoResponse @ 0
     172                    
     173                    $C$DW$25        .dwtag  DW_TAG_variable, DW_AT_name("ESP8266_EchoResponse")
     174                            .dwattr $C$DW$25, DW_AT_TI_symbol_name("ESP8266_EchoResponse")
     175                            .dwattr $C$DW$25, DW_AT_location[DW_OP_addr ESP8266_EchoResponse]
     176                            .dwattr $C$DW$25, DW_AT_type(*$C$DW$T$161)
     177                            .dwattr $C$DW$25, DW_AT_external
     178                            .dwattr $C$DW$25, DW_AT_decl_file("../esp8266.c")
     179                            .dwattr $C$DW$25, DW_AT_decl_line(0x5c)
     180                            .dwattr $C$DW$25, DW_AT_decl_column(0x0f)
     181                            .global ESP8266_ResponseComplete
     182 00000006                   .data
     183                            .align  1
     184                            .elfsym ESP8266_ResponseComplete,SYM_SIZE(1)
     185 00000006           ESP8266_ResponseComplete:
     186 00000004 00000000          .bits   0,8                     ; ESP8266_ResponseComplete @ 0
     187                    
     188                    $C$DW$26        .dwtag  DW_TAG_variable, DW_AT_name("ESP8266_ResponseComplete")
     189                            .dwattr $C$DW$26, DW_AT_TI_symbol_name("ESP8266_ResponseComplete")
     190                            .dwattr $C$DW$26, DW_AT_location[DW_OP_addr ESP8266_ResponseComplete]
     191                            .dwattr $C$DW$26, DW_AT_type(*$C$DW$T$161)
     192                            .dwattr $C$DW$26, DW_AT_external
     193                            .dwattr $C$DW$26, DW_AT_decl_file("../esp8266.c")
     194                            .dwattr $C$DW$26, DW_AT_decl_line(0x5d)
     195                            .dwattr $C$DW$26, DW_AT_decl_column(0x0f)
     196                            .global ESP8266_APEnabled
     197 00000007                   .data
     198                            .align  1
     199                            .elfsym ESP8266_APEnabled,SYM_SIZE(1)
     200 00000007           ESP8266_APEnabled:
     201 00000004 00000000          .bits   0,8                     ; ESP8266_APEnabled @ 0
     202                    
     203                    $C$DW$27        .dwtag  DW_TAG_variable, DW_AT_name("ESP8266_APEnabled")
     204                            .dwattr $C$DW$27, DW_AT_TI_symbol_name("ESP8266_APEnabled")
     205                            .dwattr $C$DW$27, DW_AT_location[DW_OP_addr ESP8266_APEnabled]
     206                            .dwattr $C$DW$27, DW_AT_type(*$C$DW$T$161)
     207                            .dwattr $C$DW$27, DW_AT_external
     208                            .dwattr $C$DW$27, DW_AT_decl_file("../esp8266.c")
     209                            .dwattr $C$DW$27, DW_AT_decl_line(0x5e)
     210                            .dwattr $C$DW$27, DW_AT_decl_column(0x0f)
     211                            .global ESP8266_ClientEnabled
     212 00000008                   .data
     213                            .align  1
     214                            .elfsym ESP8266_ClientEnabled,SYM_SIZE(1)
     215 00000008           ESP8266_ClientEnabled:
     216 00000008 00000000          .bits   0,8                     ; ESP8266_ClientEnabled @ 0
     217                    
     218                    $C$DW$28        .dwtag  DW_TAG_variable, DW_AT_name("ESP8266_ClientEnabled")
     219                            .dwattr $C$DW$28, DW_AT_TI_symbol_name("ESP8266_ClientEnabled")
     220                            .dwattr $C$DW$28, DW_AT_location[DW_OP_addr ESP8266_ClientEnabled]
TI ARM Assembler PC v5.2.4 Thu Sep 17 23:20:49 2015

Tools Copyright (c) 1996-2015 Texas Instruments Incorporated
esp8266.asm                                                          PAGE    5

     221                            .dwattr $C$DW$28, DW_AT_type(*$C$DW$T$161)
     222                            .dwattr $C$DW$28, DW_AT_external
     223                            .dwattr $C$DW$28, DW_AT_decl_file("../esp8266.c")
     224                            .dwattr $C$DW$28, DW_AT_decl_line(0x5f)
     225                            .dwattr $C$DW$28, DW_AT_decl_column(0x0f)
     226                            .global ESP8266_ServerEnabled
     227 00000009                   .data
     228                            .align  1
     229                            .elfsym ESP8266_ServerEnabled,SYM_SIZE(1)
     230 00000009           ESP8266_ServerEnabled:
     231 00000008 00000000          .bits   0,8                     ; ESP8266_ServerEnabled @ 0
     232                    
     233                    $C$DW$29        .dwtag  DW_TAG_variable, DW_AT_name("ESP8266_ServerEnabled")
     234                            .dwattr $C$DW$29, DW_AT_TI_symbol_name("ESP8266_ServerEnabled")
     235                            .dwattr $C$DW$29, DW_AT_location[DW_OP_addr ESP8266_ServerEnabled]
     236                            .dwattr $C$DW$29, DW_AT_type(*$C$DW$T$161)
     237                            .dwattr $C$DW$29, DW_AT_external
     238                            .dwattr $C$DW$29, DW_AT_decl_file("../esp8266.c")
     239                            .dwattr $C$DW$29, DW_AT_decl_line(0x60)
     240                            .dwattr $C$DW$29, DW_AT_decl_column(0x0f)
     241                            .global ESP8266_InputProcessingEnabled
     242 0000000a                   .data
     243                            .align  1
     244                            .elfsym ESP8266_InputProcessingEnabled,SYM_SIZE(1)
     245 0000000a           ESP8266_InputProcessingEnabled:
     246 00000008 00000000          .bits   0,8                     ; ESP8266_InputProcessingEnabled @ 0
     247                    
     248                    $C$DW$30        .dwtag  DW_TAG_variable, DW_AT_name("ESP8266_InputProcessingEnabled")
     249                            .dwattr $C$DW$30, DW_AT_TI_symbol_name("ESP8266_InputProcessingEnabled")
     250                            .dwattr $C$DW$30, DW_AT_location[DW_OP_addr ESP8266_InputProcessingEnabled]
     251                            .dwattr $C$DW$30, DW_AT_type(*$C$DW$T$161)
     252                            .dwattr $C$DW$30, DW_AT_external
     253                            .dwattr $C$DW$30, DW_AT_decl_file("../esp8266.c")
     254                            .dwattr $C$DW$30, DW_AT_decl_line(0x61)
     255                            .dwattr $C$DW$30, DW_AT_decl_column(0x0f)
     256                            .global ESP8266_PageRequested
     257 0000000b                   .data
     258                            .align  1
     259                            .elfsym ESP8266_PageRequested,SYM_SIZE(1)
     260 0000000b           ESP8266_PageRequested:
     261 00000008 00000000          .bits   0,8                     ; ESP8266_PageRequested @ 0
     262                    
     263                    $C$DW$31        .dwtag  DW_TAG_variable, DW_AT_name("ESP8266_PageRequested")
     264                            .dwattr $C$DW$31, DW_AT_TI_symbol_name("ESP8266_PageRequested")
     265                            .dwattr $C$DW$31, DW_AT_location[DW_OP_addr ESP8266_PageRequested]
     266                            .dwattr $C$DW$31, DW_AT_type(*$C$DW$T$161)
     267                            .dwattr $C$DW$31, DW_AT_external
     268                            .dwattr $C$DW$31, DW_AT_decl_file("../esp8266.c")
     269                            .dwattr $C$DW$31, DW_AT_decl_line(0x62)
     270                            .dwattr $C$DW$31, DW_AT_decl_column(0x0f)
     271                            .global ESP8266_ServerPort
     272 0000000c                   .data
     273                            .align  2
     274                            .elfsym ESP8266_ServerPort,SYM_SIZE(2)
     275 0000000c           ESP8266_ServerPort:
TI ARM Assembler PC v5.2.4 Thu Sep 17 23:20:49 2015

Tools Copyright (c) 1996-2015 Texas Instruments Incorporated
esp8266.asm                                                          PAGE    6

     276 0000000c 00000050          .bits   80,16                   ; ESP8266_ServerPort @ 0
     277                    
     278                    $C$DW$32        .dwtag  DW_TAG_variable, DW_AT_name("ESP8266_ServerPort")
     279                            .dwattr $C$DW$32, DW_AT_TI_symbol_name("ESP8266_ServerPort")
     280                            .dwattr $C$DW$32, DW_AT_location[DW_OP_addr ESP8266_ServerPort]
     281                            .dwattr $C$DW$32, DW_AT_type(*$C$DW$T$42)
     282                            .dwattr $C$DW$32, DW_AT_external
     283                            .dwattr $C$DW$32, DW_AT_decl_file("../esp8266.c")
     284                            .dwattr $C$DW$32, DW_AT_decl_line(0x64)
     285                            .dwattr $C$DW$32, DW_AT_decl_column(0x0a)
     286                            .global ESP8266_ServerTimeout
     287 0000000e                   .data
     288                            .align  2
     289                            .elfsym ESP8266_ServerTimeout,SYM_SIZE(2)
     290 0000000e           ESP8266_ServerTimeout:
     291 0000000c 70800050          .bits   28800,16                        ; ESP8266_ServerTimeout @ 0
     292                    
     293                    $C$DW$33        .dwtag  DW_TAG_variable, DW_AT_name("ESP8266_ServerTimeout")
     294                            .dwattr $C$DW$33, DW_AT_TI_symbol_name("ESP8266_ServerTimeout")
     295                            .dwattr $C$DW$33, DW_AT_location[DW_OP_addr ESP8266_ServerTimeout]
     296                            .dwattr $C$DW$33, DW_AT_type(*$C$DW$T$42)
     297                            .dwattr $C$DW$33, DW_AT_external
     298                            .dwattr $C$DW$33, DW_AT_decl_file("../esp8266.c")
     299                            .dwattr $C$DW$33, DW_AT_decl_line(0x65)
     300                            .dwattr $C$DW$33, DW_AT_decl_column(0x0a)
     301                            .global SearchString
     302                            .common SearchString,32,1
     303                    $C$DW$34        .dwtag  DW_TAG_variable, DW_AT_name("SearchString")
     304                            .dwattr $C$DW$34, DW_AT_TI_symbol_name("SearchString")
     305                            .dwattr $C$DW$34, DW_AT_location[DW_OP_addr SearchString]
     306                            .dwattr $C$DW$34, DW_AT_type(*$C$DW$T$112)
     307                            .dwattr $C$DW$34, DW_AT_external
     308                            .dwattr $C$DW$34, DW_AT_decl_file("../esp8266.c")
     309                            .dwattr $C$DW$34, DW_AT_decl_line(0x68)
     310                            .dwattr $C$DW$34, DW_AT_decl_column(0x06)
     311                            .global SearchLooking
     312 00000010                   .data
     313                            .align  1
     314                            .elfsym SearchLooking,SYM_SIZE(1)
     315 00000010           SearchLooking:
     316 00000010 00000000          .bits   0,8                     ; SearchLooking @ 0
     317                    
     318                    $C$DW$35        .dwtag  DW_TAG_variable, DW_AT_name("SearchLooking")
     319                            .dwattr $C$DW$35, DW_AT_TI_symbol_name("SearchLooking")
     320                            .dwattr $C$DW$35, DW_AT_location[DW_OP_addr SearchLooking]
     321                            .dwattr $C$DW$35, DW_AT_type(*$C$DW$T$161)
     322                            .dwattr $C$DW$35, DW_AT_external
     323                            .dwattr $C$DW$35, DW_AT_decl_file("../esp8266.c")
     324                            .dwattr $C$DW$35, DW_AT_decl_line(0x69)
     325                            .dwattr $C$DW$35, DW_AT_decl_column(0x0f)
     326                            .global SearchFound
     327 00000011                   .data
     328                            .align  1
     329                            .elfsym SearchFound,SYM_SIZE(1)
     330 00000011           SearchFound:
TI ARM Assembler PC v5.2.4 Thu Sep 17 23:20:49 2015

Tools Copyright (c) 1996-2015 Texas Instruments Incorporated
esp8266.asm                                                          PAGE    7

     331 00000010 00000000          .bits   0,8                     ; SearchFound @ 0
     332                    
     333                    $C$DW$36        .dwtag  DW_TAG_variable, DW_AT_name("SearchFound")
     334                            .dwattr $C$DW$36, DW_AT_TI_symbol_name("SearchFound")
     335                            .dwattr $C$DW$36, DW_AT_location[DW_OP_addr SearchFound]
     336                            .dwattr $C$DW$36, DW_AT_type(*$C$DW$T$161)
     337                            .dwattr $C$DW$36, DW_AT_external
     338                            .dwattr $C$DW$36, DW_AT_decl_file("../esp8266.c")
     339                            .dwattr $C$DW$36, DW_AT_decl_line(0x6a)
     340                            .dwattr $C$DW$36, DW_AT_decl_column(0x0f)
     341                            .global Fetch
     342 00000000                   .sect   ".data:Fetch", RW
     343                            .clink
     344                            .align  1
     345                            .elfsym Fetch,SYM_SIZE(84)
     346 00000000           Fetch:
     347 00000000 00000047          .bits   71,8                    ; Fetch[0] @ 0
     348 00000000 00004547          .bits   69,8                    ; Fetch[1] @ 8
     349 00000000 00544547          .bits   84,8                    ; Fetch[2] @ 16
     350 00000000 20544547          .bits   32,8                    ; Fetch[3] @ 24
     351 00000004 0000002F          .bits   47,8                    ; Fetch[4] @ 32
     352 00000004 0000642F          .bits   100,8                   ; Fetch[5] @ 40
     353 00000004 0061642F          .bits   97,8                    ; Fetch[6] @ 48
     354 00000004 7461642F          .bits   116,8                   ; Fetch[7] @ 56
     355 00000008 00000061          .bits   97,8                    ; Fetch[8] @ 64
     356 00000008 00002F61          .bits   47,8                    ; Fetch[9] @ 72
     357 00000008 00322F61          .bits   50,8                    ; Fetch[10] @ 80
     358 00000008 2E322F61          .bits   46,8                    ; Fetch[11] @ 88
     359 0000000c 00000035          .bits   53,8                    ; Fetch[12] @ 96
     360 0000000c 00002F35          .bits   47,8                    ; Fetch[13] @ 104
     361 0000000c 00772F35          .bits   119,8                   ; Fetch[14] @ 112
     362 0000000c 65772F35          .bits   101,8                   ; Fetch[15] @ 120
     363 00000010 00000061          .bits   97,8                    ; Fetch[16] @ 128
     364 00000010 00007461          .bits   116,8                   ; Fetch[17] @ 136
     365 00000010 00687461          .bits   104,8                   ; Fetch[18] @ 144
     366 00000010 65687461          .bits   101,8                   ; Fetch[19] @ 152
     367 00000014 00000072          .bits   114,8                   ; Fetch[20] @ 160
     368 00000014 00003F72          .bits   63,8                    ; Fetch[21] @ 168
     369 00000014 00713F72          .bits   113,8                   ; Fetch[22] @ 176
     370 00000014 3D713F72          .bits   61,8                    ; Fetch[23] @ 184
     371 00000018 00000041          .bits   65,8                    ; Fetch[24] @ 192
     372 00000018 00007541          .bits   117,8                   ; Fetch[25] @ 200
     373 00000018 00737541          .bits   115,8                   ; Fetch[26] @ 208
     374 00000018 74737541          .bits   116,8                   ; Fetch[27] @ 216
     375 0000001c 00000069          .bits   105,8                   ; Fetch[28] @ 224
     376 0000001c 00006E69          .bits   110,8                   ; Fetch[29] @ 232
     377 0000001c 00256E69          .bits   37,8                    ; Fetch[30] @ 240
     378 0000001c 32256E69          .bits   50,8                    ; Fetch[31] @ 248
     379 00000020 00000030          .bits   48,8                    ; Fetch[32] @ 256
     380 00000020 00005430          .bits   84,8                    ; Fetch[33] @ 264
     381 00000020 00655430          .bits   101,8                   ; Fetch[34] @ 272
     382 00000020 78655430          .bits   120,8                   ; Fetch[35] @ 280
     383 00000024 00000061          .bits   97,8                    ; Fetch[36] @ 288
     384 00000024 00007361          .bits   115,8                   ; Fetch[37] @ 296
     385 00000024 00207361          .bits   32,8                    ; Fetch[38] @ 304
TI ARM Assembler PC v5.2.4 Thu Sep 17 23:20:49 2015

Tools Copyright (c) 1996-2015 Texas Instruments Incorporated
esp8266.asm                                                          PAGE    8

     386 00000024 48207361          .bits   72,8                    ; Fetch[39] @ 312
     387 00000028 00000054          .bits   84,8                    ; Fetch[40] @ 320
     388 00000028 00005454          .bits   84,8                    ; Fetch[41] @ 328
     389 00000028 00505454          .bits   80,8                    ; Fetch[42] @ 336
     390 00000028 2F505454          .bits   47,8                    ; Fetch[43] @ 344
     391 0000002c 00000031          .bits   49,8                    ; Fetch[44] @ 352
     392 0000002c 00002E31          .bits   46,8                    ; Fetch[45] @ 360
     393 0000002c 00312E31          .bits   49,8                    ; Fetch[46] @ 368
     394 0000002c 0D312E31          .bits   13,8                    ; Fetch[47] @ 376
     395 00000030 0000000A          .bits   10,8                    ; Fetch[48] @ 384
     396 00000030 0000480A          .bits   72,8                    ; Fetch[49] @ 392
     397 00000030 006F480A          .bits   111,8                   ; Fetch[50] @ 400
     398 00000030 736F480A          .bits   115,8                   ; Fetch[51] @ 408
     399 00000034 00000074          .bits   116,8                   ; Fetch[52] @ 416
     400 00000034 00003A74          .bits   58,8                    ; Fetch[53] @ 424
     401 00000034 00613A74          .bits   97,8                    ; Fetch[54] @ 432
     402 00000034 70613A74          .bits   112,8                   ; Fetch[55] @ 440
     403 00000038 00000069          .bits   105,8                   ; Fetch[56] @ 448
     404 00000038 00002E69          .bits   46,8                    ; Fetch[57] @ 456
     405 00000038 006F2E69          .bits   111,8                   ; Fetch[58] @ 464
     406 00000038 706F2E69          .bits   112,8                   ; Fetch[59] @ 472
     407 0000003c 00000065          .bits   101,8                   ; Fetch[60] @ 480
     408 0000003c 00006E65          .bits   110,8                   ; Fetch[61] @ 488
     409 0000003c 00776E65          .bits   119,8                   ; Fetch[62] @ 496
     410 0000003c 65776E65          .bits   101,8                   ; Fetch[63] @ 504
     411 00000040 00000061          .bits   97,8                    ; Fetch[64] @ 512
     412 00000040 00007461          .bits   116,8                   ; Fetch[65] @ 520
     413 00000040 00687461          .bits   104,8                   ; Fetch[66] @ 528
     414 00000040 65687461          .bits   101,8                   ; Fetch[67] @ 536
     415 00000044 00000072          .bits   114,8                   ; Fetch[68] @ 544
     416 00000044 00006D72          .bits   109,8                   ; Fetch[69] @ 552
     417 00000044 00616D72          .bits   97,8                    ; Fetch[70] @ 560
     418 00000044 70616D72          .bits   112,8                   ; Fetch[71] @ 568
     419 00000048 0000002E          .bits   46,8                    ; Fetch[72] @ 576
     420 00000048 00006F2E          .bits   111,8                   ; Fetch[73] @ 584
     421 00000048 00726F2E          .bits   114,8                   ; Fetch[74] @ 592
     422 00000048 67726F2E          .bits   103,8                   ; Fetch[75] @ 600
     423 0000004c 0000000D          .bits   13,8                    ; Fetch[76] @ 608
     424 0000004c 00000A0D          .bits   10,8                    ; Fetch[77] @ 616
     425 0000004c 000D0A0D          .bits   13,8                    ; Fetch[78] @ 624
     426 0000004c 0A0D0A0D          .bits   10,8                    ; Fetch[79] @ 632
     427 00000050 00000000          .bits   0,8                     ; Fetch[80] @ 640
     428                    
     429                    $C$DW$37        .dwtag  DW_TAG_variable, DW_AT_name("Fetch")
     430                            .dwattr $C$DW$37, DW_AT_TI_symbol_name("Fetch")
     431                            .dwattr $C$DW$37, DW_AT_location[DW_OP_addr Fetch]
     432                            .dwattr $C$DW$37, DW_AT_type(*$C$DW$T$114)
     433                            .dwattr $C$DW$37, DW_AT_external
     434                            .dwattr $C$DW$37, DW_AT_decl_file("../esp8266.c")
     435                            .dwattr $C$DW$37, DW_AT_decl_line(0x251)
     436                            .dwattr $C$DW$37, DW_AT_decl_column(0x06)
     437                    ;       C:\ti\ccsv6\tools\compiler\ti-cgt-arm_5.2.4\bin\armacpia.exe -@C:\\Users\\VALVAN~1\\AppData\\L
     438 00000000                   .sect   ".text"
     439                            .clink
     440                            .thumbfunc ESP8266InitUART
TI ARM Assembler PC v5.2.4 Thu Sep 17 23:20:49 2015

Tools Copyright (c) 1996-2015 Texas Instruments Incorporated
esp8266.asm                                                          PAGE    9

     441 00000000                   .thumb
     442                            .global ESP8266InitUART
     443                    
     444                    $C$DW$38        .dwtag  DW_TAG_subprogram, DW_AT_name("ESP8266InitUART")
     445                            .dwattr $C$DW$38, DW_AT_low_pc(ESP8266InitUART)
     446                            .dwattr $C$DW$38, DW_AT_high_pc(0x00)
     447                            .dwattr $C$DW$38, DW_AT_TI_symbol_name("ESP8266InitUART")
     448                            .dwattr $C$DW$38, DW_AT_external
     449                            .dwattr $C$DW$38, DW_AT_TI_begin_file("../esp8266.c")
     450                            .dwattr $C$DW$38, DW_AT_TI_begin_line(0x78)
     451                            .dwattr $C$DW$38, DW_AT_TI_begin_column(0x06)
     452                            .dwattr $C$DW$38, DW_AT_decl_file("../esp8266.c")
     453                            .dwattr $C$DW$38, DW_AT_decl_line(0x78)
     454                            .dwattr $C$DW$38, DW_AT_decl_column(0x06)
     455                            .dwattr $C$DW$38, DW_AT_TI_max_frame_size(0x08)
     456                            .dwpsn  file "../esp8266.c",line 120,column 27,is_stmt,address ESP8266InitUART,isa 1
     457                    
     458                            .dwfde $C$DW$CIE, ESP8266InitUART
     459                    ;----------------------------------------------------------------------
     460                    ; 120 | void ESP8266InitUART(void){                                            
     461                    ; 121 | volatile int delay;                                                    
     462                    ; 123 |   // Enable UART1                                                      
     463                    ;----------------------------------------------------------------------
     464                    
     465                    ;*****************************************************************************
     466                    ;* FUNCTION NAME: ESP8266InitUART                                            *
     467                    ;*                                                                           *
     468                    ;*   Regs Modified     : A1,A2,A3,SP,SR                                      *
     469                    ;*   Regs Used         : A1,A2,A3,SP,LR,SR                                   *
     470                    ;*   Local Frame Size  : 0 Args + 4 Auto + 0 Save = 4 byte                   *
     471                    ;*****************************************************************************
     472 00000000           ESP8266InitUART:
     473                    ;* --------------------------------------------------------------------------*
     474                            .dwcfi  cfa_offset, 0
     475 00000000 0D08F1AD          SUB       SP, SP, #8            ; [DPU_3_PIPE]  ; [KEEP 32-BIT INS]
     476                            .dwcfi  cfa_offset, 8
     477                    $C$DW$39        .dwtag  DW_TAG_variable, DW_AT_name("delay")
     478                            .dwattr $C$DW$39, DW_AT_TI_symbol_name("delay")
     479                            .dwattr $C$DW$39, DW_AT_type(*$C$DW$T$69)
     480                            .dwattr $C$DW$39, DW_AT_location[DW_OP_breg13 0]
     481                            .dwpsn  file "../esp8266.c",line 124,column 3,is_stmt,isa 1
     482                    ;----------------------------------------------------------------------
     483                    ; 124 | SYSCTL_RCGCUART_R |= 0x02;                                             
     484                    ;----------------------------------------------------------------------
     485 00000004 495B              LDR       A2, $C$CON1           ; [DPU_3_PIPE] |124|  ; [ORIG 16-BIT INS]
     486 00000006 6808              LDR       A1, [A2, #0]          ; [DPU_3_PIPE] |124|  ; [ORIG 16-BIT INS]
     487 00000008 0002F040          ORR       A1, A1, #2            ; [DPU_3_PIPE] |124|  ; [KEEP 32-BIT INS]
     488 0000000c 6008              STR       A1, [A2, #0]          ; [DPU_3_PIPE] |124|  ; [ORIG 16-BIT INS]
     489                            .dwpsn  file "../esp8266.c",line 125,column 3,is_stmt,isa 1
     490                    ;----------------------------------------------------------------------
     491                    ; 125 | delay++; delay++;                                                      
     492                    ;----------------------------------------------------------------------
     493 0000000e 9800              LDR       A1, [SP, #0]          ; [DPU_3_PIPE] |125|  ; [ORIG 16-BIT INS]
     494 00000010 1C40              ADDS      A1, A1, #1            ; [DPU_3_PIPE] |125|  ; [ORIG 16-BIT INS]
     495 00000012 9000              STR       A1, [SP, #0]          ; [DPU_3_PIPE] |125|  ; [ORIG 16-BIT INS]
TI ARM Assembler PC v5.2.4 Thu Sep 17 23:20:49 2015

Tools Copyright (c) 1996-2015 Texas Instruments Incorporated
esp8266.asm                                                          PAGE   10

     496                            .dwpsn  file "../esp8266.c",line 125,column 12,is_stmt,isa 1
     497                    ;----------------------------------------------------------------------
     498                    ; 127 | // Enable PORT B clock gating                                          
     499                    ;----------------------------------------------------------------------
     500 00000014 9800              LDR       A1, [SP, #0]          ; [DPU_3_PIPE] |125|  ; [ORIG 16-BIT INS]
     501 00000016 1C40              ADDS      A1, A1, #1            ; [DPU_3_PIPE] |125|  ; [ORIG 16-BIT INS]
     502 00000018 9000              STR       A1, [SP, #0]          ; [DPU_3_PIPE] |125|  ; [ORIG 16-BIT INS]
     503                            .dwpsn  file "../esp8266.c",line 128,column 3,is_stmt,isa 1
     504                    ;----------------------------------------------------------------------
     505                    ; 128 | SYSCTL_RCGCGPIO_R |= 0x02;                                             
     506                    ;----------------------------------------------------------------------
     507 0000001a 4957              LDR       A2, $C$CON2           ; [DPU_3_PIPE] |128|  ; [ORIG 16-BIT INS]
     508 0000001c 6808              LDR       A1, [A2, #0]          ; [DPU_3_PIPE] |128|  ; [ORIG 16-BIT INS]
     509 0000001e 0002F040          ORR       A1, A1, #2            ; [DPU_3_PIPE] |128|  ; [KEEP 32-BIT INS]
     510 00000022 6008              STR       A1, [A2, #0]          ; [DPU_3_PIPE] |128|  ; [ORIG 16-BIT INS]
     511                            .dwpsn  file "../esp8266.c",line 129,column 3,is_stmt,isa 1
     512                    ;----------------------------------------------------------------------
     513                    ; 129 | delay++; delay++;                                                      
     514                    ;----------------------------------------------------------------------
     515 00000024 9800              LDR       A1, [SP, #0]          ; [DPU_3_PIPE] |129|  ; [ORIG 16-BIT INS]
     516 00000026 1C40              ADDS      A1, A1, #1            ; [DPU_3_PIPE] |129|  ; [ORIG 16-BIT INS]
     517 00000028 9000              STR       A1, [SP, #0]          ; [DPU_3_PIPE] |129|  ; [ORIG 16-BIT INS]
     518                            .dwpsn  file "../esp8266.c",line 129,column 12,is_stmt,isa 1
     519                    ;----------------------------------------------------------------------
     520                    ; 130 | // Enable UART1                                                        
     521                    ;----------------------------------------------------------------------
     522 0000002a 9800              LDR       A1, [SP, #0]          ; [DPU_3_PIPE] |129|  ; [ORIG 16-BIT INS]
     523 0000002c 1C40              ADDS      A1, A1, #1            ; [DPU_3_PIPE] |129|  ; [ORIG 16-BIT INS]
     524 0000002e 9000              STR       A1, [SP, #0]          ; [DPU_3_PIPE] |129|  ; [ORIG 16-BIT INS]
     525                            .dwpsn  file "../esp8266.c",line 131,column 3,is_stmt,isa 1
     526                    ;----------------------------------------------------------------------
     527                    ; 131 | GPIO_PORTB_AFSEL_R |= 0x03;                                            
     528                    ;----------------------------------------------------------------------
     529 00000030 4952              LDR       A2, $C$CON3           ; [DPU_3_PIPE] |131|  ; [ORIG 16-BIT INS]
     530 00000032 6808              LDR       A1, [A2, #0]          ; [DPU_3_PIPE] |131|  ; [ORIG 16-BIT INS]
     531 00000034 0003F040          ORR       A1, A1, #3            ; [DPU_3_PIPE] |131|  ; [KEEP 32-BIT INS]
     532 00000038 6008              STR       A1, [A2, #0]          ; [DPU_3_PIPE] |131|  ; [ORIG 16-BIT INS]
     533                            .dwpsn  file "../esp8266.c",line 132,column 3,is_stmt,isa 1
     534                    ;----------------------------------------------------------------------
     535                    ; 132 | GPIO_PORTB_DIR_R |= 0x20; // PB5 output to reset                       
     536                    ;----------------------------------------------------------------------
     537 0000003a 4951              LDR       A2, $C$CON4           ; [DPU_3_PIPE] |132|  ; [ORIG 16-BIT INS]
     538 0000003c 6808              LDR       A1, [A2, #0]          ; [DPU_3_PIPE] |132|  ; [ORIG 16-BIT INS]
     539 0000003e 0020F040          ORR       A1, A1, #32           ; [DPU_3_PIPE] |132|  ; [KEEP 32-BIT INS]
     540 00000042 6008              STR       A1, [A2, #0]          ; [DPU_3_PIPE] |132|  ; [ORIG 16-BIT INS]
     541                            .dwpsn  file "../esp8266.c",line 133,column 3,is_stmt,isa 1
     542                    ;----------------------------------------------------------------------
     543                    ; 133 | GPIO_PORTB_PCTL_R =(GPIO_PORTB_PCTL_R&0xFF0FFF00)|0x00000011;          
     544                    ;----------------------------------------------------------------------
     545 00000044 494F              LDR       A2, $C$CON5           ; [DPU_3_PIPE] |133|  ; [ORIG 16-BIT INS]
     546 00000046 4850              LDR       A1, $C$CON6           ; [DPU_3_PIPE] |133|  ; [ORIG 16-BIT INS]
     547 00000048 680A              LDR       A3, [A2, #0]          ; [DPU_3_PIPE] |133|  ; [ORIG 16-BIT INS]
     548 0000004a 494E              LDR       A2, $C$CON5           ; [DPU_3_PIPE] |133|  ; [ORIG 16-BIT INS]
     549 0000004c 4010              ANDS      A1, A1, A3            ; [DPU_3_PIPE] |133|  ; [ORIG 16-BIT INS]
     550 0000004e 0011F040          ORR       A1, A1, #17           ; [DPU_3_PIPE] |133|  ; [KEEP 32-BIT INS]
TI ARM Assembler PC v5.2.4 Thu Sep 17 23:20:49 2015

Tools Copyright (c) 1996-2015 Texas Instruments Incorporated
esp8266.asm                                                          PAGE   11

     551 00000052 6008              STR       A1, [A2, #0]          ; [DPU_3_PIPE] |133|  ; [ORIG 16-BIT INS]
     552                            .dwpsn  file "../esp8266.c",line 134,column 3,is_stmt,isa 1
     553                    ;----------------------------------------------------------------------
     554                    ; 134 | GPIO_PORTB_DEN_R   |= 0x23; //23                                       
     555                    ;----------------------------------------------------------------------
     556 00000054 496D              LDR       A2, $C$CON7           ; [DPU_3_PIPE] |134|  ; [ORIG 16-BIT INS]
     557 00000056 6808              LDR       A1, [A2, #0]          ; [DPU_3_PIPE] |134|  ; [ORIG 16-BIT INS]
     558 00000058 0023F040          ORR       A1, A1, #35           ; [DPU_3_PIPE] |134|  ; [KEEP 32-BIT INS]
     559 0000005c 6008              STR       A1, [A2, #0]          ; [DPU_3_PIPE] |134|  ; [ORIG 16-BIT INS]
     560                            .dwpsn  file "../esp8266.c",line 135,column 3,is_stmt,isa 1
     561                    ;----------------------------------------------------------------------
     562                    ; 135 | GPIO_PORTB_DATA_R |= 0x20; // reset high                               
     563                    ; 136 |   // Configure UART1 for 115200bps operation                           
     564                    ;----------------------------------------------------------------------
     565 0000005e 496C              LDR       A2, $C$CON8           ; [DPU_3_PIPE] |135|  ; [ORIG 16-BIT INS]
     566 00000060 6808              LDR       A1, [A2, #0]          ; [DPU_3_PIPE] |135|  ; [ORIG 16-BIT INS]
     567 00000062 0020F040          ORR       A1, A1, #32           ; [DPU_3_PIPE] |135|  ; [KEEP 32-BIT INS]
     568 00000066 6008              STR       A1, [A2, #0]          ; [DPU_3_PIPE] |135|  ; [ORIG 16-BIT INS]
     569                            .dwpsn  file "../esp8266.c",line 137,column 3,is_stmt,isa 1
     570                    ;----------------------------------------------------------------------
     571                    ; 137 | UART1_CTL_R &= ~UART_CTL_UARTEN;                  // Clear UART1 enable
     572                    ;     |  bit during config                                                     
     573                    ; 138 | //  UART1_IBRD_R = 27;                                // Set integer po
     574                    ;     | rtion of BRD                                                           
     575                    ; 139 | //  UART1_FBRD_R =  8;                                // Set fraction p
     576                    ;     | ortion of BRD                                                          
     577                    ;----------------------------------------------------------------------
     578 00000068 496A              LDR       A2, $C$CON9           ; [DPU_3_PIPE] |137|  ; [ORIG 16-BIT INS]
     579 0000006a 6808              LDR       A1, [A2, #0]          ; [DPU_3_PIPE] |137|  ; [ORIG 16-BIT INS]
     580 0000006c 0001F020          BIC       A1, A1, #1            ; [DPU_3_PIPE] |137|  ; [KEEP 32-BIT INS]
     581 00000070 6008              STR       A1, [A2, #0]          ; [DPU_3_PIPE] |137|  ; [ORIG 16-BIT INS]
     582                            .dwpsn  file "../esp8266.c",line 140,column 3,is_stmt,isa 1
     583                    ;----------------------------------------------------------------------
     584                    ; 140 | UART1_IBRD_R = 43;                    // IBRD = int(80,000,000 / (16 *
     585                    ;     | 115,200)) = int(43.403)                                                
     586                    ;----------------------------------------------------------------------
     587 00000072 4969              LDR       A2, $C$CON10          ; [DPU_3_PIPE] |140|  ; [ORIG 16-BIT INS]
     588 00000074 202B              MOVS      A1, #43               ; [DPU_3_PIPE] |140|  ; [ORIG 16-BIT INS]
     589 00000076 6008              STR       A1, [A2, #0]          ; [DPU_3_PIPE] |140|  ; [ORIG 16-BIT INS]
     590                            .dwpsn  file "../esp8266.c",line 141,column 3,is_stmt,isa 1
     591                    ;----------------------------------------------------------------------
     592                    ; 141 | UART1_FBRD_R = 26;                    // FBRD = round(0.4028 * 64 ) = 2
     593                    ;     | 6                                                                      
     594                    ;----------------------------------------------------------------------
     595 00000078 4968              LDR       A2, $C$CON11          ; [DPU_3_PIPE] |141|  ; [ORIG 16-BIT INS]
     596 0000007a 201A              MOVS      A1, #26               ; [DPU_3_PIPE] |141|  ; [ORIG 16-BIT INS]
     597 0000007c 6008              STR       A1, [A2, #0]          ; [DPU_3_PIPE] |141|  ; [ORIG 16-BIT INS]
     598                            .dwpsn  file "../esp8266.c",line 142,column 3,is_stmt,isa 1
     599                    ;----------------------------------------------------------------------
     600                    ; 142 | UART1_LCRH_R = (UART_LCRH_WLEN_8|UART_LCRH_FEN);  // 8 bit word length,
     601                    ;     |  1 stop, no parity, FIFOs enabled                                      
     602                    ;----------------------------------------------------------------------
     603 0000007e 4968              LDR       A2, $C$CON12          ; [DPU_3_PIPE] |142|  ; [ORIG 16-BIT INS]
     604 00000080 2070              MOVS      A1, #112              ; [DPU_3_PIPE] |142|  ; [ORIG 16-BIT INS]
     605 00000082 6008              STR       A1, [A2, #0]          ; [DPU_3_PIPE] |142|  ; [ORIG 16-BIT INS]
TI ARM Assembler PC v5.2.4 Thu Sep 17 23:20:49 2015

Tools Copyright (c) 1996-2015 Texas Instruments Incorporated
esp8266.asm                                                          PAGE   12

     606                            .dwpsn  file "../esp8266.c",line 143,column 3,is_stmt,isa 1
     607                    ;----------------------------------------------------------------------
     608                    ; 143 | UART1_IFLS_R &= ~0x3F;                            // Clear TX and RX in
     609                    ;     | terrupt FIFO level fields                                              
     610                    ;----------------------------------------------------------------------
     611 00000084 4967              LDR       A2, $C$CON13          ; [DPU_3_PIPE] |143|  ; [ORIG 16-BIT INS]
     612 00000086 6808              LDR       A1, [A2, #0]          ; [DPU_3_PIPE] |143|  ; [ORIG 16-BIT INS]
     613 00000088 003FF020          BIC       A1, A1, #63           ; [DPU_3_PIPE] |143|  ; [KEEP 32-BIT INS]
     614 0000008c 6008              STR       A1, [A2, #0]          ; [DPU_3_PIPE] |143|  ; [ORIG 16-BIT INS]
     615                            .dwpsn  file "../esp8266.c",line 144,column 3,is_stmt,isa 1
     616                    ;----------------------------------------------------------------------
     617                    ; 144 | UART1_IFLS_R += UART_IFLS_RX1_8 ;                 // RX FIFO interrupt
     618                    ;     | threshold >= 1/8th full                                                
     619                    ;----------------------------------------------------------------------
     620 0000008e 4965              LDR       A2, $C$CON13          ; [DPU_3_PIPE] |144|  ; [ORIG 16-BIT INS]
     621 00000090 6808              LDR       A1, [A2, #0]          ; [DPU_3_PIPE] |144|  ; [ORIG 16-BIT INS]
     622 00000092 6008              STR       A1, [A2, #0]          ; [DPU_3_PIPE] |144|  ; [ORIG 16-BIT INS]
     623                            .dwpsn  file "../esp8266.c",line 145,column 3,is_stmt,isa 1
     624                    ;----------------------------------------------------------------------
     625                    ; 145 | UART1_IM_R  |= UART_IM_RXIM | UART_IM_RTIM;       // Enable interupt on
     626                    ;     |  RX and RX transmission end                                            
     627                    ;----------------------------------------------------------------------
     628 00000094 4964              LDR       A2, $C$CON14          ; [DPU_3_PIPE] |145|  ; [ORIG 16-BIT INS]
     629 00000096 6808              LDR       A1, [A2, #0]          ; [DPU_3_PIPE] |145|  ; [ORIG 16-BIT INS]
     630 00000098 0050F040          ORR       A1, A1, #80           ; [DPU_3_PIPE] |145|  ; [KEEP 32-BIT INS]
     631 0000009c 6008              STR       A1, [A2, #0]          ; [DPU_3_PIPE] |145|  ; [ORIG 16-BIT INS]
     632                            .dwpsn  file "../esp8266.c",line 146,column 3,is_stmt,isa 1
     633                    ;----------------------------------------------------------------------
     634                    ; 146 | UART1_CTL_R |= UART_CTL_UARTEN;                   // Set UART1 enable b
     635                    ;     | it                                                                     
     636                    ;----------------------------------------------------------------------
     637 0000009e 495D              LDR       A2, $C$CON9           ; [DPU_3_PIPE] |146|  ; [ORIG 16-BIT INS]
     638 000000a0 6808              LDR       A1, [A2, #0]          ; [DPU_3_PIPE] |146|  ; [ORIG 16-BIT INS]
     639 000000a2 0001F040          ORR       A1, A1, #1            ; [DPU_3_PIPE] |146|  ; [KEEP 32-BIT INS]
     640 000000a6 6008              STR       A1, [A2, #0]          ; [DPU_3_PIPE] |146|  ; [ORIG 16-BIT INS]
     641                            .dwpsn  file "../esp8266.c",line 147,column 1,is_stmt,isa 1
     642 000000a8 B002              ADD       SP, SP, #8            ; [DPU_3_PIPE]  ; [ORIG 16-BIT INS]
     643                            .dwcfi  cfa_offset, 0
     644                    $C$DW$40        .dwtag  DW_TAG_TI_branch
     645                            .dwattr $C$DW$40, DW_AT_low_pc(0x00)
     646                            .dwattr $C$DW$40, DW_AT_TI_return
     647 000000aa 4770              BX        LR                    ; [DPU_3_PIPE]  ; [ORIG 16-BIT INS]
     648                            ; BRANCH OCCURS                  ; [] 
     649                            .dwattr $C$DW$38, DW_AT_TI_end_file("../esp8266.c")
     650                            .dwattr $C$DW$38, DW_AT_TI_end_line(0x93)
     651                            .dwattr $C$DW$38, DW_AT_TI_end_column(0x01)
     652                            .dwendentry
     653                            .dwendtag $C$DW$38
     654                    
     655 000000ac                   .sect   ".text"
     656                            .clink
     657                            .thumbfunc ESP8266_Init
     658 000000ac                   .thumb
     659                            .global ESP8266_Init
     660                    
TI ARM Assembler PC v5.2.4 Thu Sep 17 23:20:49 2015

Tools Copyright (c) 1996-2015 Texas Instruments Incorporated
esp8266.asm                                                          PAGE   13

     661                    $C$DW$41        .dwtag  DW_TAG_subprogram, DW_AT_name("ESP8266_Init")
     662                            .dwattr $C$DW$41, DW_AT_low_pc(ESP8266_Init)
     663                            .dwattr $C$DW$41, DW_AT_high_pc(0x00)
     664                            .dwattr $C$DW$41, DW_AT_TI_symbol_name("ESP8266_Init")
     665                            .dwattr $C$DW$41, DW_AT_external
     666                            .dwattr $C$DW$41, DW_AT_TI_begin_file("../esp8266.c")
     667                            .dwattr $C$DW$41, DW_AT_TI_begin_line(0x9c)
     668                            .dwattr $C$DW$41, DW_AT_TI_begin_column(0x06)
     669                            .dwattr $C$DW$41, DW_AT_decl_file("../esp8266.c")
     670                            .dwattr $C$DW$41, DW_AT_decl_line(0x9c)
     671                            .dwattr $C$DW$41, DW_AT_decl_column(0x06)
     672                            .dwattr $C$DW$41, DW_AT_TI_max_frame_size(0x08)
     673                            .dwpsn  file "../esp8266.c",line 156,column 24,is_stmt,address ESP8266_Init,isa 1
     674                    
     675                            .dwfde $C$DW$CIE, ESP8266_Init
     676                    ;----------------------------------------------------------------------
     677                    ; 156 | void ESP8266_Init(void){                                               
     678                    ;----------------------------------------------------------------------
     679                    
     680                    ;*****************************************************************************
     681                    ;* FUNCTION NAME: ESP8266_Init                                               *
     682                    ;*                                                                           *
     683                    ;*   Regs Modified     : A1,A2,A3,A4,V9,SP,LR,SR,D0,D0_hi,D1,D1_hi,D2,D2_hi, *
     684                    ;*                           D3,D3_hi,D4,D4_hi,D5,D5_hi,D6,D6_hi,D7,D7_hi,   *
     685                    ;*                           FPEXC,FPSCR                                     *
     686                    ;*   Regs Used         : A1,A2,A3,A4,V9,SP,LR,SR,D0,D0_hi,D1,D1_hi,D2,D2_hi, *
     687                    ;*                           D3,D3_hi,D4,D4_hi,D5,D5_hi,D6,D6_hi,D7,D7_hi,   *
     688                    ;*                           FPEXC,FPSCR                                     *
     689                    ;*   Local Frame Size  : 0 Args + 0 Auto + 4 Save = 4 byte                   *
     690                    ;*****************************************************************************
     691 000000ac           ESP8266_Init:
     692                    ;* --------------------------------------------------------------------------*
     693                            .dwcfi  cfa_offset, 0
     694 000000ac B508              PUSH      {A4, LR}              ; [DPU_3_PIPE]  ; [ORIG 16-BIT INS]
     695                            .dwcfi  cfa_offset, 8
     696                            .dwcfi  save_reg_to_mem, 14, -4
     697                            .dwcfi  save_reg_to_mem, 3, -8
     698                            .dwpsn  file "../esp8266.c",line 157,column 3,is_stmt,isa 1
     699                    ;----------------------------------------------------------------------
     700                    ; 157 | ESP8266InitUART();                                                     
     701                    ;----------------------------------------------------------------------
     702                    $C$DW$42        .dwtag  DW_TAG_TI_branch
     703                            .dwattr $C$DW$42, DW_AT_low_pc(0x00)
     704                            .dwattr $C$DW$42, DW_AT_name("ESP8266InitUART")
     705                            .dwattr $C$DW$42, DW_AT_TI_call
     706 000000ae FFA7F7FF          BL        ESP8266InitUART       ; [DPU_3_PIPE] |157|  ; [KEEP 32-BIT INS]
     707                            ; CALL OCCURS {ESP8266InitUART }  ; [] |157| 
     708                            .dwpsn  file "../esp8266.c",line 158,column 3,is_stmt,isa 1
     709                    ;----------------------------------------------------------------------
     710                    ; 158 | ESP8266EnableRXInterrupt();                                            
     711                    ;----------------------------------------------------------------------
     712                    $C$DW$43        .dwtag  DW_TAG_TI_branch
     713                            .dwattr $C$DW$43, DW_AT_low_pc(0x00)
     714                            .dwattr $C$DW$43, DW_AT_name("ESP8266EnableRXInterrupt")
     715                            .dwattr $C$DW$43, DW_AT_TI_call
TI ARM Assembler PC v5.2.4 Thu Sep 17 23:20:49 2015

Tools Copyright (c) 1996-2015 Texas Instruments Incorporated
esp8266.asm                                                          PAGE   14

     716 000000b2 FBC6F000          BL        ESP8266EnableRXInterrupt ; [DPU_3_PIPE] |158|  ; [KEEP 32-BIT INS]
     717                            ; CALL OCCURS {ESP8266EnableRXInterrupt }  ; [] |158| 
     718                            .dwpsn  file "../esp8266.c",line 159,column 3,is_stmt,isa 1
     719                    ;----------------------------------------------------------------------
     720                    ; 159 | SearchLooking = false;                                                 
     721                    ;----------------------------------------------------------------------
     722 000000b6 4966              LDR       A2, $C$CON15          ; [DPU_3_PIPE] |159|  ; [ORIG 16-BIT INS]
     723 000000b8 2000              MOVS      A1, #0                ; [DPU_3_PIPE] |159|  ; [ORIG 16-BIT INS]
     724 000000ba 7008              STRB      A1, [A2, #0]          ; [DPU_3_PIPE] |159|  ; [ORIG 16-BIT INS]
     725                            .dwpsn  file "../esp8266.c",line 160,column 3,is_stmt,isa 1
     726                    ;----------------------------------------------------------------------
     727                    ; 160 | SearchFound = false;                                                   
     728                    ;----------------------------------------------------------------------
     729 000000bc 4965              LDR       A2, $C$CON16          ; [DPU_3_PIPE] |160|  ; [ORIG 16-BIT INS]
     730 000000be 2000              MOVS      A1, #0                ; [DPU_3_PIPE] |160|  ; [ORIG 16-BIT INS]
     731 000000c0 7008              STRB      A1, [A2, #0]          ; [DPU_3_PIPE] |160|  ; [ORIG 16-BIT INS]
     732                            .dwpsn  file "../esp8266.c",line 161,column 3,is_stmt,isa 1
     733                    ;----------------------------------------------------------------------
     734                    ; 161 | EnableInterrupts();                                                    
     735                    ; 162 | // step 1: reset module                                                
     736                    ;----------------------------------------------------------------------
     737                    $C$DW$44        .dwtag  DW_TAG_TI_branch
     738                            .dwattr $C$DW$44, DW_AT_low_pc(0x00)
     739                            .dwattr $C$DW$44, DW_AT_name("EnableInterrupts")
     740                            .dwattr $C$DW$44, DW_AT_TI_call
     741 000000c2 FFFEF7FF!         BL        EnableInterrupts      ; [DPU_3_PIPE] |161|  ; [KEEP 32-BIT INS]
     742                            ; CALL OCCURS {EnableInterrupts }  ; [] |161| 
     743                            .dwpsn  file "../esp8266.c",line 163,column 3,is_stmt,isa 1
     744                    ;----------------------------------------------------------------------
     745                    ; 163 | printf("ESP8266 Initialization:\n\r");                                 
     746                    ;----------------------------------------------------------------------
     747 000000c6 A07F              ADR       A1, $C$SL1            ; [DPU_3_PIPE] |163|  ; [ORIG 16-BIT INS]
     748                    $C$DW$45        .dwtag  DW_TAG_TI_branch
     749                            .dwattr $C$DW$45, DW_AT_low_pc(0x00)
     750                            .dwattr $C$DW$45, DW_AT_name("printf")
     751                            .dwattr $C$DW$45, DW_AT_TI_call
     752 000000c8 FFFEF7FF!         BL        printf                ; [DPU_3_PIPE] |163|  ; [KEEP 32-BIT INS]
     753                            ; CALL OCCURS {printf }          ; [] |163| 
     754                            .dwpsn  file "../esp8266.c",line 164,column 3,is_stmt,isa 1
     755                    ;----------------------------------------------------------------------
     756                    ; 164 | printf("Reset module... ");                                            
     757                    ;----------------------------------------------------------------------
     758 000000cc A084              ADR       A1, $C$SL2            ; [DPU_3_PIPE] |164|  ; [ORIG 16-BIT INS]
     759                    $C$DW$46        .dwtag  DW_TAG_TI_branch
     760                            .dwattr $C$DW$46, DW_AT_low_pc(0x00)
     761                            .dwattr $C$DW$46, DW_AT_name("printf")
     762                            .dwattr $C$DW$46, DW_AT_TI_call
     763 000000ce FFFEF7FF!         BL        printf                ; [DPU_3_PIPE] |164|  ; [KEEP 32-BIT INS]
     764                            ; CALL OCCURS {printf }          ; [] |164| 
     765                            .dwpsn  file "../esp8266.c",line 165,column 3,is_stmt,isa 1
     766                    ;----------------------------------------------------------------------
     767                    ; 165 | ESP8266_EchoResponse = true; // debugging                              
     768                    ;----------------------------------------------------------------------
     769 000000d2 4961              LDR       A2, $C$CON17          ; [DPU_3_PIPE] |165|  ; [ORIG 16-BIT INS]
     770 000000d4 2001              MOVS      A1, #1                ; [DPU_3_PIPE] |165|  ; [ORIG 16-BIT INS]
TI ARM Assembler PC v5.2.4 Thu Sep 17 23:20:49 2015

Tools Copyright (c) 1996-2015 Texas Instruments Incorporated
esp8266.asm                                                          PAGE   15

     771 000000d6 7008              STRB      A1, [A2, #0]          ; [DPU_3_PIPE] |165|  ; [ORIG 16-BIT INS]
     772                            .dwpsn  file "../esp8266.c",line 166,column 3,is_stmt,isa 1
     773                    ;----------------------------------------------------------------------
     774                    ; 166 | if(ESP8266_Reset()==0){                                                
     775                    ;----------------------------------------------------------------------
     776                    $C$DW$47        .dwtag  DW_TAG_TI_branch
     777                            .dwattr $C$DW$47, DW_AT_low_pc(0x00)
     778                            .dwattr $C$DW$47, DW_AT_name("ESP8266_Reset")
     779                            .dwattr $C$DW$47, DW_AT_TI_call
     780 000000d8 F9D0F000          BL        ESP8266_Reset         ; [DPU_3_PIPE] |166|  ; [KEEP 32-BIT INS]
     781                            ; CALL OCCURS {ESP8266_Reset }   ; [] |166| 
     782 000000dc B918              CBNZ      A1, ||$C$L2||         ; []  ; [ORIG 16-BIT INS]
     783                            ; BRANCHCC OCCURS {||$C$L2||}    ; [] |166| 
     784                    ;* --------------------------------------------------------------------------*
     785                            .dwpsn  file "../esp8266.c",line 167,column 5,is_stmt,isa 1
     786                    ;----------------------------------------------------------------------
     787                    ; 167 | printf("Reset failure, could not reset\n\r");                          
     788                    ;----------------------------------------------------------------------
     789 000000de A085              ADR       A1, $C$SL3            ; [DPU_3_PIPE] |167|  ; [ORIG 16-BIT INS]
     790                    $C$DW$48        .dwtag  DW_TAG_TI_branch
     791                            .dwattr $C$DW$48, DW_AT_low_pc(0x00)
     792                            .dwattr $C$DW$48, DW_AT_name("printf")
     793                            .dwattr $C$DW$48, DW_AT_TI_call
     794 000000e0 FFFEF7FF!         BL        printf                ; [DPU_3_PIPE] |167|  ; [KEEP 32-BIT INS]
     795                            ; CALL OCCURS {printf }          ; [] |167| 
     796                            .dwpsn  file "../esp8266.c",line 168,column 11,is_stmt,isa 1
     797                    ;----------------------------------------------------------------------
     798                    ; 168 | while(1){};                                                            
     799                    ;----------------------------------------------------------------------
     800                    ;* --------------------------------------------------------------------------*
     801                    ;*   BEGIN LOOP ||$C$L1||
     802                    ;*
     803                    ;*   Loop source line                : 168
     804                    ;*   Loop closing brace source line  : 168
     805                    ;*   Known Minimum Trip Count        : 1
     806                    ;*   Known Maximum Trip Count        : 4294967295
     807                    ;*   Known Max Trip Count Factor     : 1
     808                    ;* --------------------------------------------------------------------------*
     809 000000e4           ||$C$L1||:    
     810 000000e4 E7FE              B         ||$C$L1||             ; [DPU_3_PIPE] |168|  ; [ORIG 16-BIT INS]
     811                            ; BRANCH OCCURS {||$C$L1||}      ; [] |168| 
     812                    ;* --------------------------------------------------------------------------*
     813 000000e6           ||$C$L2||:    
     814                            .dwpsn  file "../esp8266.c",line 171,column 3,is_stmt,isa 1
     815                    ;----------------------------------------------------------------------
     816                    ; 171 | if(ESP8266_SetWifiMode(ESP8266_WIFI_MODE_AP_AND_CLIENT)==0){           
     817                    ;----------------------------------------------------------------------
     818 000000e6 2003              MOVS      A1, #3                ; [DPU_3_PIPE] |171|  ; [ORIG 16-BIT INS]
     819                    $C$DW$49        .dwtag  DW_TAG_TI_branch
     820                            .dwattr $C$DW$49, DW_AT_low_pc(0x00)
     821                            .dwattr $C$DW$49, DW_AT_name("ESP8266_SetWifiMode")
     822                            .dwattr $C$DW$49, DW_AT_TI_call
     823 000000e8 F9FAF000          BL        ESP8266_SetWifiMode   ; [DPU_3_PIPE] |171|  ; [KEEP 32-BIT INS]
     824                            ; CALL OCCURS {ESP8266_SetWifiMode }  ; [] |171| 
     825 000000ec B918              CBNZ      A1, ||$C$L4||         ; []  ; [ORIG 16-BIT INS]
TI ARM Assembler PC v5.2.4 Thu Sep 17 23:20:49 2015

Tools Copyright (c) 1996-2015 Texas Instruments Incorporated
esp8266.asm                                                          PAGE   16

     826                            ; BRANCHCC OCCURS {||$C$L4||}    ; [] |171| 
     827                    ;* --------------------------------------------------------------------------*
     828                            .dwpsn  file "../esp8266.c",line 172,column 5,is_stmt,isa 1
     829                    ;----------------------------------------------------------------------
     830                    ; 172 | printf("SetWifiMode, could not set mode\n\r");                         
     831                    ;----------------------------------------------------------------------
     832 000000ee A08A              ADR       A1, $C$SL4            ; [DPU_3_PIPE] |172|  ; [ORIG 16-BIT INS]
     833                    $C$DW$50        .dwtag  DW_TAG_TI_branch
     834                            .dwattr $C$DW$50, DW_AT_low_pc(0x00)
     835                            .dwattr $C$DW$50, DW_AT_name("printf")
     836                            .dwattr $C$DW$50, DW_AT_TI_call
     837 000000f0 FFFEF7FF!         BL        printf                ; [DPU_3_PIPE] |172|  ; [KEEP 32-BIT INS]
     838                            ; CALL OCCURS {printf }          ; [] |172| 
     839                            .dwpsn  file "../esp8266.c",line 173,column 11,is_stmt,isa 1
     840                    ;----------------------------------------------------------------------
     841                    ; 173 | while(1){};                                                            
     842                    ; 177 | //  if(ESP8266_ConfigureAccessPoint(SSID_NAME,PASSKEY,1,SEC_TYPE)==0){ 
     843                    ; 178 | //    printf("ConfigureAccessPoint error, could not configure AP\n\r");
     844                    ; 179 | //    while(1){};                                                      
     845                    ; 180 | //  }                                                                  
     846                    ;----------------------------------------------------------------------
     847                    ;* --------------------------------------------------------------------------*
     848                    ;*   BEGIN LOOP ||$C$L3||
     849                    ;*
     850                    ;*   Loop source line                : 173
     851                    ;*   Loop closing brace source line  : 173
     852                    ;*   Known Minimum Trip Count        : 1
     853                    ;*   Known Maximum Trip Count        : 4294967295
     854                    ;*   Known Max Trip Count Factor     : 1
     855                    ;* --------------------------------------------------------------------------*
     856 000000f4           ||$C$L3||:    
     857 000000f4 E7FE              B         ||$C$L3||             ; [DPU_3_PIPE] |173|  ; [ORIG 16-BIT INS]
     858                            ; BRANCH OCCURS {||$C$L3||}      ; [] |173| 
     859                    ;* --------------------------------------------------------------------------*
     860 000000f6           ||$C$L4||:    
     861                            .dwpsn  file "../esp8266.c",line 182,column 3,is_stmt,isa 1
     862                    ;----------------------------------------------------------------------
     863                    ; 182 | if(ESP8266_JoinAccessPoint(SSID_NAME,PASSKEY)==0){                     
     864                    ;----------------------------------------------------------------------
     865 000000f6 A091              ADR       A1, $C$SL5            ; [DPU_3_PIPE] |182|  ; [ORIG 16-BIT INS]
     866 000000f8 A196              ADR       A2, $C$SL6            ; [DPU_3_PIPE] |182|  ; [ORIG 16-BIT INS]
     867                    $C$DW$51        .dwtag  DW_TAG_TI_branch
     868                            .dwattr $C$DW$51, DW_AT_low_pc(0x00)
     869                            .dwattr $C$DW$51, DW_AT_name("ESP8266_JoinAccessPoint")
     870                            .dwattr $C$DW$51, DW_AT_TI_call
     871 000000fa FA9EF000          BL        ESP8266_JoinAccessPoint ; [DPU_3_PIPE] |182|  ; [KEEP 32-BIT INS]
     872                            ; CALL OCCURS {ESP8266_JoinAccessPoint }  ; [] |182| 
     873 000000fe B918              CBNZ      A1, ||$C$L6||         ; []  ; [ORIG 16-BIT INS]
     874                            ; BRANCHCC OCCURS {||$C$L6||}    ; [] |182| 
     875                    ;* --------------------------------------------------------------------------*
     876                            .dwpsn  file "../esp8266.c",line 183,column 5,is_stmt,isa 1
     877                    ;----------------------------------------------------------------------
     878                    ; 183 | printf("JoinAccessPoint error, could not join AP\n\r");                
     879                    ;----------------------------------------------------------------------
     880 00000100 A098              ADR       A1, $C$SL7            ; [DPU_3_PIPE] |183|  ; [ORIG 16-BIT INS]
TI ARM Assembler PC v5.2.4 Thu Sep 17 23:20:49 2015

Tools Copyright (c) 1996-2015 Texas Instruments Incorporated
esp8266.asm                                                          PAGE   17

     881                    $C$DW$52        .dwtag  DW_TAG_TI_branch
     882                            .dwattr $C$DW$52, DW_AT_low_pc(0x00)
     883                            .dwattr $C$DW$52, DW_AT_name("printf")
     884                            .dwattr $C$DW$52, DW_AT_TI_call
     885 00000102 FFFEF7FF!         BL        printf                ; [DPU_3_PIPE] |183|  ; [KEEP 32-BIT INS]
     886                            ; CALL OCCURS {printf }          ; [] |183| 
     887                            .dwpsn  file "../esp8266.c",line 184,column 11,is_stmt,isa 1
     888                    ;----------------------------------------------------------------------
     889                    ; 184 | while(1){};                                                            
     890                    ;----------------------------------------------------------------------
     891                    ;* --------------------------------------------------------------------------*
     892                    ;*   BEGIN LOOP ||$C$L5||
     893                    ;*
     894                    ;*   Loop source line                : 184
     895                    ;*   Loop closing brace source line  : 184
     896                    ;*   Known Minimum Trip Count        : 1
     897                    ;*   Known Maximum Trip Count        : 4294967295
     898                    ;*   Known Max Trip Count Factor     : 1
     899                    ;* --------------------------------------------------------------------------*
     900 00000106           ||$C$L5||:    
     901 00000106 E7FE              B         ||$C$L5||             ; [DPU_3_PIPE] |184|  ; [ORIG 16-BIT INS]
     902                            ; BRANCH OCCURS {||$C$L5||}      ; [] |184| 
     903                    ;* --------------------------------------------------------------------------*
     904 00000108           ||$C$L6||:    
     905                            .dwpsn  file "../esp8266.c",line 188,column 3,is_stmt,isa 1
     906                    ;----------------------------------------------------------------------
     907                    ; 188 | if(ESP8266_GetIPAddress()==0){ // data streamed to UART0, OK           
     908                    ;----------------------------------------------------------------------
     909                    $C$DW$53        .dwtag  DW_TAG_TI_branch
     910                            .dwattr $C$DW$53, DW_AT_low_pc(0x00)
     911                            .dwattr $C$DW$53, DW_AT_name("ESP8266_GetIPAddress")
     912                            .dwattr $C$DW$53, DW_AT_TI_call
     913 00000108 FBCEF000          BL        ESP8266_GetIPAddress  ; [DPU_3_PIPE] |188|  ; [KEEP 32-BIT INS]
     914                            ; CALL OCCURS {ESP8266_GetIPAddress }  ; [] |188| 
     915 0000010c B918              CBNZ      A1, ||$C$L8||         ; []  ; [ORIG 16-BIT INS]
     916                            ; BRANCHCC OCCURS {||$C$L8||}    ; [] |188| 
     917                    ;* --------------------------------------------------------------------------*
     918                            .dwpsn  file "../esp8266.c",line 189,column 5,is_stmt,isa 1
     919                    ;----------------------------------------------------------------------
     920                    ; 189 | printf("GetIPAddress error, could not get IP address\n\r");            
     921                    ;----------------------------------------------------------------------
     922 0000010e A0A0              ADR       A1, $C$SL8            ; [DPU_3_PIPE] |189|  ; [ORIG 16-BIT INS]
     923                    $C$DW$54        .dwtag  DW_TAG_TI_branch
     924                            .dwattr $C$DW$54, DW_AT_low_pc(0x00)
     925                            .dwattr $C$DW$54, DW_AT_name("printf")
     926                            .dwattr $C$DW$54, DW_AT_TI_call
     927 00000110 FFFEF7FF!         BL        printf                ; [DPU_3_PIPE] |189|  ; [KEEP 32-BIT INS]
     928                            ; CALL OCCURS {printf }          ; [] |189| 
     929                            .dwpsn  file "../esp8266.c",line 190,column 11,is_stmt,isa 1
     930                    ;----------------------------------------------------------------------
     931                    ; 190 | while(1){};                                                            
     932                    ;----------------------------------------------------------------------
     933                    ;* --------------------------------------------------------------------------*
     934                    ;*   BEGIN LOOP ||$C$L7||
     935                    ;*
TI ARM Assembler PC v5.2.4 Thu Sep 17 23:20:49 2015

Tools Copyright (c) 1996-2015 Texas Instruments Incorporated
esp8266.asm                                                          PAGE   18

     936                    ;*   Loop source line                : 190
     937                    ;*   Loop closing brace source line  : 190
     938                    ;*   Known Minimum Trip Count        : 1
     939                    ;*   Known Maximum Trip Count        : 4294967295
     940                    ;*   Known Max Trip Count Factor     : 1
     941                    ;* --------------------------------------------------------------------------*
     942 00000114           ||$C$L7||:    
     943 00000114 E7FE              B         ||$C$L7||             ; [DPU_3_PIPE] |190|  ; [ORIG 16-BIT INS]
     944                            ; BRANCH OCCURS {||$C$L7||}      ; [] |190| 
     945                    ;* --------------------------------------------------------------------------*
     946 00000116           ||$C$L8||:    
     947                            .dwpsn  file "../esp8266.c",line 193,column 3,is_stmt,isa 1
     948                    ;----------------------------------------------------------------------
     949                    ; 193 | if(ESP8266_SetConnectionMux(0)==0){ // single OK                       
     950                    ;----------------------------------------------------------------------
     951 00000116 2000              MOVS      A1, #0                ; [DPU_3_PIPE] |193|  ; [ORIG 16-BIT INS]
     952                    $C$DW$55        .dwtag  DW_TAG_TI_branch
     953                            .dwattr $C$DW$55, DW_AT_low_pc(0x00)
     954                            .dwattr $C$DW$55, DW_AT_name("ESP8266_SetConnectionMux")
     955                            .dwattr $C$DW$55, DW_AT_TI_call
     956 00000118 FA16F000          BL        ESP8266_SetConnectionMux ; [DPU_3_PIPE] |193|  ; [KEEP 32-BIT INS]
     957                            ; CALL OCCURS {ESP8266_SetConnectionMux }  ; [] |193| 
     958 0000011c B918              CBNZ      A1, ||$C$L10||        ; []  ; [ORIG 16-BIT INS]
     959                            ; BRANCHCC OCCURS {||$C$L10||}   ; [] |193| 
     960                    ;* --------------------------------------------------------------------------*
     961                            .dwpsn  file "../esp8266.c",line 194,column 5,is_stmt,isa 1
     962                    ;----------------------------------------------------------------------
     963                    ; 194 | printf("SetConnectionMux error, could not set connection mux\n\r");    
     964                    ;----------------------------------------------------------------------
     965 0000011e A0A8              ADR       A1, $C$SL9            ; [DPU_3_PIPE] |194|  ; [ORIG 16-BIT INS]
     966                    $C$DW$56        .dwtag  DW_TAG_TI_branch
     967                            .dwattr $C$DW$56, DW_AT_low_pc(0x00)
     968                            .dwattr $C$DW$56, DW_AT_name("printf")
     969                            .dwattr $C$DW$56, DW_AT_TI_call
     970 00000120 FFFEF7FF!         BL        printf                ; [DPU_3_PIPE] |194|  ; [KEEP 32-BIT INS]
     971                            ; CALL OCCURS {printf }          ; [] |194| 
     972                            .dwpsn  file "../esp8266.c",line 195,column 11,is_stmt,isa 1
     973                    ;----------------------------------------------------------------------
     974                    ; 195 | while(1){};                                                            
     975                    ;----------------------------------------------------------------------
     976                    ;* --------------------------------------------------------------------------*
     977                    ;*   BEGIN LOOP ||$C$L9||
     978                    ;*
     979                    ;*   Loop source line                : 195
     980                    ;*   Loop closing brace source line  : 195
     981                    ;*   Known Minimum Trip Count        : 1
     982                    ;*   Known Maximum Trip Count        : 4294967295
     983                    ;*   Known Max Trip Count Factor     : 1
     984                    ;* --------------------------------------------------------------------------*
     985 00000124           ||$C$L9||:    
     986 00000124 E7FE              B         ||$C$L9||             ; [DPU_3_PIPE] |195|  ; [ORIG 16-BIT INS]
     987                            ; BRANCH OCCURS {||$C$L9||}      ; [] |195| 
     988                    ;* --------------------------------------------------------------------------*
     989 00000126           ||$C$L10||:    
     990                            .dwpsn  file "../esp8266.c",line 198,column 3,is_stmt,isa 1
TI ARM Assembler PC v5.2.4 Thu Sep 17 23:20:49 2015

Tools Copyright (c) 1996-2015 Texas Instruments Incorporated
esp8266.asm                                                          PAGE   19

     991                    ;----------------------------------------------------------------------
     992                    ; 198 | if(ESP8266_ListAccessPoints()==0){ // data streamed to UART0, OK       
     993                    ;----------------------------------------------------------------------
     994                    $C$DW$57        .dwtag  DW_TAG_TI_branch
     995                            .dwattr $C$DW$57, DW_AT_low_pc(0x00)
     996                            .dwattr $C$DW$57, DW_AT_name("ESP8266_ListAccessPoints")
     997                            .dwattr $C$DW$57, DW_AT_TI_call
     998 00000126 FAB5F000          BL        ESP8266_ListAccessPoints ; [DPU_3_PIPE] |198|  ; [KEEP 32-BIT INS]
     999                            ; CALL OCCURS {ESP8266_ListAccessPoints }  ; [] |198| 
    1000 0000012a B918              CBNZ      A1, ||$C$L12||        ; []  ; [ORIG 16-BIT INS]
    1001                            ; BRANCHCC OCCURS {||$C$L12||}   ; [] |198| 
    1002                    ;* --------------------------------------------------------------------------*
    1003                            .dwpsn  file "../esp8266.c",line 199,column 5,is_stmt,isa 1
    1004                    ;----------------------------------------------------------------------
    1005                    ; 199 | printf("ListAccessPoints, could not list access points\n\r");          
    1006                    ;----------------------------------------------------------------------
    1007 0000012c A0B2              ADR       A1, $C$SL10           ; [DPU_3_PIPE] |199|  ; [ORIG 16-BIT INS]
    1008                    $C$DW$58        .dwtag  DW_TAG_TI_branch
    1009                            .dwattr $C$DW$58, DW_AT_low_pc(0x00)
    1010                            .dwattr $C$DW$58, DW_AT_name("printf")
    1011                            .dwattr $C$DW$58, DW_AT_TI_call
    1012 0000012e FFFEF7FF!         BL        printf                ; [DPU_3_PIPE] |199|  ; [KEEP 32-BIT INS]
    1013                            ; CALL OCCURS {printf }          ; [] |199| 
    1014                            .dwpsn  file "../esp8266.c",line 200,column 11,is_stmt,isa 1
    1015                    ;----------------------------------------------------------------------
    1016                    ; 200 | while(1){};                                                            
    1017                    ;----------------------------------------------------------------------
    1018                    ;* --------------------------------------------------------------------------*
    1019                    ;*   BEGIN LOOP ||$C$L11||
    1020                    ;*
    1021                    ;*   Loop source line                : 200
    1022                    ;*   Loop closing brace source line  : 200
    1023                    ;*   Known Minimum Trip Count        : 1
    1024                    ;*   Known Maximum Trip Count        : 4294967295
    1025                    ;*   Known Max Trip Count Factor     : 1
    1026                    ;* --------------------------------------------------------------------------*
    1027 00000132           ||$C$L11||:    
    1028 00000132 E7FE              B         ||$C$L11||            ; [DPU_3_PIPE] |200|  ; [ORIG 16-BIT INS]
    1029                            ; BRANCH OCCURS {||$C$L11||}     ; [] |200| 
    1030                    ;* --------------------------------------------------------------------------*
    1031 00000134           ||$C$L12||:    
    1032                            .dwpsn  file "../esp8266.c",line 202,column 3,is_stmt,isa 1
    1033                    ;----------------------------------------------------------------------
    1034                    ; 202 | if(ESP8266_SetDataTransmissionMode(0)==0){ // data streamed to UART0, O
    1035                    ;     | K                                                                      
    1036                    ;----------------------------------------------------------------------
    1037 00000134 2000              MOVS      A1, #0                ; [DPU_3_PIPE] |202|  ; [ORIG 16-BIT INS]
    1038                    $C$DW$59        .dwtag  DW_TAG_TI_branch
    1039                            .dwattr $C$DW$59, DW_AT_low_pc(0x00)
    1040                            .dwattr $C$DW$59, DW_AT_name("ESP8266_SetDataTransmissionMode")
    1041                            .dwattr $C$DW$59, DW_AT_TI_call
    1042 00000136 FC63F000          BL        ESP8266_SetDataTransmissionMode ; [DPU_3_PIPE] |202|  ; [KEEP 32-BIT INS]
    1043                            ; CALL OCCURS {ESP8266_SetDataTransmissionMode }  ; [] |202| 
    1044 0000013a B918              CBNZ      A1, ||$C$L14||        ; []  ; [ORIG 16-BIT INS]
    1045                            ; BRANCHCC OCCURS {||$C$L14||}   ; [] |202| 
TI ARM Assembler PC v5.2.4 Thu Sep 17 23:20:49 2015

Tools Copyright (c) 1996-2015 Texas Instruments Incorporated
esp8266.asm                                                          PAGE   20

    1046                    ;* --------------------------------------------------------------------------*
    1047                            .dwpsn  file "../esp8266.c",line 203,column 5,is_stmt,isa 1
    1048                    ;----------------------------------------------------------------------
    1049                    ; 203 | printf("SetDataTransmissionMode, could not make connection\n\r");      
    1050                    ;----------------------------------------------------------------------
    1051 0000013c A0BB              ADR       A1, $C$SL11           ; [DPU_3_PIPE] |203|  ; [ORIG 16-BIT INS]
    1052                    $C$DW$60        .dwtag  DW_TAG_TI_branch
    1053                            .dwattr $C$DW$60, DW_AT_low_pc(0x00)
    1054                            .dwattr $C$DW$60, DW_AT_name("printf")
    1055                            .dwattr $C$DW$60, DW_AT_TI_call
    1056 0000013e FFFEF7FF!         BL        printf                ; [DPU_3_PIPE] |203|  ; [KEEP 32-BIT INS]
    1057                            ; CALL OCCURS {printf }          ; [] |203| 
    1058                            .dwpsn  file "../esp8266.c",line 204,column 11,is_stmt,isa 1
    1059                    ;----------------------------------------------------------------------
    1060                    ; 204 | while(1){};                                                            
    1061                    ;----------------------------------------------------------------------
    1062                    ;* --------------------------------------------------------------------------*
    1063                    ;*   BEGIN LOOP ||$C$L13||
    1064                    ;*
    1065                    ;*   Loop source line                : 204
    1066                    ;*   Loop closing brace source line  : 204
    1067                    ;*   Known Minimum Trip Count        : 1
    1068                    ;*   Known Maximum Trip Count        : 4294967295
    1069                    ;*   Known Max Trip Count Factor     : 1
    1070                    ;* --------------------------------------------------------------------------*
    1071 00000142           ||$C$L13||:    
    1072 00000142 E7FE              B         ||$C$L13||            ; [DPU_3_PIPE] |204|  ; [ORIG 16-BIT INS]
    1073                            ; BRANCH OCCURS {||$C$L13||}     ; [] |204| 
    1074                    ;* --------------------------------------------------------------------------*
    1075 00000144           ||$C$L14||:    
    1076                            .dwpsn  file "../esp8266.c",line 206,column 3,is_stmt,isa 1
    1077                    ;----------------------------------------------------------------------
    1078                    ; 206 | ESP8266_InputProcessingEnabled = false; // not a server                
    1079                    ;----------------------------------------------------------------------
    1080 00000144 49C7              LDR       A2, $C$CON18          ; [DPU_3_PIPE] |206|  ; [ORIG 16-BIT INS]
    1081 00000146 2000              MOVS      A1, #0                ; [DPU_3_PIPE] |206|  ; [ORIG 16-BIT INS]
    1082 00000148 7008              STRB      A1, [A2, #0]          ; [DPU_3_PIPE] |206|  ; [ORIG 16-BIT INS]
    1083                            .dwpsn  file "../esp8266.c",line 208,column 1,is_stmt,isa 1
    1084                    $C$DW$61        .dwtag  DW_TAG_TI_branch
    1085                            .dwattr $C$DW$61, DW_AT_low_pc(0x00)
    1086                            .dwattr $C$DW$61, DW_AT_TI_return
    1087 0000014a BD08              POP       {A4, PC}              ; [DPU_3_PIPE]  ; [ORIG 16-BIT INS]
    1088                            .dwcfi  cfa_offset, 0
    1089                            ; BRANCH OCCURS                  ; [] 
    1090                            .dwattr $C$DW$41, DW_AT_TI_end_file("../esp8266.c")
    1091                            .dwattr $C$DW$41, DW_AT_TI_end_line(0xd0)
    1092                            .dwattr $C$DW$41, DW_AT_TI_end_column(0x01)
    1093                            .dwendentry
    1094                            .dwendtag $C$DW$41
    1095                    
    1096 0000014c                   .sect   ".text"
    1097                            .clink
    1098                            .thumbfunc UART1_Handler
    1099 0000014c                   .thumb
    1100                            .global UART1_Handler
TI ARM Assembler PC v5.2.4 Thu Sep 17 23:20:49 2015

Tools Copyright (c) 1996-2015 Texas Instruments Incorporated
esp8266.asm                                                          PAGE   21

    1101                    
    1102                    $C$DW$62        .dwtag  DW_TAG_subprogram, DW_AT_name("UART1_Handler")
    1103                            .dwattr $C$DW$62, DW_AT_low_pc(UART1_Handler)
    1104                            .dwattr $C$DW$62, DW_AT_high_pc(0x00)
    1105                            .dwattr $C$DW$62, DW_AT_TI_symbol_name("UART1_Handler")
    1106                            .dwattr $C$DW$62, DW_AT_external
    1107                            .dwattr $C$DW$62, DW_AT_TI_begin_file("../esp8266.c")
    1108                            .dwattr $C$DW$62, DW_AT_TI_begin_line(0xd9)
    1109                            .dwattr $C$DW$62, DW_AT_TI_begin_column(0x06)
    1110                            .dwattr $C$DW$62, DW_AT_decl_file("../esp8266.c")
    1111                            .dwattr $C$DW$62, DW_AT_decl_line(0xd9)
    1112                            .dwattr $C$DW$62, DW_AT_decl_column(0x06)
    1113                            .dwattr $C$DW$62, DW_AT_TI_max_frame_size(0x08)
    1114                            .dwpsn  file "../esp8266.c",line 217,column 25,is_stmt,address UART1_Handler,isa 1
    1115                    
    1116                            .dwfde $C$DW$CIE, UART1_Handler
    1117                    ;----------------------------------------------------------------------
    1118                    ; 217 | void UART1_Handler(void){                                              
    1119                    ;----------------------------------------------------------------------
    1120                    
    1121                    ;*****************************************************************************
    1122                    ;* FUNCTION NAME: UART1_Handler                                              *
    1123                    ;*                                                                           *
    1124                    ;*   Regs Modified     : A1,A2,A3,A4,V9,SP,LR,SR,D0,D0_hi,D1,D1_hi,D2,D2_hi, *
    1125                    ;*                           D3,D3_hi,D4,D4_hi,D5,D5_hi,D6,D6_hi,D7,D7_hi,   *
    1126                    ;*                           FPEXC,FPSCR                                     *
    1127                    ;*   Regs Used         : A1,A2,A3,A4,V9,SP,LR,SR,D0,D0_hi,D1,D1_hi,D2,D2_hi, *
    1128                    ;*                           D3,D3_hi,D4,D4_hi,D5,D5_hi,D6,D6_hi,D7,D7_hi,   *
    1129                    ;*                           FPEXC,FPSCR                                     *
    1130                    ;*   Local Frame Size  : 0 Args + 0 Auto + 4 Save = 4 byte                   *
    1131                    ;*****************************************************************************
    1132 0000014c           UART1_Handler:
    1133                    ;* --------------------------------------------------------------------------*
    1134                            .dwcfi  cfa_offset, 0
    1135 0000014c B508              PUSH      {A4, LR}              ; [DPU_3_PIPE]  ; [ORIG 16-BIT INS]
    1136                            .dwcfi  cfa_offset, 8
    1137                            .dwcfi  save_reg_to_mem, 14, -4
    1138                            .dwcfi  save_reg_to_mem, 3, -8
    1139                            .dwpsn  file "../esp8266.c",line 218,column 3,is_stmt,isa 1
    1140                    ;----------------------------------------------------------------------
    1141                    ; 218 | if(UART1_RIS_R & UART_RIS_RXRIS){   // rx fifo >= 1/8 full             
    1142                    ;----------------------------------------------------------------------
    1143 0000014e 48C6              LDR       A1, $C$CON19          ; [DPU_3_PIPE] |218|  ; [ORIG 16-BIT INS]
    1144 00000150 6800              LDR       A1, [A1, #0]          ; [DPU_3_PIPE] |218|  ; [ORIG 16-BIT INS]
    1145 00000152 0940              LSRS      A1, A1, #5            ; [DPU_3_PIPE] |218|  ; [ORIG 16-BIT INS]
    1146 00000154 D304              BCC       ||$C$L15||            ; [DPU_3_PIPE] |218|  ; [ORIG 16-BIT INS]
    1147                            ; BRANCHCC OCCURS {||$C$L15||}   ; [] |218| 
    1148                    ;* --------------------------------------------------------------------------*
    1149                            .dwpsn  file "../esp8266.c",line 219,column 5,is_stmt,isa 1
    1150                    ;----------------------------------------------------------------------
    1151                    ; 219 | UART1_ICR_R = UART_ICR_RXIC;      // acknowledge interrupt             
    1152                    ;----------------------------------------------------------------------
    1153 00000156 49C5              LDR       A2, $C$CON20          ; [DPU_3_PIPE] |219|  ; [ORIG 16-BIT INS]
    1154 00000158 2010              MOVS      A1, #16               ; [DPU_3_PIPE] |219|  ; [ORIG 16-BIT INS]
    1155 0000015a 6008              STR       A1, [A2, #0]          ; [DPU_3_PIPE] |219|  ; [ORIG 16-BIT INS]
TI ARM Assembler PC v5.2.4 Thu Sep 17 23:20:49 2015

Tools Copyright (c) 1996-2015 Texas Instruments Incorporated
esp8266.asm                                                          PAGE   22

    1156                            .dwpsn  file "../esp8266.c",line 220,column 5,is_stmt,isa 1
    1157                    ;----------------------------------------------------------------------
    1158                    ; 220 | ESP8266FIFOtoBuffer();                                                 
    1159                    ;----------------------------------------------------------------------
    1160                    $C$DW$63        .dwtag  DW_TAG_TI_branch
    1161                            .dwattr $C$DW$63, DW_AT_low_pc(0x00)
    1162                            .dwattr $C$DW$63, DW_AT_name("ESP8266FIFOtoBuffer")
    1163                            .dwattr $C$DW$63, DW_AT_TI_call
    1164 0000015c F816F000          BL        ESP8266FIFOtoBuffer   ; [DPU_3_PIPE] |220|  ; [KEEP 32-BIT INS]
    1165                            ; CALL OCCURS {ESP8266FIFOtoBuffer }  ; [] |220| 
    1166                    ;* --------------------------------------------------------------------------*
    1167 00000160           ||$C$L15||:    
    1168                            .dwpsn  file "../esp8266.c",line 222,column 3,is_stmt,isa 1
    1169                    ;----------------------------------------------------------------------
    1170                    ; 222 | if(UART1_RIS_R & UART_RIS_RTRIS){   // receiver timed out              
    1171                    ;----------------------------------------------------------------------
    1172 00000160 48C1              LDR       A1, $C$CON19          ; [DPU_3_PIPE] |222|  ; [ORIG 16-BIT INS]
    1173 00000162 6800              LDR       A1, [A1, #0]          ; [DPU_3_PIPE] |222|  ; [ORIG 16-BIT INS]
    1174 00000164 09C0              LSRS      A1, A1, #7            ; [DPU_3_PIPE] |222|  ; [ORIG 16-BIT INS]
    1175 00000166 D304              BCC       ||$C$L16||            ; [DPU_3_PIPE] |222|  ; [ORIG 16-BIT INS]
    1176                            ; BRANCHCC OCCURS {||$C$L16||}   ; [] |222| 
    1177                    ;* --------------------------------------------------------------------------*
    1178                            .dwpsn  file "../esp8266.c",line 223,column 5,is_stmt,isa 1
    1179                    ;----------------------------------------------------------------------
    1180                    ; 223 | UART1_ICR_R = UART_ICR_RTIC;      // acknowledge receiver time         
    1181                    ;----------------------------------------------------------------------
    1182 00000168 49C0              LDR       A2, $C$CON20          ; [DPU_3_PIPE] |223|  ; [ORIG 16-BIT INS]
    1183 0000016a 2040              MOVS      A1, #64               ; [DPU_3_PIPE] |223|  ; [ORIG 16-BIT INS]
    1184 0000016c 6008              STR       A1, [A2, #0]          ; [DPU_3_PIPE] |223|  ; [ORIG 16-BIT INS]
    1185                            .dwpsn  file "../esp8266.c",line 224,column 5,is_stmt,isa 1
    1186                    ;----------------------------------------------------------------------
    1187                    ; 224 | ESP8266FIFOtoBuffer();                                                 
    1188                    ;----------------------------------------------------------------------
    1189                    $C$DW$64        .dwtag  DW_TAG_TI_branch
    1190                            .dwattr $C$DW$64, DW_AT_low_pc(0x00)
    1191                            .dwattr $C$DW$64, DW_AT_name("ESP8266FIFOtoBuffer")
    1192                            .dwattr $C$DW$64, DW_AT_TI_call
    1193 0000016e F80DF000          BL        ESP8266FIFOtoBuffer   ; [DPU_3_PIPE] |224|  ; [KEEP 32-BIT INS]
    1194                            ; CALL OCCURS {ESP8266FIFOtoBuffer }  ; [] |224| 
    1195                            .dwpsn  file "../esp8266.c",line 226,column 1,is_stmt,isa 1
    1196                    ;* --------------------------------------------------------------------------*
    1197                    ||$C$L16||:    
    1198                    $C$DW$65        .dwtag  DW_TAG_TI_branch
    1199                            .dwattr $C$DW$65, DW_AT_low_pc(0x00)
    1200                            .dwattr $C$DW$65, DW_AT_TI_return
    1201 00000172 BD08              POP       {A4, PC}              ; [DPU_3_PIPE]  ; [ORIG 16-BIT INS]
    1202                            .dwcfi  cfa_offset, 0
    1203                            ; BRANCH OCCURS                  ; [] 
    1204                            .dwattr $C$DW$62, DW_AT_TI_end_file("../esp8266.c")
    1205                            .dwattr $C$DW$62, DW_AT_TI_end_line(0xe2)
    1206                            .dwattr $C$DW$62, DW_AT_TI_end_column(0x01)
    1207                            .dwendentry
    1208                            .dwendtag $C$DW$62
    1209                    
    1210                    ;******************************************************************************
TI ARM Assembler PC v5.2.4 Thu Sep 17 23:20:49 2015

Tools Copyright (c) 1996-2015 Texas Instruments Incorporated
esp8266.asm                                                          PAGE   23

    1211                    ;* CONSTANT TABLE                                                             *
    1212                    ;******************************************************************************
    1213 00000174                   .sect   ".text"
    1214                            .align  4
    1215 00000174 400FE618  ||$C$CON1||:    .bits   1074783768,32
    1216                            .align  4
    1217 00000178 400FE608  ||$C$CON2||:    .bits   1074783752,32
    1218                            .align  4
    1219 0000017c 40005420  ||$C$CON3||:    .bits   1073763360,32
    1220                            .align  4
    1221 00000180 40005400  ||$C$CON4||:    .bits   1073763328,32
    1222                            .align  4
    1223 00000184 4000552C  ||$C$CON5||:    .bits   1073763628,32
    1224                            .align  4
    1225 00000188 FF0FFF00  ||$C$CON6||:    .bits   -15728896,32
    1226 0000018c                   .sect   ".text"
    1227                            .clink
    1228                            .thumbfunc ESP8266FIFOtoBuffer
    1229 0000018c                   .thumb
    1230                            .global ESP8266FIFOtoBuffer
    1231                    
    1232                    $C$DW$66        .dwtag  DW_TAG_subprogram, DW_AT_name("ESP8266FIFOtoBuffer")
    1233                            .dwattr $C$DW$66, DW_AT_low_pc(ESP8266FIFOtoBuffer)
    1234                            .dwattr $C$DW$66, DW_AT_high_pc(0x00)
    1235                            .dwattr $C$DW$66, DW_AT_TI_symbol_name("ESP8266FIFOtoBuffer")
    1236                            .dwattr $C$DW$66, DW_AT_external
    1237                            .dwattr $C$DW$66, DW_AT_TI_begin_file("../esp8266.c")
    1238                            .dwattr $C$DW$66, DW_AT_TI_begin_line(0xec)
    1239                            .dwattr $C$DW$66, DW_AT_TI_begin_column(0x06)
    1240                            .dwattr $C$DW$66, DW_AT_decl_file("../esp8266.c")
    1241                            .dwattr $C$DW$66, DW_AT_decl_line(0xec)
    1242                            .dwattr $C$DW$66, DW_AT_decl_column(0x06)
    1243                            .dwattr $C$DW$66, DW_AT_TI_max_frame_size(0x08)
    1244                            .dwpsn  file "../esp8266.c",line 236,column 31,is_stmt,address ESP8266FIFOtoBuffer,isa 1
    1245                    
    1246                            .dwfde $C$DW$CIE, ESP8266FIFOtoBuffer
    1247                    ;----------------------------------------------------------------------
    1248                    ; 236 | void ESP8266FIFOtoBuffer(void){                                        
    1249                    ; 237 | char letter;                                                           
    1250                    ;----------------------------------------------------------------------
    1251                    
    1252                    ;*****************************************************************************
    1253                    ;* FUNCTION NAME: ESP8266FIFOtoBuffer                                        *
    1254                    ;*                                                                           *
    1255                    ;*   Regs Modified     : A1,A2,A3,A4,V9,SP,LR,SR,D0,D0_hi,D1,D1_hi,D2,D2_hi, *
    1256                    ;*                           D3,D3_hi,D4,D4_hi,D5,D5_hi,D6,D6_hi,D7,D7_hi,   *
    1257                    ;*                           FPEXC,FPSCR                                     *
    1258                    ;*   Regs Used         : A1,A2,A3,A4,V9,SP,LR,SR,D0,D0_hi,D1,D1_hi,D2,D2_hi, *
    1259                    ;*                           D3,D3_hi,D4,D4_hi,D5,D5_hi,D6,D6_hi,D7,D7_hi,   *
    1260                    ;*                           FPEXC,FPSCR                                     *
    1261                    ;*   Local Frame Size  : 0 Args + 4 Auto + 4 Save = 8 byte                   *
    1262                    ;*****************************************************************************
    1263 0000018c           ESP8266FIFOtoBuffer:
    1264                    ;* --------------------------------------------------------------------------*
    1265                            .dwcfi  cfa_offset, 0
TI ARM Assembler PC v5.2.4 Thu Sep 17 23:20:49 2015

Tools Copyright (c) 1996-2015 Texas Instruments Incorporated
esp8266.asm                                                          PAGE   24

    1266 0000018c B508              PUSH      {A4, LR}              ; [DPU_3_PIPE]  ; [ORIG 16-BIT INS]
    1267                            .dwcfi  cfa_offset, 8
    1268                            .dwcfi  save_reg_to_mem, 14, -4
    1269                            .dwcfi  save_reg_to_mem, 3, -8
    1270                    $C$DW$67        .dwtag  DW_TAG_variable, DW_AT_name("letter")
    1271                            .dwattr $C$DW$67, DW_AT_TI_symbol_name("letter")
    1272                            .dwattr $C$DW$67, DW_AT_type(*$C$DW$T$6)
    1273                            .dwattr $C$DW$67, DW_AT_location[DW_OP_breg13 0]
    1274                            .dwpsn  file "../esp8266.c",line 238,column 3,is_stmt,isa 1
    1275                    ;----------------------------------------------------------------------
    1276                    ; 238 | while((UART1_FR_R&UART_FR_RXFE) == 0){                                 
    1277                    ;----------------------------------------------------------------------
    1278 0000018e E038              B         ||$C$L21||            ; [DPU_3_PIPE] |238|  ; [ORIG 16-BIT INS]
    1279                            ; BRANCH OCCURS {||$C$L21||}     ; [] |238| 
    1280                    ;* --------------------------------------------------------------------------*
    1281 00000190           ||$C$L17||:    
    1282                            .dwpsn  file "../esp8266.c",line 239,column 5,is_stmt,isa 1
    1283                    ;----------------------------------------------------------------------
    1284                    ; 239 | letter = UART1_DR_R;        // retrieve char from FIFO                 
    1285                    ;----------------------------------------------------------------------
    1286 00000190 48B7              LDR       A1, $C$CON21          ; [DPU_3_PIPE] |239|  ; [ORIG 16-BIT INS]
    1287 00000192 6800              LDR       A1, [A1, #0]          ; [DPU_3_PIPE] |239|  ; [ORIG 16-BIT INS]
    1288 00000194 0000F88D          STRB      A1, [SP, #0]          ; [DPU_3_PIPE] |239|  ; [KEEP 32-BIT INS]
    1289                            .dwpsn  file "../esp8266.c",line 240,column 5,is_stmt,isa 1
    1290                    ;----------------------------------------------------------------------
    1291                    ; 240 | if(ESP8266_EchoResponse){                                              
    1292                    ;----------------------------------------------------------------------
    1293 00000198 482F              LDR       A1, $C$CON17          ; [DPU_3_PIPE] |240|  ; [ORIG 16-BIT INS]
    1294 0000019a 7800              LDRB      A1, [A1, #0]          ; [DPU_3_PIPE] |240|  ; [ORIG 16-BIT INS]
    1295 0000019c B118              CBZ       A1, ||$C$L18||        ; []  ; [ORIG 16-BIT INS]
    1296                            ; BRANCHCC OCCURS {||$C$L18||}   ; [] |240| 
    1297                    ;* --------------------------------------------------------------------------*
    1298                            .dwpsn  file "../esp8266.c",line 241,column 7,is_stmt,isa 1
    1299                    ;----------------------------------------------------------------------
    1300                    ; 241 | UART_OutCharNonBlock(letter); // echo                                  
    1301                    ;----------------------------------------------------------------------
    1302 0000019e 0000F89D          LDRB      A1, [SP, #0]          ; [DPU_3_PIPE] |241|  ; [KEEP 32-BIT INS]
    1303                    $C$DW$68        .dwtag  DW_TAG_TI_branch
    1304                            .dwattr $C$DW$68, DW_AT_low_pc(0x00)
    1305                            .dwattr $C$DW$68, DW_AT_name("UART_OutCharNonBlock")
    1306                            .dwattr $C$DW$68, DW_AT_TI_call
    1307 000001a2 FFFEF7FF!         BL        UART_OutCharNonBlock  ; [DPU_3_PIPE] |241|  ; [KEEP 32-BIT INS]
    1308                            ; CALL OCCURS {UART_OutCharNonBlock }  ; [] |241| 
    1309                    ;* --------------------------------------------------------------------------*
    1310 000001a6           ||$C$L18||:    
    1311                            .dwpsn  file "../esp8266.c",line 243,column 5,is_stmt,isa 1
    1312                    ;----------------------------------------------------------------------
    1313                    ; 243 | if(letter != '\r'){                                                    
    1314                    ;----------------------------------------------------------------------
    1315 000001a6 0000F89D          LDRB      A1, [SP, #0]          ; [DPU_3_PIPE] |243|  ; [KEEP 32-BIT INS]
    1316 000001aa 280D              CMP       A1, #13               ; [DPU_3_PIPE] |243|  ; [ORIG 16-BIT INS]
    1317 000001ac D029              BEQ       ||$C$L21||            ; [DPU_3_PIPE] |243|  ; [ORIG 16-BIT INS]
    1318                            ; BRANCHCC OCCURS {||$C$L21||}   ; [] |243| 
    1319                    ;* --------------------------------------------------------------------------*
    1320                            .dwpsn  file "../esp8266.c",line 244,column 7,is_stmt,isa 1
TI ARM Assembler PC v5.2.4 Thu Sep 17 23:20:49 2015

Tools Copyright (c) 1996-2015 Texas Instruments Incorporated
esp8266.asm                                                          PAGE   25

    1321                    ;----------------------------------------------------------------------
    1322                    ; 244 | if(ESP8266_RXBufferIndex < (ESP8266_RXBuffer_SIZE-1)){ // space for two
    1323                    ;     | ?                                                                      
    1324                    ;----------------------------------------------------------------------
    1325 000001ae 48B1              LDR       A1, $C$CON22          ; [DPU_3_PIPE] |244|  ; [ORIG 16-BIT INS]
    1326 000001b0 6800              LDR       A1, [A1, #0]          ; [DPU_3_PIPE] |244|  ; [ORIG 16-BIT INS]
    1327 000001b2 31FFF240          MOV       A2, #1023             ; [DPU_3_PIPE] |244|  ; [KEEP 32-BIT INS]
    1328 000001b6 4281              CMP       A2, A1                ; [DPU_3_PIPE] |244|  ; [ORIG 16-BIT INS]
    1329 000001b8 D909              BLS       ||$C$L19||            ; [DPU_3_PIPE] |244|  ; [ORIG 16-BIT INS]
    1330                            ; BRANCHCC OCCURS {||$C$L19||}   ; [] |244| 
    1331                    ;* --------------------------------------------------------------------------*
    1332                            .dwpsn  file "../esp8266.c",line 245,column 9,is_stmt,isa 1
    1333                    ;----------------------------------------------------------------------
    1334                    ; 245 | ESP8266_RXBuffer[ESP8266_RXBufferIndex] = letter; // put char into buff
    1335                    ;     | er                                                                     
    1336                    ;----------------------------------------------------------------------
    1337 000001ba 49AE              LDR       A2, $C$CON22          ; [DPU_3_PIPE] |245|  ; [ORIG 16-BIT INS]
    1338 000001bc 4AAE              LDR       A3, $C$CON23          ; [DPU_3_PIPE] |245|  ; [ORIG 16-BIT INS]
    1339 000001be 0000F89D          LDRB      A1, [SP, #0]          ; [DPU_3_PIPE] |245|  ; [KEEP 32-BIT INS]
    1340 000001c2 6809              LDR       A2, [A2, #0]          ; [DPU_3_PIPE] |245|  ; [ORIG 16-BIT INS]
    1341 000001c4 5450              STRB      A1, [A3, +A2]         ; [DPU_3_PIPE] |245|  ; [ORIG 16-BIT INS]
    1342                            .dwpsn  file "../esp8266.c",line 246,column 9,is_stmt,isa 1
    1343                    ;----------------------------------------------------------------------
    1344                    ; 246 | ESP8266_RXBufferIndex++; // increment buffer index                     
    1345                    ;----------------------------------------------------------------------
    1346 000001c6 49AB              LDR       A2, $C$CON22          ; [DPU_3_PIPE] |246|  ; [ORIG 16-BIT INS]
    1347 000001c8 6808              LDR       A1, [A2, #0]          ; [DPU_3_PIPE] |246|  ; [ORIG 16-BIT INS]
    1348 000001ca 1C40              ADDS      A1, A1, #1            ; [DPU_3_PIPE] |246|  ; [ORIG 16-BIT INS]
    1349 000001cc 6008              STR       A1, [A2, #0]          ; [DPU_3_PIPE] |246|  ; [ORIG 16-BIT INS]
    1350                    ;* --------------------------------------------------------------------------*
    1351 000001ce           ||$C$L19||:    
    1352                            .dwpsn  file "../esp8266.c",line 248,column 7,is_stmt,isa 1
    1353                    ;----------------------------------------------------------------------
    1354                    ; 248 | if(letter == '\n'){                                                    
    1355                    ;----------------------------------------------------------------------
    1356 000001ce 0000F89D          LDRB      A1, [SP, #0]          ; [DPU_3_PIPE] |248|  ; [KEEP 32-BIT INS]
    1357 000001d2 280A              CMP       A1, #10               ; [DPU_3_PIPE] |248|  ; [ORIG 16-BIT INS]
    1358 000001d4 D115              BNE       ||$C$L21||            ; [DPU_3_PIPE] |248|  ; [ORIG 16-BIT INS]
    1359                            ; BRANCHCC OCCURS {||$C$L21||}   ; [] |248| 
    1360                    ;* --------------------------------------------------------------------------*
    1361                            .dwpsn  file "../esp8266.c",line 249,column 9,is_stmt,isa 1
    1362                    ;----------------------------------------------------------------------
    1363                    ; 249 | ESP8266_RXBuffer[ESP8266_RXBufferIndex] = 0;                           
    1364                    ;----------------------------------------------------------------------
    1365 000001d6 48A7              LDR       A1, $C$CON22          ; [DPU_3_PIPE] |249|  ; [ORIG 16-BIT INS]
    1366 000001d8 4AA7              LDR       A3, $C$CON23          ; [DPU_3_PIPE] |249|  ; [ORIG 16-BIT INS]
    1367 000001da 6800              LDR       A1, [A1, #0]          ; [DPU_3_PIPE] |249|  ; [ORIG 16-BIT INS]
    1368 000001dc 2100              MOVS      A2, #0                ; [DPU_3_PIPE] |249|  ; [ORIG 16-BIT INS]
    1369 000001de 5411              STRB      A2, [A3, +A1]         ; [DPU_3_PIPE] |249|  ; [ORIG 16-BIT INS]
    1370                            .dwpsn  file "../esp8266.c",line 250,column 9,is_stmt,isa 1
    1371                    ;----------------------------------------------------------------------
    1372                    ; 250 | if(SearchLooking){                                                     
    1373                    ;----------------------------------------------------------------------
    1374 000001e0 481B              LDR       A1, $C$CON15          ; [DPU_3_PIPE] |250|  ; [ORIG 16-BIT INS]
    1375 000001e2 7800              LDRB      A1, [A1, #0]          ; [DPU_3_PIPE] |250|  ; [ORIG 16-BIT INS]
TI ARM Assembler PC v5.2.4 Thu Sep 17 23:20:49 2015

Tools Copyright (c) 1996-2015 Texas Instruments Incorporated
esp8266.asm                                                          PAGE   26

    1376 000001e4 B150              CBZ       A1, ||$C$L20||        ; []  ; [ORIG 16-BIT INS]
    1377                            ; BRANCHCC OCCURS {||$C$L20||}   ; [] |250| 
    1378                    ;* --------------------------------------------------------------------------*
    1379                            .dwpsn  file "../esp8266.c",line 251,column 11,is_stmt,isa 1
    1380                    ;----------------------------------------------------------------------
    1381                    ; 251 | if(strstr(ESP8266_RXBuffer,SearchString)){                             
    1382                    ;----------------------------------------------------------------------
    1383 000001e6 48A4              LDR       A1, $C$CON23          ; [DPU_3_PIPE] |251|  ; [ORIG 16-BIT INS]
    1384 000001e8 49C9              LDR       A2, $C$CON24          ; [DPU_3_PIPE] |251|  ; [ORIG 16-BIT INS]
    1385                    $C$DW$69        .dwtag  DW_TAG_TI_branch
    1386                            .dwattr $C$DW$69, DW_AT_low_pc(0x00)
    1387                            .dwattr $C$DW$69, DW_AT_name("strstr")
    1388                            .dwattr $C$DW$69, DW_AT_TI_call
    1389 000001ea FFFEF7FF!         BL        strstr                ; [DPU_3_PIPE] |251|  ; [KEEP 32-BIT INS]
    1390                            ; CALL OCCURS {strstr }          ; [] |251| 
    1391 000001ee B128              CBZ       A1, ||$C$L20||        ; []  ; [ORIG 16-BIT INS]
    1392                            ; BRANCHCC OCCURS {||$C$L20||}   ; [] |251| 
    1393                    ;* --------------------------------------------------------------------------*
    1394                            .dwpsn  file "../esp8266.c",line 252,column 13,is_stmt,isa 1
    1395                    ;----------------------------------------------------------------------
    1396                    ; 252 | SearchLooking = false;                                                 
    1397                    ;----------------------------------------------------------------------
    1398 000001f0 4917              LDR       A2, $C$CON15          ; [DPU_3_PIPE] |252|  ; [ORIG 16-BIT INS]
    1399 000001f2 2000              MOVS      A1, #0                ; [DPU_3_PIPE] |252|  ; [ORIG 16-BIT INS]
    1400 000001f4 7008              STRB      A1, [A2, #0]          ; [DPU_3_PIPE] |252|  ; [ORIG 16-BIT INS]
    1401                            .dwpsn  file "../esp8266.c",line 253,column 13,is_stmt,isa 1
    1402                    ;----------------------------------------------------------------------
    1403                    ; 253 | SearchFound = true;                                                    
    1404                    ;----------------------------------------------------------------------
    1405 000001f6 4917              LDR       A2, $C$CON16          ; [DPU_3_PIPE] |253|  ; [ORIG 16-BIT INS]
    1406 000001f8 2001              MOVS      A1, #1                ; [DPU_3_PIPE] |253|  ; [ORIG 16-BIT INS]
    1407 000001fa 7008              STRB      A1, [A2, #0]          ; [DPU_3_PIPE] |253|  ; [ORIG 16-BIT INS]
    1408                    ;* --------------------------------------------------------------------------*
    1409 000001fc           ||$C$L20||:    
    1410                            .dwpsn  file "../esp8266.c",line 256,column 9,is_stmt,isa 1
    1411                    ;----------------------------------------------------------------------
    1412                    ; 256 | ESP8266_RXBufferIndex = 0;                                             
    1413                    ; 257 | //        ESP8266_ProcessBuffer = true;                                
    1414                    ; 258 | //        if(ESP8266_InputProcessingEnabled){                          
    1415                    ; 259 | //          ESP8266_ProcessInput((const char*)ESP8266_RXBuffer);       
    1416                    ; 260 | //        }                                                            
    1417                    ; 261 | //        if(ESP8266_EchoResponse){int i=0;                            
    1418                    ; 262 | //          while(letter==ESP8266_RXBuffer[i]){                        
    1419                    ; 263 | //            UART_OutChar(letter); // echo                            
    1420                    ; 264 | //            i++;                                                     
    1421                    ; 265 | //          }                                                          
    1422                    ; 266 | //        }                                                            
    1423                    ;----------------------------------------------------------------------
    1424 000001fc 499D              LDR       A2, $C$CON22          ; [DPU_3_PIPE] |256|  ; [ORIG 16-BIT INS]
    1425 000001fe 2000              MOVS      A1, #0                ; [DPU_3_PIPE] |256|  ; [ORIG 16-BIT INS]
    1426 00000200 6008              STR       A1, [A2, #0]          ; [DPU_3_PIPE] |256|  ; [ORIG 16-BIT INS]
    1427                    ;* --------------------------------------------------------------------------*
    1428                    ;*   BEGIN LOOP ||$C$L21||
    1429                    ;* --------------------------------------------------------------------------*
    1430 00000202           ||$C$L21||:    
TI ARM Assembler PC v5.2.4 Thu Sep 17 23:20:49 2015

Tools Copyright (c) 1996-2015 Texas Instruments Incorporated
esp8266.asm                                                          PAGE   27

    1431                            .dwpsn  file "../esp8266.c",line 238,column 9,is_stmt,isa 1
    1432 00000202 48B6              LDR       A1, $C$CON25          ; [DPU_3_PIPE] |238|  ; [ORIG 16-BIT INS]
    1433 00000204 6800              LDR       A1, [A1, #0]          ; [DPU_3_PIPE] |238|  ; [ORIG 16-BIT INS]
    1434 00000206 0940              LSRS      A1, A1, #5            ; [DPU_3_PIPE] |238|  ; [ORIG 16-BIT INS]
    1435 00000208 D3C2              BCC       ||$C$L17||            ; [DPU_3_PIPE] |238|  ; [ORIG 16-BIT INS]
    1436                            ; BRANCHCC OCCURS {||$C$L17||}   ; [] |238| 
    1437                    ;* --------------------------------------------------------------------------*
    1438                            .dwpsn  file "../esp8266.c",line 270,column 1,is_stmt,isa 1
    1439                    $C$DW$70        .dwtag  DW_TAG_TI_branch
    1440                            .dwattr $C$DW$70, DW_AT_low_pc(0x00)
    1441                            .dwattr $C$DW$70, DW_AT_TI_return
    1442 0000020a BD08              POP       {A4, PC}              ; [DPU_3_PIPE]  ; [ORIG 16-BIT INS]
    1443                            .dwcfi  cfa_offset, 0
    1444                            ; BRANCH OCCURS                  ; [] 
    1445                            .dwattr $C$DW$66, DW_AT_TI_end_file("../esp8266.c")
    1446                            .dwattr $C$DW$66, DW_AT_TI_end_line(0x10e)
    1447                            .dwattr $C$DW$66, DW_AT_TI_end_column(0x01)
    1448                            .dwendentry
    1449                            .dwendtag $C$DW$66
    1450                    
    1451                    ;******************************************************************************
    1452                    ;* CONSTANT TABLE                                                             *
    1453                    ;******************************************************************************
    1454 0000020c                   .sect   ".text"
    1455                            .align  4
    1456 0000020c 4000551C  ||$C$CON7||:    .bits   1073763612,32
    1457                            .align  4
    1458 00000210 400053FC  ||$C$CON8||:    .bits   1073763324,32
    1459                            .align  4
    1460 00000214 4000D030  ||$C$CON9||:    .bits   1073795120,32
    1461                            .align  4
    1462 00000218 4000D024  ||$C$CON10||:   .bits   1073795108,32
    1463                            .align  4
    1464 0000021c 4000D028  ||$C$CON11||:   .bits   1073795112,32
    1465                            .align  4
    1466 00000220 4000D02C  ||$C$CON12||:   .bits   1073795116,32
    1467                            .align  4
    1468 00000224 4000D034  ||$C$CON13||:   .bits   1073795124,32
    1469                            .align  4
    1470 00000228 4000D038  ||$C$CON14||:   .bits   1073795128,32
    1471 0000022c                   .sect   ".text"
    1472                            .clink
    1473                            .thumbfunc ESP8266SendCommand
    1474 0000022c                   .thumb
    1475                            .global ESP8266SendCommand
    1476                    
    1477                    $C$DW$71        .dwtag  DW_TAG_subprogram, DW_AT_name("ESP8266SendCommand")
    1478                            .dwattr $C$DW$71, DW_AT_low_pc(ESP8266SendCommand)
    1479                            .dwattr $C$DW$71, DW_AT_high_pc(0x00)
    1480                            .dwattr $C$DW$71, DW_AT_TI_symbol_name("ESP8266SendCommand")
    1481                            .dwattr $C$DW$71, DW_AT_external
    1482                            .dwattr $C$DW$71, DW_AT_TI_begin_file("../esp8266.c")
    1483                            .dwattr $C$DW$71, DW_AT_TI_begin_line(0x117)
    1484                            .dwattr $C$DW$71, DW_AT_TI_begin_column(0x06)
    1485                            .dwattr $C$DW$71, DW_AT_decl_file("../esp8266.c")
TI ARM Assembler PC v5.2.4 Thu Sep 17 23:20:49 2015

Tools Copyright (c) 1996-2015 Texas Instruments Incorporated
esp8266.asm                                                          PAGE   28

    1486                            .dwattr $C$DW$71, DW_AT_decl_line(0x117)
    1487                            .dwattr $C$DW$71, DW_AT_decl_column(0x06)
    1488                            .dwattr $C$DW$71, DW_AT_TI_max_frame_size(0x10)
    1489                            .dwpsn  file "../esp8266.c",line 279,column 49,is_stmt,address ESP8266SendCommand,isa 1
    1490                    
    1491                            .dwfde $C$DW$CIE, ESP8266SendCommand
    1492                    $C$DW$72        .dwtag  DW_TAG_formal_parameter, DW_AT_name("inputString")
    1493                            .dwattr $C$DW$72, DW_AT_TI_symbol_name("inputString")
    1494                            .dwattr $C$DW$72, DW_AT_type(*$C$DW$T$36)
    1495                            .dwattr $C$DW$72, DW_AT_location[DW_OP_reg0]
    1496                    
    1497                    ;*****************************************************************************
    1498                    ;* FUNCTION NAME: ESP8266SendCommand                                         *
    1499                    ;*                                                                           *
    1500                    ;*   Regs Modified     : A1,A2,A3,A4,V9,SP,LR,SR,D0,D0_hi,D1,D1_hi,D2,D2_hi, *
    1501                    ;*                           D3,D3_hi,D4,D4_hi,D5,D5_hi,D6,D6_hi,D7,D7_hi,   *
    1502                    ;*                           FPEXC,FPSCR                                     *
    1503                    ;*   Regs Used         : A1,A2,A3,A4,V9,SP,LR,SR,D0,D0_hi,D1,D1_hi,D2,D2_hi, *
    1504                    ;*                           D3,D3_hi,D4,D4_hi,D5,D5_hi,D6,D6_hi,D7,D7_hi,   *
    1505                    ;*                           FPEXC,FPSCR                                     *
    1506                    ;*   Local Frame Size  : 0 Args + 8 Auto + 4 Save = 12 byte                  *
    1507                    ;*****************************************************************************
    1508 0000022c           ESP8266SendCommand:
    1509                    ;* --------------------------------------------------------------------------*
    1510                            .dwcfi  cfa_offset, 0
    1511 0000022c B50E              PUSH      {A2, A3, A4, LR}      ; [DPU_3_PIPE]  ; [ORIG 16-BIT INS]
    1512                            .dwcfi  cfa_offset, 16
    1513                            .dwcfi  save_reg_to_mem, 14, -4
    1514                            .dwcfi  save_reg_to_mem, 3, -8
    1515                            .dwcfi  save_reg_to_mem, 2, -12
    1516                            .dwcfi  save_reg_to_mem, 1, -16
    1517                    $C$DW$73        .dwtag  DW_TAG_variable, DW_AT_name("inputString")
    1518                            .dwattr $C$DW$73, DW_AT_TI_symbol_name("inputString")
    1519                            .dwattr $C$DW$73, DW_AT_type(*$C$DW$T$36)
    1520                            .dwattr $C$DW$73, DW_AT_location[DW_OP_breg13 0]
    1521                    $C$DW$74        .dwtag  DW_TAG_variable, DW_AT_name("index")
    1522                            .dwattr $C$DW$74, DW_AT_TI_symbol_name("index")
    1523                            .dwattr $C$DW$74, DW_AT_type(*$C$DW$T$10)
    1524                            .dwattr $C$DW$74, DW_AT_location[DW_OP_breg13 4]
    1525                    ;----------------------------------------------------------------------
    1526                    ; 279 | void ESP8266SendCommand(const char* inputString){                      
    1527                    ;----------------------------------------------------------------------
    1528 0000022e 9000              STR       A1, [SP, #0]          ; [DPU_3_PIPE] |279|  ; [ORIG 16-BIT INS]
    1529                            .dwpsn  file "../esp8266.c",line 280,column 13,is_stmt,isa 1
    1530                    ;----------------------------------------------------------------------
    1531                    ; 280 | int index = 0;                                                         
    1532                    ;----------------------------------------------------------------------
    1533 00000230 2000              MOVS      A1, #0                ; [DPU_3_PIPE] |280|  ; [ORIG 16-BIT INS]
    1534 00000232 9001              STR       A1, [SP, #4]          ; [DPU_3_PIPE] |280|  ; [ORIG 16-BIT INS]
    1535                            .dwpsn  file "../esp8266.c",line 281,column 3,is_stmt,isa 1
    1536                    ;----------------------------------------------------------------------
    1537                    ; 281 | while (inputString[index] != 0){                                       
    1538                    ;----------------------------------------------------------------------
    1539 00000234 E006              B         ||$C$L23||            ; [DPU_3_PIPE] |281|  ; [ORIG 16-BIT INS]
    1540                            ; BRANCH OCCURS {||$C$L23||}     ; [] |281| 
TI ARM Assembler PC v5.2.4 Thu Sep 17 23:20:49 2015

Tools Copyright (c) 1996-2015 Texas Instruments Incorporated
esp8266.asm                                                          PAGE   29

    1541                    ;* --------------------------------------------------------------------------*
    1542 00000236           ||$C$L22||:    
    1543                            .dwpsn  file "../esp8266.c",line 282,column 5,is_stmt,isa 1
    1544                    ;----------------------------------------------------------------------
    1545                    ; 282 | ESP8266PrintChar(inputString[index++]);                                
    1546                    ;----------------------------------------------------------------------
    1547 00000236 9801              LDR       A1, [SP, #4]          ; [DPU_3_PIPE] |282|  ; [ORIG 16-BIT INS]
    1548 00000238 9900              LDR       A2, [SP, #0]          ; [DPU_3_PIPE] |282|  ; [ORIG 16-BIT INS]
    1549 0000023a 1C42              ADDS      A3, A1, #1            ; [DPU_3_PIPE] |282|  ; [ORIG 16-BIT INS]
    1550 0000023c 9201              STR       A3, [SP, #4]          ; [DPU_3_PIPE] |282|  ; [ORIG 16-BIT INS]
    1551 0000023e 5C40              LDRB      A1, [A1, +A2]         ; [DPU_3_PIPE] |282|  ; [ORIG 16-BIT INS]
    1552                    $C$DW$75        .dwtag  DW_TAG_TI_branch
    1553                            .dwattr $C$DW$75, DW_AT_low_pc(0x00)
    1554                            .dwattr $C$DW$75, DW_AT_name("ESP8266PrintChar")
    1555                            .dwattr $C$DW$75, DW_AT_TI_call
    1556 00000240 FB10F000          BL        ESP8266PrintChar      ; [DPU_3_PIPE] |282|  ; [KEEP 32-BIT INS]
    1557                            ; CALL OCCURS {ESP8266PrintChar }  ; [] |282| 
    1558                    ;* --------------------------------------------------------------------------*
    1559                    ;*   BEGIN LOOP ||$C$L23||
    1560                    ;* --------------------------------------------------------------------------*
    1561 00000244           ||$C$L23||:    
    1562                            .dwpsn  file "../esp8266.c",line 281,column 10,is_stmt,isa 1
    1563 00000244 9800              LDR       A1, [SP, #0]          ; [DPU_3_PIPE] |281|  ; [ORIG 16-BIT INS]
    1564 00000246 9901              LDR       A2, [SP, #4]          ; [DPU_3_PIPE] |281|  ; [ORIG 16-BIT INS]
    1565 00000248 5C08              LDRB      A1, [A2, +A1]         ; [DPU_3_PIPE] |281|  ; [ORIG 16-BIT INS]
    1566 0000024a 2800              CMP       A1, #0                ; [DPU_3_PIPE] |281|  ; [ORIG 16-BIT INS]
    1567 0000024c D1F3              BNE       ||$C$L22||            ; [DPU_3_PIPE] |281|  ; [ORIG 16-BIT INS]
    1568                            ; BRANCHCC OCCURS {||$C$L22||}   ; [] |281| 
    1569                    ;* --------------------------------------------------------------------------*
    1570                            .dwpsn  file "../esp8266.c",line 284,column 1,is_stmt,isa 1
    1571                    $C$DW$76        .dwtag  DW_TAG_TI_branch
    1572                            .dwattr $C$DW$76, DW_AT_low_pc(0x00)
    1573                            .dwattr $C$DW$76, DW_AT_TI_return
    1574 0000024e BD0E              POP       {A2, A3, A4, PC}      ; [DPU_3_PIPE]  ; [ORIG 16-BIT INS]
    1575                            .dwcfi  cfa_offset, 0
    1576                            ; BRANCH OCCURS                  ; [] 
    1577                            .dwattr $C$DW$71, DW_AT_TI_end_file("../esp8266.c")
    1578                            .dwattr $C$DW$71, DW_AT_TI_end_line(0x11c)
    1579                            .dwattr $C$DW$71, DW_AT_TI_end_column(0x01)
    1580                            .dwendentry
    1581                            .dwendtag $C$DW$71
    1582                    
    1583                    ;******************************************************************************
    1584                    ;* CONSTANT TABLE                                                             *
    1585                    ;******************************************************************************
    1586 00000250                   .sect   ".text"
    1587                            .align  4
    1588 00000250 00000000! ||$C$CON15||:   .bits   SearchLooking,32
    1589                            .align  4
    1590 00000254 00000000! ||$C$CON16||:   .bits   SearchFound,32
    1591                            .align  4
    1592 00000258 00000000! ||$C$CON17||:   .bits   ESP8266_EchoResponse,32
    1593 0000025c                   .sect   ".text"
    1594                            .clink
    1595                            .thumbfunc DelayMs
TI ARM Assembler PC v5.2.4 Thu Sep 17 23:20:49 2015

Tools Copyright (c) 1996-2015 Texas Instruments Incorporated
esp8266.asm                                                          PAGE   30

    1596 0000025c                   .thumb
    1597                            .global DelayMs
    1598                    
    1599                    $C$DW$77        .dwtag  DW_TAG_subprogram, DW_AT_name("DelayMs")
    1600                            .dwattr $C$DW$77, DW_AT_low_pc(DelayMs)
    1601                            .dwattr $C$DW$77, DW_AT_high_pc(0x00)
    1602                            .dwattr $C$DW$77, DW_AT_TI_symbol_name("DelayMs")
    1603                            .dwattr $C$DW$77, DW_AT_external
    1604                            .dwattr $C$DW$77, DW_AT_TI_begin_file("../esp8266.c")
    1605                            .dwattr $C$DW$77, DW_AT_TI_begin_line(0x125)
    1606                            .dwattr $C$DW$77, DW_AT_TI_begin_column(0x06)
    1607                            .dwattr $C$DW$77, DW_AT_decl_file("../esp8266.c")
    1608                            .dwattr $C$DW$77, DW_AT_decl_line(0x125)
    1609                            .dwattr $C$DW$77, DW_AT_decl_column(0x06)
    1610                            .dwattr $C$DW$77, DW_AT_TI_max_frame_size(0x08)
    1611                            .dwpsn  file "../esp8266.c",line 293,column 25,is_stmt,address DelayMs,isa 1
    1612                    
    1613                            .dwfde $C$DW$CIE, DelayMs
    1614                    $C$DW$78        .dwtag  DW_TAG_formal_parameter, DW_AT_name("n")
    1615                            .dwattr $C$DW$78, DW_AT_TI_symbol_name("n")
    1616                            .dwattr $C$DW$78, DW_AT_type(*$C$DW$T$39)
    1617                            .dwattr $C$DW$78, DW_AT_location[DW_OP_reg0]
    1618                    
    1619                    ;*****************************************************************************
    1620                    ;* FUNCTION NAME: DelayMs                                                    *
    1621                    ;*                                                                           *
    1622                    ;*   Regs Modified     : A1,SP,SR                                            *
    1623                    ;*   Regs Used         : A1,SP,LR,SR                                         *
    1624                    ;*   Local Frame Size  : 0 Args + 8 Auto + 0 Save = 8 byte                   *
    1625                    ;*****************************************************************************
    1626 0000025c           DelayMs:
    1627                    ;* --------------------------------------------------------------------------*
    1628                            .dwcfi  cfa_offset, 0
    1629 0000025c 0D08F1AD          SUB       SP, SP, #8            ; [DPU_3_PIPE]  ; [KEEP 32-BIT INS]
    1630                            .dwcfi  cfa_offset, 8
    1631                    $C$DW$79        .dwtag  DW_TAG_variable, DW_AT_name("n")
    1632                            .dwattr $C$DW$79, DW_AT_TI_symbol_name("n")
    1633                            .dwattr $C$DW$79, DW_AT_type(*$C$DW$T$39)
    1634                            .dwattr $C$DW$79, DW_AT_location[DW_OP_breg13 0]
    1635                    $C$DW$80        .dwtag  DW_TAG_variable, DW_AT_name("time")
    1636                            .dwattr $C$DW$80, DW_AT_TI_symbol_name("time")
    1637                            .dwattr $C$DW$80, DW_AT_type(*$C$DW$T$84)
    1638                            .dwattr $C$DW$80, DW_AT_location[DW_OP_breg13 4]
    1639                    ;----------------------------------------------------------------------
    1640                    ; 293 | void DelayMs(uint32_t n){                                              
    1641                    ; 294 | volatile uint32_t time;                                                
    1642                    ;----------------------------------------------------------------------
    1643 00000260 9000              STR       A1, [SP, #0]          ; [DPU_3_PIPE] |293|  ; [ORIG 16-BIT INS]
    1644                            .dwpsn  file "../esp8266.c",line 295,column 3,is_stmt,isa 1
    1645                    ;----------------------------------------------------------------------
    1646                    ; 295 | while(n){                                                              
    1647                    ;----------------------------------------------------------------------
    1648 00000262 9800              LDR       A1, [SP, #0]          ; [DPU_3_PIPE] |295|  ; [ORIG 16-BIT INS]
    1649 00000264 B180              CBZ       A1, ||$C$L27||        ; []  ; [ORIG 16-BIT INS]
    1650                            ; BRANCHCC OCCURS {||$C$L27||}   ; [] |295| 
TI ARM Assembler PC v5.2.4 Thu Sep 17 23:20:49 2015

Tools Copyright (c) 1996-2015 Texas Instruments Incorporated
esp8266.asm                                                          PAGE   31

    1651                    ;* --------------------------------------------------------------------------*
    1652                    ;*   BEGIN LOOP ||$C$L24||
    1653                    ;*
    1654                    ;*   Loop source line                : 295
    1655                    ;*   Loop closing brace source line  : 301
    1656                    ;*   Known Minimum Trip Count        : 1
    1657                    ;*   Known Maximum Trip Count        : 4294967295
    1658                    ;*   Known Max Trip Count Factor     : 1
    1659                    ;* --------------------------------------------------------------------------*
    1660 00000266           ||$C$L24||:    
    1661                            .dwpsn  file "../esp8266.c",line 296,column 5,is_stmt,isa 1
    1662                    ;----------------------------------------------------------------------
    1663                    ; 296 | time = 75825*8/91;  // 1msec, tuned at 80 MHz                          
    1664                    ;----------------------------------------------------------------------
    1665 00000266 2009F641          MOV       A1, #6665             ; [DPU_3_PIPE] |296|  ; [KEEP 32-BIT INS]
    1666 0000026a 9001              STR       A1, [SP, #4]          ; [DPU_3_PIPE] |296|  ; [ORIG 16-BIT INS]
    1667                            .dwpsn  file "../esp8266.c",line 297,column 5,is_stmt,isa 1
    1668                    ;----------------------------------------------------------------------
    1669                    ; 297 | while(time){                                                           
    1670                    ;----------------------------------------------------------------------
    1671 0000026c 9801              LDR       A1, [SP, #4]          ; [DPU_3_PIPE] |297|  ; [ORIG 16-BIT INS]
    1672 0000026e B128              CBZ       A1, ||$C$L26||        ; []  ; [ORIG 16-BIT INS]
    1673                            ; BRANCHCC OCCURS {||$C$L26||}   ; [] |297| 
    1674                    ;* --------------------------------------------------------------------------*
    1675                    ;*   BEGIN LOOP ||$C$L25||
    1676                    ;*
    1677                    ;*   Loop source line                : 297
    1678                    ;*   Loop closing brace source line  : 299
    1679                    ;*   Known Minimum Trip Count        : 1
    1680                    ;*   Known Maximum Trip Count        : 4294967295
    1681                    ;*   Known Max Trip Count Factor     : 1
    1682                    ;* --------------------------------------------------------------------------*
    1683 00000270           ||$C$L25||:    
    1684                            .dwpsn  file "../esp8266.c",line 298,column 7,is_stmt,isa 1
    1685                    ;----------------------------------------------------------------------
    1686                    ; 298 | time--;                                                                
    1687                    ;----------------------------------------------------------------------
    1688 00000270 9801              LDR       A1, [SP, #4]          ; [DPU_3_PIPE] |298|  ; [ORIG 16-BIT INS]
    1689 00000272 1E40              SUBS      A1, A1, #1            ; [DPU_3_PIPE] |298|  ; [ORIG 16-BIT INS]
    1690 00000274 9001              STR       A1, [SP, #4]          ; [DPU_3_PIPE] |298|  ; [ORIG 16-BIT INS]
    1691                            .dwpsn  file "../esp8266.c",line 297,column 5,is_stmt,isa 1
    1692 00000276 9801              LDR       A1, [SP, #4]          ; [DPU_3_PIPE] |297|  ; [ORIG 16-BIT INS]
    1693 00000278 2800              CMP       A1, #0                ; [DPU_3_PIPE] |297|  ; [ORIG 16-BIT INS]
    1694 0000027a D1F9              BNE       ||$C$L25||            ; [DPU_3_PIPE] |297|  ; [ORIG 16-BIT INS]
    1695                            ; BRANCHCC OCCURS {||$C$L25||}   ; [] |297| 
    1696                    ;* --------------------------------------------------------------------------*
    1697 0000027c           ||$C$L26||:    
    1698                            .dwpsn  file "../esp8266.c",line 300,column 5,is_stmt,isa 1
    1699                    ;----------------------------------------------------------------------
    1700                    ; 300 | n--;                                                                   
    1701                    ;----------------------------------------------------------------------
    1702 0000027c 9800              LDR       A1, [SP, #0]          ; [DPU_3_PIPE] |300|  ; [ORIG 16-BIT INS]
    1703 0000027e 1E40              SUBS      A1, A1, #1            ; [DPU_3_PIPE] |300|  ; [ORIG 16-BIT INS]
    1704 00000280 9000              STR       A1, [SP, #0]          ; [DPU_3_PIPE] |300|  ; [ORIG 16-BIT INS]
    1705                            .dwpsn  file "../esp8266.c",line 295,column 3,is_stmt,isa 1
TI ARM Assembler PC v5.2.4 Thu Sep 17 23:20:49 2015

Tools Copyright (c) 1996-2015 Texas Instruments Incorporated
esp8266.asm                                                          PAGE   32

    1706 00000282 9800              LDR       A1, [SP, #0]          ; [DPU_3_PIPE] |295|  ; [ORIG 16-BIT INS]
    1707 00000284 2800              CMP       A1, #0                ; [DPU_3_PIPE] |295|  ; [ORIG 16-BIT INS]
    1708 00000286 D1EE              BNE       ||$C$L24||            ; [DPU_3_PIPE] |295|  ; [ORIG 16-BIT INS]
    1709                            ; BRANCHCC OCCURS {||$C$L24||}   ; [] |295| 
    1710                    ;* --------------------------------------------------------------------------*
    1711                            .dwpsn  file "../esp8266.c",line 302,column 1,is_stmt,isa 1
    1712                    ;* --------------------------------------------------------------------------*
    1713 00000288           ||$C$L27||:    
    1714 00000288 B002              ADD       SP, SP, #8            ; [DPU_3_PIPE]  ; [ORIG 16-BIT INS]
    1715                            .dwcfi  cfa_offset, 0
    1716                    $C$DW$81        .dwtag  DW_TAG_TI_branch
    1717                            .dwattr $C$DW$81, DW_AT_low_pc(0x00)
    1718                            .dwattr $C$DW$81, DW_AT_TI_return
    1719 0000028a 4770              BX        LR                    ; [DPU_3_PIPE]  ; [ORIG 16-BIT INS]
    1720                            ; BRANCH OCCURS                  ; [] 
    1721                            .dwattr $C$DW$77, DW_AT_TI_end_file("../esp8266.c")
    1722                            .dwattr $C$DW$77, DW_AT_TI_end_line(0x12e)
    1723                            .dwattr $C$DW$77, DW_AT_TI_end_column(0x01)
    1724                            .dwendentry
    1725                            .dwendtag $C$DW$77
    1726                    
    1727 0000028c                   .sect   ".text"
    1728                            .clink
    1729                            .thumbfunc DelayMsSearching
    1730 0000028c                   .thumb
    1731                            .global DelayMsSearching
    1732                    
    1733                    $C$DW$82        .dwtag  DW_TAG_subprogram, DW_AT_name("DelayMsSearching")
    1734                            .dwattr $C$DW$82, DW_AT_low_pc(DelayMsSearching)
    1735                            .dwattr $C$DW$82, DW_AT_high_pc(0x00)
    1736                            .dwattr $C$DW$82, DW_AT_TI_symbol_name("DelayMsSearching")
    1737                            .dwattr $C$DW$82, DW_AT_external
    1738                            .dwattr $C$DW$82, DW_AT_TI_begin_file("../esp8266.c")
    1739                            .dwattr $C$DW$82, DW_AT_TI_begin_line(0x12f)
    1740                            .dwattr $C$DW$82, DW_AT_TI_begin_column(0x06)
    1741                            .dwattr $C$DW$82, DW_AT_decl_file("../esp8266.c")
    1742                            .dwattr $C$DW$82, DW_AT_decl_line(0x12f)
    1743                            .dwattr $C$DW$82, DW_AT_decl_column(0x06)
    1744                            .dwattr $C$DW$82, DW_AT_TI_max_frame_size(0x08)
    1745                            .dwpsn  file "../esp8266.c",line 303,column 34,is_stmt,address DelayMsSearching,isa 1
    1746                    
    1747                            .dwfde $C$DW$CIE, DelayMsSearching
    1748                    $C$DW$83        .dwtag  DW_TAG_formal_parameter, DW_AT_name("n")
    1749                            .dwattr $C$DW$83, DW_AT_TI_symbol_name("n")
    1750                            .dwattr $C$DW$83, DW_AT_type(*$C$DW$T$39)
    1751                            .dwattr $C$DW$83, DW_AT_location[DW_OP_reg0]
    1752                    
    1753                    ;*****************************************************************************
    1754                    ;* FUNCTION NAME: DelayMsSearching                                           *
    1755                    ;*                                                                           *
    1756                    ;*   Regs Modified     : A1,SP,SR                                            *
    1757                    ;*   Regs Used         : A1,SP,LR,SR                                         *
    1758                    ;*   Local Frame Size  : 0 Args + 8 Auto + 0 Save = 8 byte                   *
    1759                    ;*****************************************************************************
    1760 0000028c           DelayMsSearching:
TI ARM Assembler PC v5.2.4 Thu Sep 17 23:20:49 2015

Tools Copyright (c) 1996-2015 Texas Instruments Incorporated
esp8266.asm                                                          PAGE   33

    1761                    ;* --------------------------------------------------------------------------*
    1762                            .dwcfi  cfa_offset, 0
    1763 0000028c 0D08F1AD          SUB       SP, SP, #8            ; [DPU_3_PIPE]  ; [KEEP 32-BIT INS]
    1764                            .dwcfi  cfa_offset, 8
    1765                    $C$DW$84        .dwtag  DW_TAG_variable, DW_AT_name("n")
    1766                            .dwattr $C$DW$84, DW_AT_TI_symbol_name("n")
    1767                            .dwattr $C$DW$84, DW_AT_type(*$C$DW$T$39)
    1768                            .dwattr $C$DW$84, DW_AT_location[DW_OP_breg13 0]
    1769                    $C$DW$85        .dwtag  DW_TAG_variable, DW_AT_name("time")
    1770                            .dwattr $C$DW$85, DW_AT_TI_symbol_name("time")
    1771                            .dwattr $C$DW$85, DW_AT_type(*$C$DW$T$84)
    1772                            .dwattr $C$DW$85, DW_AT_location[DW_OP_breg13 4]
    1773                    ;----------------------------------------------------------------------
    1774                    ; 303 | void DelayMsSearching(uint32_t n){                                     
    1775                    ; 304 | volatile uint32_t time;                                                
    1776                    ;----------------------------------------------------------------------
    1777 00000290 9000              STR       A1, [SP, #0]          ; [DPU_3_PIPE] |303|  ; [ORIG 16-BIT INS]
    1778                            .dwpsn  file "../esp8266.c",line 305,column 3,is_stmt,isa 1
    1779                    ;----------------------------------------------------------------------
    1780                    ; 305 | while(n){                                                              
    1781                    ;----------------------------------------------------------------------
    1782 00000292 9800              LDR       A1, [SP, #0]          ; [DPU_3_PIPE] |305|  ; [ORIG 16-BIT INS]
    1783 00000294 B198              CBZ       A1, ||$C$L31||        ; []  ; [ORIG 16-BIT INS]
    1784                            ; BRANCHCC OCCURS {||$C$L31||}   ; [] |305| 
    1785                    ;* --------------------------------------------------------------------------*
    1786                    ;*   BEGIN LOOP ||$C$L28||
    1787                    ;*
    1788                    ;*   Loop source line                : 305
    1789                    ;*   Loop closing brace source line  : 312
    1790                    ;*   Known Minimum Trip Count        : 1
    1791                    ;*   Known Maximum Trip Count        : 4294967295
    1792                    ;*   Known Max Trip Count Factor     : 1
    1793                    ;* --------------------------------------------------------------------------*
    1794 00000296           ||$C$L28||:    
    1795                            .dwpsn  file "../esp8266.c",line 306,column 5,is_stmt,isa 1
    1796                    ;----------------------------------------------------------------------
    1797                    ; 306 | time = 75825*8/91;  // 1msec, tuned at 80 MHz                          
    1798                    ;----------------------------------------------------------------------
    1799 00000296 2009F641          MOV       A1, #6665             ; [DPU_3_PIPE] |306|  ; [KEEP 32-BIT INS]
    1800 0000029a 9001              STR       A1, [SP, #4]          ; [DPU_3_PIPE] |306|  ; [ORIG 16-BIT INS]
    1801                            .dwpsn  file "../esp8266.c",line 307,column 5,is_stmt,isa 1
    1802                    ;----------------------------------------------------------------------
    1803                    ; 307 | while(time){                                                           
    1804                    ;----------------------------------------------------------------------
    1805 0000029c 9801              LDR       A1, [SP, #4]          ; [DPU_3_PIPE] |307|  ; [ORIG 16-BIT INS]
    1806 0000029e B140              CBZ       A1, ||$C$L30||        ; []  ; [ORIG 16-BIT INS]
    1807                            ; BRANCHCC OCCURS {||$C$L30||}   ; [] |307| 
    1808                    ;* --------------------------------------------------------------------------*
    1809                    ;*   BEGIN LOOP ||$C$L29||
    1810                    ;*
    1811                    ;*   Loop source line                : 307
    1812                    ;*   Loop closing brace source line  : 310
    1813                    ;*   Known Minimum Trip Count        : 1
    1814                    ;*   Known Maximum Trip Count        : 4294967295
    1815                    ;*   Known Max Trip Count Factor     : 1
TI ARM Assembler PC v5.2.4 Thu Sep 17 23:20:49 2015

Tools Copyright (c) 1996-2015 Texas Instruments Incorporated
esp8266.asm                                                          PAGE   34

    1816                    ;* --------------------------------------------------------------------------*
    1817 000002a0           ||$C$L29||:    
    1818                            .dwpsn  file "../esp8266.c",line 308,column 7,is_stmt,isa 1
    1819                    ;----------------------------------------------------------------------
    1820                    ; 308 | time--;                                                                
    1821                    ;----------------------------------------------------------------------
    1822 000002a0 9801              LDR       A1, [SP, #4]          ; [DPU_3_PIPE] |308|  ; [ORIG 16-BIT INS]
    1823 000002a2 1E40              SUBS      A1, A1, #1            ; [DPU_3_PIPE] |308|  ; [ORIG 16-BIT INS]
    1824 000002a4 9001              STR       A1, [SP, #4]          ; [DPU_3_PIPE] |308|  ; [ORIG 16-BIT INS]
    1825                            .dwpsn  file "../esp8266.c",line 309,column 7,is_stmt,isa 1
    1826                    ;----------------------------------------------------------------------
    1827                    ; 309 | if(SearchFound) return;                                                
    1828                    ;----------------------------------------------------------------------
    1829 000002a6 48BE              LDR       A1, $C$CON26          ; [DPU_3_PIPE] |309|  ; [ORIG 16-BIT INS]
    1830 000002a8 7800              LDRB      A1, [A1, #0]          ; [DPU_3_PIPE] |309|  ; [ORIG 16-BIT INS]
    1831 000002aa B940              CBNZ      A1, ||$C$L31||        ; []  ; [ORIG 16-BIT INS]
    1832                            ; BRANCHCC OCCURS {||$C$L31||}   ; [] |309| 
    1833                    ;* --------------------------------------------------------------------------*
    1834                            .dwpsn  file "../esp8266.c",line 309,column 23,is_stmt,isa 1
    1835                            .dwpsn  file "../esp8266.c",line 307,column 5,is_stmt,isa 1
    1836 000002ac 9801              LDR       A1, [SP, #4]          ; [DPU_3_PIPE] |307|  ; [ORIG 16-BIT INS]
    1837 000002ae 2800              CMP       A1, #0                ; [DPU_3_PIPE] |307|  ; [ORIG 16-BIT INS]
    1838 000002b0 D1F6              BNE       ||$C$L29||            ; [DPU_3_PIPE] |307|  ; [ORIG 16-BIT INS]
    1839                            ; BRANCHCC OCCURS {||$C$L29||}   ; [] |307| 
    1840                    ;* --------------------------------------------------------------------------*
    1841 000002b2           ||$C$L30||:    
    1842                            .dwpsn  file "../esp8266.c",line 311,column 5,is_stmt,isa 1
    1843                    ;----------------------------------------------------------------------
    1844                    ; 311 | n--;                                                                   
    1845                    ;----------------------------------------------------------------------
    1846 000002b2 9800              LDR       A1, [SP, #0]          ; [DPU_3_PIPE] |311|  ; [ORIG 16-BIT INS]
    1847 000002b4 1E40              SUBS      A1, A1, #1            ; [DPU_3_PIPE] |311|  ; [ORIG 16-BIT INS]
    1848 000002b6 9000              STR       A1, [SP, #0]          ; [DPU_3_PIPE] |311|  ; [ORIG 16-BIT INS]
    1849                            .dwpsn  file "../esp8266.c",line 305,column 3,is_stmt,isa 1
    1850 000002b8 9800              LDR       A1, [SP, #0]          ; [DPU_3_PIPE] |305|  ; [ORIG 16-BIT INS]
    1851 000002ba 2800              CMP       A1, #0                ; [DPU_3_PIPE] |305|  ; [ORIG 16-BIT INS]
    1852 000002bc D1EB              BNE       ||$C$L28||            ; [DPU_3_PIPE] |305|  ; [ORIG 16-BIT INS]
    1853                            ; BRANCHCC OCCURS {||$C$L28||}   ; [] |305| 
    1854                    ;* --------------------------------------------------------------------------*
    1855                            .dwpsn  file "../esp8266.c",line 313,column 1,is_stmt,isa 1
    1856                    ;* --------------------------------------------------------------------------*
    1857 000002be           ||$C$L31||:    
    1858 000002be B002              ADD       SP, SP, #8            ; [DPU_3_PIPE]  ; [ORIG 16-BIT INS]
    1859                            .dwcfi  cfa_offset, 0
    1860                    $C$DW$86        .dwtag  DW_TAG_TI_branch
    1861                            .dwattr $C$DW$86, DW_AT_low_pc(0x00)
    1862                            .dwattr $C$DW$86, DW_AT_TI_return
    1863 000002c0 4770              BX        LR                    ; [DPU_3_PIPE]  ; [ORIG 16-BIT INS]
    1864                            ; BRANCH OCCURS                  ; [] 
    1865                            .dwattr $C$DW$82, DW_AT_TI_end_file("../esp8266.c")
    1866                            .dwattr $C$DW$82, DW_AT_TI_end_line(0x139)
    1867                            .dwattr $C$DW$82, DW_AT_TI_end_column(0x01)
    1868                            .dwendentry
    1869                            .dwendtag $C$DW$82
    1870                    
TI ARM Assembler PC v5.2.4 Thu Sep 17 23:20:49 2015

Tools Copyright (c) 1996-2015 Texas Instruments Incorporated
esp8266.asm                                                          PAGE   35

    1871                    ;******************************************************************************
    1872                    ;* STRINGS                                                                    *
    1873                    ;******************************************************************************
    1874 000002c2                   .sect   ".text"
    1875                            .align  4
    1876 000002c4 45        ||$C$SL1||:     .string "ESP8266 Initialization:",10,13,0
         000002c5 53       
         000002c6 50       
         000002c7 38       
         000002c8 32       
         000002c9 36       
         000002ca 36       
         000002cb 20       
         000002cc 49       
         000002cd 6E       
         000002ce 69       
         000002cf 74       
         000002d0 69       
         000002d1 61       
         000002d2 6C       
         000002d3 69       
         000002d4 7A       
         000002d5 61       
         000002d6 74       
         000002d7 69       
         000002d8 6F       
         000002d9 6E       
         000002da 3A       
         000002db 0A       
         000002dc 0D       
         000002dd 00       
    1877                            .align  4
    1878 000002e0 52        ||$C$SL2||:     .string "Reset module... ",0
         000002e1 65       
         000002e2 73       
         000002e3 65       
         000002e4 74       
         000002e5 20       
         000002e6 6D       
         000002e7 6F       
         000002e8 64       
         000002e9 75       
         000002ea 6C       
         000002eb 65       
         000002ec 2E       
         000002ed 2E       
         000002ee 2E       
         000002ef 20       
         000002f0 00       
    1879                            .align  4
    1880 000002f4 52        ||$C$SL3||:     .string "Reset failure, could not reset",10,13,0
         000002f5 65       
         000002f6 73       
         000002f7 65       
         000002f8 74       
TI ARM Assembler PC v5.2.4 Thu Sep 17 23:20:49 2015

Tools Copyright (c) 1996-2015 Texas Instruments Incorporated
esp8266.asm                                                          PAGE   36

         000002f9 20       
         000002fa 66       
         000002fb 61       
         000002fc 69       
         000002fd 6C       
         000002fe 75       
         000002ff 72       
         00000300 65       
         00000301 2C       
         00000302 20       
         00000303 63       
         00000304 6F       
         00000305 75       
         00000306 6C       
         00000307 64       
         00000308 20       
         00000309 6E       
         0000030a 6F       
         0000030b 74       
         0000030c 20       
         0000030d 72       
         0000030e 65       
         0000030f 73       
         00000310 65       
         00000311 74       
         00000312 0A       
         00000313 0D       
         00000314 00       
    1881                            .align  4
    1882 00000318 53        ||$C$SL4||:     .string "SetWifiMode, could not set mode",10,13,0
         00000319 65       
         0000031a 74       
         0000031b 57       
         0000031c 69       
         0000031d 66       
         0000031e 69       
         0000031f 4D       
         00000320 6F       
         00000321 64       
         00000322 65       
         00000323 2C       
         00000324 20       
         00000325 63       
         00000326 6F       
         00000327 75       
         00000328 6C       
         00000329 64       
         0000032a 20       
         0000032b 6E       
         0000032c 6F       
         0000032d 74       
         0000032e 20       
         0000032f 73       
         00000330 65       
         00000331 74       
TI ARM Assembler PC v5.2.4 Thu Sep 17 23:20:49 2015

Tools Copyright (c) 1996-2015 Texas Instruments Incorporated
esp8266.asm                                                          PAGE   37

         00000332 20       
         00000333 6D       
         00000334 6F       
         00000335 64       
         00000336 65       
         00000337 0A       
         00000338 0D       
         00000339 00       
    1883                            .align  4
    1884 0000033c 56        ||$C$SL5||:     .string "ValvanoJonathaniPhone",0
         0000033d 61       
         0000033e 6C       
         0000033f 76       
         00000340 61       
         00000341 6E       
         00000342 6F       
         00000343 4A       
         00000344 6F       
         00000345 6E       
         00000346 61       
         00000347 74       
         00000348 68       
         00000349 61       
         0000034a 6E       
         0000034b 69       
         0000034c 50       
         0000034d 68       
         0000034e 6F       
         0000034f 6E       
         00000350 65       
         00000351 00       
    1885                            .align  4
    1886 00000354 79        ||$C$SL6||:     .string "y2uvdjfi5puyd",0
         00000355 32       
         00000356 75       
         00000357 76       
         00000358 64       
         00000359 6A       
         0000035a 66       
         0000035b 69       
         0000035c 35       
         0000035d 70       
         0000035e 75       
         0000035f 79       
         00000360 64       
         00000361 00       
    1887                            .align  4
    1888 00000364 4A        ||$C$SL7||:     .string "JoinAccessPoint error, could not join AP",10,13,0
         00000365 6F       
         00000366 69       
         00000367 6E       
         00000368 41       
         00000369 63       
         0000036a 63       
         0000036b 65       
TI ARM Assembler PC v5.2.4 Thu Sep 17 23:20:49 2015

Tools Copyright (c) 1996-2015 Texas Instruments Incorporated
esp8266.asm                                                          PAGE   38

         0000036c 73       
         0000036d 73       
         0000036e 50       
         0000036f 6F       
         00000370 69       
         00000371 6E       
         00000372 74       
         00000373 20       
         00000374 65       
         00000375 72       
         00000376 72       
         00000377 6F       
         00000378 72       
         00000379 2C       
         0000037a 20       
         0000037b 63       
         0000037c 6F       
         0000037d 75       
         0000037e 6C       
         0000037f 64       
         00000380 20       
         00000381 6E       
         00000382 6F       
         00000383 74       
         00000384 20       
         00000385 6A       
         00000386 6F       
         00000387 69       
         00000388 6E       
         00000389 20       
         0000038a 41       
         0000038b 50       
         0000038c 0A       
         0000038d 0D       
         0000038e 00       
    1889                            .align  4
    1890 00000390 47        ||$C$SL8||:     .string "GetIPAddress error, could not get IP address",10,13,0
         00000391 65       
         00000392 74       
         00000393 49       
         00000394 50       
         00000395 41       
         00000396 64       
         00000397 64       
         00000398 72       
         00000399 65       
         0000039a 73       
         0000039b 73       
         0000039c 20       
         0000039d 65       
         0000039e 72       
         0000039f 72       
         000003a0 6F       
         000003a1 72       
         000003a2 2C       
TI ARM Assembler PC v5.2.4 Thu Sep 17 23:20:49 2015

Tools Copyright (c) 1996-2015 Texas Instruments Incorporated
esp8266.asm                                                          PAGE   39

         000003a3 20       
         000003a4 63       
         000003a5 6F       
         000003a6 75       
         000003a7 6C       
         000003a8 64       
         000003a9 20       
         000003aa 6E       
         000003ab 6F       
         000003ac 74       
         000003ad 20       
         000003ae 67       
         000003af 65       
         000003b0 74       
         000003b1 20       
         000003b2 49       
         000003b3 50       
         000003b4 20       
         000003b5 61       
         000003b6 64       
         000003b7 64       
         000003b8 72       
         000003b9 65       
         000003ba 73       
         000003bb 73       
         000003bc 0A       
         000003bd 0D       
         000003be 00       
    1891                            .align  4
    1892 000003c0 53        ||$C$SL9||:     .string "SetConnectionMux error, could not set connection mux",10,13
         000003c1 65       
         000003c2 74       
         000003c3 43       
         000003c4 6F       
         000003c5 6E       
         000003c6 6E       
         000003c7 65       
         000003c8 63       
         000003c9 74       
         000003ca 69       
         000003cb 6F       
         000003cc 6E       
         000003cd 4D       
         000003ce 75       
         000003cf 78       
         000003d0 20       
         000003d1 65       
         000003d2 72       
         000003d3 72       
         000003d4 6F       
         000003d5 72       
         000003d6 2C       
         000003d7 20       
         000003d8 63       
         000003d9 6F       
TI ARM Assembler PC v5.2.4 Thu Sep 17 23:20:49 2015

Tools Copyright (c) 1996-2015 Texas Instruments Incorporated
esp8266.asm                                                          PAGE   40

         000003da 75       
         000003db 6C       
         000003dc 64       
         000003dd 20       
         000003de 6E       
         000003df 6F       
         000003e0 74       
         000003e1 20       
         000003e2 73       
         000003e3 65       
         000003e4 74       
         000003e5 20       
         000003e6 63       
         000003e7 6F       
         000003e8 6E       
         000003e9 6E       
         000003ea 65       
         000003eb 63       
         000003ec 74       
         000003ed 69       
         000003ee 6F       
         000003ef 6E       
         000003f0 20       
         000003f1 6D       
         000003f2 75       
         000003f3 78       
         000003f4 0A       
         000003f5 0D       
    1893 000003f6 00                .string 0
    1894                            .align  4
    1895 000003f8 4C        ||$C$SL10||:    .string "ListAccessPoints, could not list access points",10,13,0
         000003f9 69       
         000003fa 73       
         000003fb 74       
         000003fc 41       
         000003fd 63       
         000003fe 63       
         000003ff 65       
         00000400 73       
         00000401 73       
         00000402 50       
         00000403 6F       
         00000404 69       
         00000405 6E       
         00000406 74       
         00000407 73       
         00000408 2C       
         00000409 20       
         0000040a 63       
         0000040b 6F       
         0000040c 75       
         0000040d 6C       
         0000040e 64       
         0000040f 20       
         00000410 6E       
TI ARM Assembler PC v5.2.4 Thu Sep 17 23:20:49 2015

Tools Copyright (c) 1996-2015 Texas Instruments Incorporated
esp8266.asm                                                          PAGE   41

         00000411 6F       
         00000412 74       
         00000413 20       
         00000414 6C       
         00000415 69       
         00000416 73       
         00000417 74       
         00000418 20       
         00000419 61       
         0000041a 63       
         0000041b 63       
         0000041c 65       
         0000041d 73       
         0000041e 73       
         0000041f 20       
         00000420 70       
         00000421 6F       
         00000422 69       
         00000423 6E       
         00000424 74       
         00000425 73       
         00000426 0A       
         00000427 0D       
         00000428 00       
    1896                            .align  4
    1897 0000042c 53        ||$C$SL11||:    .string "SetDataTransmissionMode, could not make connection",10,13,0
         0000042d 65       
         0000042e 74       
         0000042f 44       
         00000430 61       
         00000431 74       
         00000432 61       
         00000433 54       
         00000434 72       
         00000435 61       
         00000436 6E       
         00000437 73       
         00000438 6D       
         00000439 69       
         0000043a 73       
         0000043b 73       
         0000043c 69       
         0000043d 6F       
         0000043e 6E       
         0000043f 4D       
         00000440 6F       
         00000441 64       
         00000442 65       
         00000443 2C       
         00000444 20       
         00000445 63       
         00000446 6F       
         00000447 75       
         00000448 6C       
         00000449 64       
TI ARM Assembler PC v5.2.4 Thu Sep 17 23:20:49 2015

Tools Copyright (c) 1996-2015 Texas Instruments Incorporated
esp8266.asm                                                          PAGE   42

         0000044a 20       
         0000044b 6E       
         0000044c 6F       
         0000044d 74       
         0000044e 20       
         0000044f 6D       
         00000450 61       
         00000451 6B       
         00000452 65       
         00000453 20       
         00000454 63       
         00000455 6F       
         00000456 6E       
         00000457 6E       
         00000458 65       
         00000459 63       
         0000045a 74       
         0000045b 69       
         0000045c 6F       
         0000045d 6E       
         0000045e 0A       
         0000045f 0D       
         00000460 00       
    1898                    ;******************************************************************************
    1899                    ;* CONSTANT TABLE                                                             *
    1900                    ;******************************************************************************
    1901 00000461                   .sect   ".text"
    1902                            .align  4
    1903 00000462 0000C046! ||$C$CON18||:   .bits   ESP8266_InputProcessingEnabled,32
         00000466 00000000 
    1904                            .align  4
    1905 00000466 D03C0000  ||$C$CON19||:   .bits   1073795132,32
         0000046a 00004000 
    1906                            .align  4
    1907 0000046a D0444000  ||$C$CON20||:   .bits   1073795140,32
         0000046e 00004000 
    1908                            .align  4
    1909 0000046e D0004000  ||$C$CON21||:   .bits   1073795072,32
         00000472 00004000 
    1910                            .align  4
    1911 00000472 00004000! ||$C$CON22||:   .bits   ESP8266_RXBufferIndex,32
         00000476 00000000 
    1912                            .align  4
    1913 00000476 00000000! ||$C$CON23||:   .bits   ESP8266_RXBuffer,32
         0000047a 00000000 
    1914 0000047c                   .sect   ".text"
    1915                            .clink
    1916                            .thumbfunc ESP8266_Reset
    1917 0000047c                   .thumb
    1918                            .global ESP8266_Reset
    1919                    
    1920                    $C$DW$87        .dwtag  DW_TAG_subprogram, DW_AT_name("ESP8266_Reset")
    1921                            .dwattr $C$DW$87, DW_AT_low_pc(ESP8266_Reset)
    1922                            .dwattr $C$DW$87, DW_AT_high_pc(0x00)
    1923                            .dwattr $C$DW$87, DW_AT_TI_symbol_name("ESP8266_Reset")
TI ARM Assembler PC v5.2.4 Thu Sep 17 23:20:49 2015

Tools Copyright (c) 1996-2015 Texas Instruments Incorporated
esp8266.asm                                                          PAGE   43

    1924                            .dwattr $C$DW$87, DW_AT_external
    1925                            .dwattr $C$DW$87, DW_AT_type(*$C$DW$T$10)
    1926                            .dwattr $C$DW$87, DW_AT_TI_begin_file("../esp8266.c")
    1927                            .dwattr $C$DW$87, DW_AT_TI_begin_line(0x13f)
    1928                            .dwattr $C$DW$87, DW_AT_TI_begin_column(0x05)
    1929                            .dwattr $C$DW$87, DW_AT_decl_file("../esp8266.c")
    1930                            .dwattr $C$DW$87, DW_AT_decl_line(0x13f)
    1931                            .dwattr $C$DW$87, DW_AT_decl_column(0x05)
    1932                            .dwattr $C$DW$87, DW_AT_TI_max_frame_size(0x08)
    1933                            .dwpsn  file "../esp8266.c",line 319,column 20,is_stmt,address ESP8266_Reset,isa 1
    1934                    
    1935                            .dwfde $C$DW$CIE, ESP8266_Reset
    1936                    
    1937                    ;*****************************************************************************
    1938                    ;* FUNCTION NAME: ESP8266_Reset                                              *
    1939                    ;*                                                                           *
    1940                    ;*   Regs Modified     : A1,A2,A3,A4,V9,SP,LR,SR,D0,D0_hi,D1,D1_hi,D2,D2_hi, *
    1941                    ;*                           D3,D3_hi,D4,D4_hi,D5,D5_hi,D6,D6_hi,D7,D7_hi,   *
    1942                    ;*                           FPEXC,FPSCR                                     *
    1943                    ;*   Regs Used         : A1,A2,A3,A4,V9,SP,LR,SR,D0,D0_hi,D1,D1_hi,D2,D2_hi, *
    1944                    ;*                           D3,D3_hi,D4,D4_hi,D5,D5_hi,D6,D6_hi,D7,D7_hi,   *
    1945                    ;*                           FPEXC,FPSCR                                     *
    1946                    ;*   Local Frame Size  : 0 Args + 4 Auto + 4 Save = 8 byte                   *
    1947                    ;*****************************************************************************
    1948 0000047c           ESP8266_Reset:
    1949                    ;* --------------------------------------------------------------------------*
    1950                            .dwcfi  cfa_offset, 0
    1951 0000047c B508              PUSH      {A4, LR}              ; [DPU_3_PIPE]  ; [ORIG 16-BIT INS]
    1952                            .dwcfi  cfa_offset, 8
    1953                            .dwcfi  save_reg_to_mem, 14, -4
    1954                            .dwcfi  save_reg_to_mem, 3, -8
    1955                    $C$DW$88        .dwtag  DW_TAG_variable, DW_AT_name("try")
    1956                            .dwattr $C$DW$88, DW_AT_TI_symbol_name("try")
    1957                            .dwattr $C$DW$88, DW_AT_type(*$C$DW$T$10)
    1958                            .dwattr $C$DW$88, DW_AT_location[DW_OP_breg13 0]
    1959                            .dwpsn  file "../esp8266.c",line 319,column 28,is_stmt,isa 1
    1960                    ;----------------------------------------------------------------------
    1961                    ; 319 | int ESP8266_Reset(){int try=MAXTRY;                                    
    1962                    ;----------------------------------------------------------------------
    1963 0000047e 200A              MOVS      A1, #10               ; [DPU_3_PIPE] |319|  ; [ORIG 16-BIT INS]
    1964 00000480 9000              STR       A1, [SP, #0]          ; [DPU_3_PIPE] |319|  ; [ORIG 16-BIT INS]
    1965                            .dwpsn  file "../esp8266.c",line 320,column 3,is_stmt,isa 1
    1966                    ;----------------------------------------------------------------------
    1967                    ; 320 | strcpy(SearchString, "System Ready");                                  
    1968                    ;----------------------------------------------------------------------
    1969 00000482 4823              LDR       A1, $C$CON24          ; [DPU_3_PIPE] |320|  ; [ORIG 16-BIT INS]
    1970 00000484 A199              ADR       A2, $C$SL12           ; [DPU_3_PIPE] |320|  ; [ORIG 16-BIT INS]
    1971                    $C$DW$89        .dwtag  DW_TAG_TI_branch
    1972                            .dwattr $C$DW$89, DW_AT_low_pc(0x00)
    1973                            .dwattr $C$DW$89, DW_AT_name("strcpy")
    1974                            .dwattr $C$DW$89, DW_AT_TI_call
    1975 00000486 FFFEF7FF!         BL        strcpy                ; [DPU_3_PIPE] |320|  ; [KEEP 32-BIT INS]
    1976                            ; CALL OCCURS {strcpy }          ; [] |320| 
    1977                            .dwpsn  file "../esp8266.c",line 321,column 3,is_stmt,isa 1
    1978                    ;----------------------------------------------------------------------
TI ARM Assembler PC v5.2.4 Thu Sep 17 23:20:49 2015

Tools Copyright (c) 1996-2015 Texas Instruments Incorporated
esp8266.asm                                                          PAGE   44

    1979                    ; 321 | SearchLooking = true;                                                  
    1980                    ;----------------------------------------------------------------------
    1981 0000048a 4994              LDR       A2, $C$CON27          ; [DPU_3_PIPE] |321|  ; [ORIG 16-BIT INS]
    1982 0000048c 2001              MOVS      A1, #1                ; [DPU_3_PIPE] |321|  ; [ORIG 16-BIT INS]
    1983 0000048e 7008              STRB      A1, [A2, #0]          ; [DPU_3_PIPE] |321|  ; [ORIG 16-BIT INS]
    1984                            .dwpsn  file "../esp8266.c",line 322,column 3,is_stmt,isa 1
    1985                    ;----------------------------------------------------------------------
    1986                    ; 322 | SearchFound = false;                                                   
    1987                    ;----------------------------------------------------------------------
    1988 00000490 4943              LDR       A2, $C$CON26          ; [DPU_3_PIPE] |322|  ; [ORIG 16-BIT INS]
    1989 00000492 2000              MOVS      A1, #0                ; [DPU_3_PIPE] |322|  ; [ORIG 16-BIT INS]
    1990 00000494 7008              STRB      A1, [A2, #0]          ; [DPU_3_PIPE] |322|  ; [ORIG 16-BIT INS]
    1991                            .dwpsn  file "../esp8266.c",line 323,column 3,is_stmt,isa 1
    1992                    ;----------------------------------------------------------------------
    1993                    ; 323 | while(try){                                                            
    1994                    ;----------------------------------------------------------------------
    1995 00000496 9800              LDR       A1, [SP, #0]          ; [DPU_3_PIPE] |323|  ; [ORIG 16-BIT INS]
    1996 00000498 B1F0              CBZ       A1, ||$C$L34||        ; []  ; [ORIG 16-BIT INS]
    1997                            ; BRANCHCC OCCURS {||$C$L34||}   ; [] |323| 
    1998                    ;* --------------------------------------------------------------------------*
    1999                    ;*   BEGIN LOOP ||$C$L32||
    2000                    ;*
    2001                    ;*   Loop source line                : 323
    2002                    ;*   Loop closing brace source line  : 331
    2003                    ;*   Known Minimum Trip Count        : 1
    2004                    ;*   Known Maximum Trip Count        : 4294967295
    2005                    ;*   Known Max Trip Count Factor     : 1
    2006                    ;* --------------------------------------------------------------------------*
    2007 0000049a           ||$C$L32||:    
    2008                            .dwpsn  file "../esp8266.c",line 324,column 5,is_stmt,isa 1
    2009                    ;----------------------------------------------------------------------
    2010                    ; 324 | GPIO_PORTB_DATA_R &= ~0x20; // reset low                               
    2011                    ;----------------------------------------------------------------------
    2012 0000049a 497D              LDR       A2, $C$CON28          ; [DPU_3_PIPE] |324|  ; [ORIG 16-BIT INS]
    2013 0000049c 6808              LDR       A1, [A2, #0]          ; [DPU_3_PIPE] |324|  ; [ORIG 16-BIT INS]
    2014 0000049e 0020F020          BIC       A1, A1, #32           ; [DPU_3_PIPE] |324|  ; [KEEP 32-BIT INS]
    2015 000004a2 6008              STR       A1, [A2, #0]          ; [DPU_3_PIPE] |324|  ; [ORIG 16-BIT INS]
    2016                            .dwpsn  file "../esp8266.c",line 325,column 5,is_stmt,isa 1
    2017                    ;----------------------------------------------------------------------
    2018                    ; 325 | DelayMs(10);                                                           
    2019                    ;----------------------------------------------------------------------
    2020 000004a4 200A              MOVS      A1, #10               ; [DPU_3_PIPE] |325|  ; [ORIG 16-BIT INS]
    2021                    $C$DW$90        .dwtag  DW_TAG_TI_branch
    2022                            .dwattr $C$DW$90, DW_AT_low_pc(0x00)
    2023                            .dwattr $C$DW$90, DW_AT_name("DelayMs")
    2024                            .dwattr $C$DW$90, DW_AT_TI_call
    2025 000004a6 FED9F7FF          BL        DelayMs               ; [DPU_3_PIPE] |325|  ; [KEEP 32-BIT INS]
    2026                            ; CALL OCCURS {DelayMs }         ; [] |325| 
    2027                            .dwpsn  file "../esp8266.c",line 326,column 5,is_stmt,isa 1
    2028                    ;----------------------------------------------------------------------
    2029                    ; 326 | GPIO_PORTB_DATA_R |= 0x20; // reset high                               
    2030                    ;----------------------------------------------------------------------
    2031 000004aa 4979              LDR       A2, $C$CON28          ; [DPU_3_PIPE] |326|  ; [ORIG 16-BIT INS]
    2032 000004ac 6808              LDR       A1, [A2, #0]          ; [DPU_3_PIPE] |326|  ; [ORIG 16-BIT INS]
    2033 000004ae 0020F040          ORR       A1, A1, #32           ; [DPU_3_PIPE] |326|  ; [KEEP 32-BIT INS]
TI ARM Assembler PC v5.2.4 Thu Sep 17 23:20:49 2015

Tools Copyright (c) 1996-2015 Texas Instruments Incorporated
esp8266.asm                                                          PAGE   45

    2034 000004b2 6008              STR       A1, [A2, #0]          ; [DPU_3_PIPE] |326|  ; [ORIG 16-BIT INS]
    2035                            .dwpsn  file "../esp8266.c",line 327,column 5,is_stmt,isa 1
    2036                    ;----------------------------------------------------------------------
    2037                    ; 327 | ESP8266SendCommand("AT+RST\r\n");                                      
    2038                    ;----------------------------------------------------------------------
    2039 000004b4 A091              ADR       A1, $C$SL13           ; [DPU_3_PIPE] |327|  ; [ORIG 16-BIT INS]
    2040                    $C$DW$91        .dwtag  DW_TAG_TI_branch
    2041                            .dwattr $C$DW$91, DW_AT_low_pc(0x00)
    2042                            .dwattr $C$DW$91, DW_AT_name("ESP8266SendCommand")
    2043                            .dwattr $C$DW$91, DW_AT_TI_call
    2044 000004b6 FEB9F7FF          BL        ESP8266SendCommand    ; [DPU_3_PIPE] |327|  ; [KEEP 32-BIT INS]
    2045                            ; CALL OCCURS {ESP8266SendCommand }  ; [] |327| 
    2046                            .dwpsn  file "../esp8266.c",line 328,column 5,is_stmt,isa 1
    2047                    ;----------------------------------------------------------------------
    2048                    ; 328 | DelayMsSearching(500);                                                 
    2049                    ;----------------------------------------------------------------------
    2050 000004ba 70FAF44F          MOV       A1, #500              ; [DPU_3_PIPE] |328|  ; [KEEP 32-BIT INS]
    2051                    $C$DW$92        .dwtag  DW_TAG_TI_branch
    2052                            .dwattr $C$DW$92, DW_AT_low_pc(0x00)
    2053                            .dwattr $C$DW$92, DW_AT_name("DelayMsSearching")
    2054                            .dwattr $C$DW$92, DW_AT_TI_call
    2055 000004be FEE5F7FF          BL        DelayMsSearching      ; [DPU_3_PIPE] |328|  ; [KEEP 32-BIT INS]
    2056                            ; CALL OCCURS {DelayMsSearching }  ; [] |328| 
    2057                            .dwpsn  file "../esp8266.c",line 329,column 5,is_stmt,isa 1
    2058                    ;----------------------------------------------------------------------
    2059                    ; 329 | if(SearchFound) return 1; // success                                   
    2060                    ;----------------------------------------------------------------------
    2061 000004c2 4837              LDR       A1, $C$CON26          ; [DPU_3_PIPE] |329|  ; [ORIG 16-BIT INS]
    2062 000004c4 7800              LDRB      A1, [A1, #0]          ; [DPU_3_PIPE] |329|  ; [ORIG 16-BIT INS]
    2063 000004c6 B108              CBZ       A1, ||$C$L33||        ; []  ; [ORIG 16-BIT INS]
    2064                            ; BRANCHCC OCCURS {||$C$L33||}   ; [] |329| 
    2065                    ;* --------------------------------------------------------------------------*
    2066                            .dwpsn  file "../esp8266.c",line 329,column 21,is_stmt,isa 1
    2067 000004c8 2001              MOVS      A1, #1                ; [DPU_3_PIPE] |329|  ; [ORIG 16-BIT INS]
    2068 000004ca E006              B         ||$C$L35||            ; [DPU_3_PIPE] |329|  ; [ORIG 16-BIT INS]
    2069                            ; BRANCH OCCURS {||$C$L35||}     ; [] |329| 
    2070                    ;* --------------------------------------------------------------------------*
    2071 000004cc           ||$C$L33||:    
    2072                            .dwpsn  file "../esp8266.c",line 330,column 5,is_stmt,isa 1
    2073                    ;----------------------------------------------------------------------
    2074                    ; 330 | try--;                                                                 
    2075                    ;----------------------------------------------------------------------
    2076 000004cc 9800              LDR       A1, [SP, #0]          ; [DPU_3_PIPE] |330|  ; [ORIG 16-BIT INS]
    2077 000004ce 1E40              SUBS      A1, A1, #1            ; [DPU_3_PIPE] |330|  ; [ORIG 16-BIT INS]
    2078 000004d0 9000              STR       A1, [SP, #0]          ; [DPU_3_PIPE] |330|  ; [ORIG 16-BIT INS]
    2079                            .dwpsn  file "../esp8266.c",line 323,column 3,is_stmt,isa 1
    2080 000004d2 9800              LDR       A1, [SP, #0]          ; [DPU_3_PIPE] |323|  ; [ORIG 16-BIT INS]
    2081 000004d4 2800              CMP       A1, #0                ; [DPU_3_PIPE] |323|  ; [ORIG 16-BIT INS]
    2082 000004d6 D1E0              BNE       ||$C$L32||            ; [DPU_3_PIPE] |323|  ; [ORIG 16-BIT INS]
    2083                            ; BRANCHCC OCCURS {||$C$L32||}   ; [] |323| 
    2084                    ;* --------------------------------------------------------------------------*
    2085 000004d8           ||$C$L34||:    
    2086                            .dwpsn  file "../esp8266.c",line 332,column 3,is_stmt,isa 1
    2087                    ;----------------------------------------------------------------------
    2088                    ; 332 | return 0; // fail                                                      
TI ARM Assembler PC v5.2.4 Thu Sep 17 23:20:49 2015

Tools Copyright (c) 1996-2015 Texas Instruments Incorporated
esp8266.asm                                                          PAGE   46

    2089                    ;----------------------------------------------------------------------
    2090 000004d8 2000              MOVS      A1, #0                ; [DPU_3_PIPE] |332|  ; [ORIG 16-BIT INS]
    2091                    ;* --------------------------------------------------------------------------*
    2092 000004da           ||$C$L35||:    
    2093                            .dwpsn  file "../esp8266.c",line 333,column 1,is_stmt,isa 1
    2094                    $C$DW$93        .dwtag  DW_TAG_TI_branch
    2095                            .dwattr $C$DW$93, DW_AT_low_pc(0x00)
    2096                            .dwattr $C$DW$93, DW_AT_TI_return
    2097 000004da BD08              POP       {A4, PC}              ; [DPU_3_PIPE]  ; [ORIG 16-BIT INS]
    2098                            .dwcfi  cfa_offset, 0
    2099                            ; BRANCH OCCURS                  ; [] 
    2100                            .dwattr $C$DW$87, DW_AT_TI_end_file("../esp8266.c")
    2101                            .dwattr $C$DW$87, DW_AT_TI_end_line(0x14d)
    2102                            .dwattr $C$DW$87, DW_AT_TI_end_column(0x01)
    2103                            .dwendentry
    2104                            .dwendtag $C$DW$87
    2105                    
    2106                    ;******************************************************************************
    2107                    ;* CONSTANT TABLE                                                             *
    2108                    ;******************************************************************************
    2109 000004dc                   .sect   ".text"
    2110                            .align  4
    2111 000004dc 4000D018  ||$C$CON25||:   .bits   1073795096,32
    2112 000004e0                   .sect   ".text"
    2113                            .clink
    2114                            .thumbfunc ESP8266_SetWifiMode
    2115 000004e0                   .thumb
    2116                            .global ESP8266_SetWifiMode
    2117                    
    2118                    $C$DW$94        .dwtag  DW_TAG_subprogram, DW_AT_name("ESP8266_SetWifiMode")
    2119                            .dwattr $C$DW$94, DW_AT_low_pc(ESP8266_SetWifiMode)
    2120                            .dwattr $C$DW$94, DW_AT_high_pc(0x00)
    2121                            .dwattr $C$DW$94, DW_AT_TI_symbol_name("ESP8266_SetWifiMode")
    2122                            .dwattr $C$DW$94, DW_AT_external
    2123                            .dwattr $C$DW$94, DW_AT_type(*$C$DW$T$10)
    2124                            .dwattr $C$DW$94, DW_AT_TI_begin_file("../esp8266.c")
    2125                            .dwattr $C$DW$94, DW_AT_TI_begin_line(0x153)
    2126                            .dwattr $C$DW$94, DW_AT_TI_begin_column(0x05)
    2127                            .dwattr $C$DW$94, DW_AT_decl_file("../esp8266.c")
    2128                            .dwattr $C$DW$94, DW_AT_decl_line(0x153)
    2129                            .dwattr $C$DW$94, DW_AT_decl_column(0x05)
    2130                            .dwattr $C$DW$94, DW_AT_TI_max_frame_size(0x10)
    2131                            .dwpsn  file "../esp8266.c",line 339,column 38,is_stmt,address ESP8266_SetWifiMode,isa 1
    2132                    
    2133                            .dwfde $C$DW$CIE, ESP8266_SetWifiMode
    2134                    $C$DW$95        .dwtag  DW_TAG_formal_parameter, DW_AT_name("mode")
    2135                            .dwattr $C$DW$95, DW_AT_TI_symbol_name("mode")
    2136                            .dwattr $C$DW$95, DW_AT_type(*$C$DW$T$48)
    2137                            .dwattr $C$DW$95, DW_AT_location[DW_OP_reg0]
    2138                    
    2139                    ;*****************************************************************************
    2140                    ;* FUNCTION NAME: ESP8266_SetWifiMode                                        *
    2141                    ;*                                                                           *
    2142                    ;*   Regs Modified     : A1,A2,A3,A4,V9,SP,LR,SR,D0,D0_hi,D1,D1_hi,D2,D2_hi, *
    2143                    ;*                           D3,D3_hi,D4,D4_hi,D5,D5_hi,D6,D6_hi,D7,D7_hi,   *
TI ARM Assembler PC v5.2.4 Thu Sep 17 23:20:49 2015

Tools Copyright (c) 1996-2015 Texas Instruments Incorporated
esp8266.asm                                                          PAGE   47

    2144                    ;*                           FPEXC,FPSCR                                     *
    2145                    ;*   Regs Used         : A1,A2,A3,A4,V9,SP,LR,SR,D0,D0_hi,D1,D1_hi,D2,D2_hi, *
    2146                    ;*                           D3,D3_hi,D4,D4_hi,D5,D5_hi,D6,D6_hi,D7,D7_hi,   *
    2147                    ;*                           FPEXC,FPSCR                                     *
    2148                    ;*   Local Frame Size  : 0 Args + 8 Auto + 4 Save = 12 byte                  *
    2149                    ;*****************************************************************************
    2150 000004e0           ESP8266_SetWifiMode:
    2151                    ;* --------------------------------------------------------------------------*
    2152                            .dwcfi  cfa_offset, 0
    2153 000004e0 B50E              PUSH      {A2, A3, A4, LR}      ; [DPU_3_PIPE]  ; [ORIG 16-BIT INS]
    2154                            .dwcfi  cfa_offset, 16
    2155                            .dwcfi  save_reg_to_mem, 14, -4
    2156                            .dwcfi  save_reg_to_mem, 3, -8
    2157                            .dwcfi  save_reg_to_mem, 2, -12
    2158                            .dwcfi  save_reg_to_mem, 1, -16
    2159                    $C$DW$96        .dwtag  DW_TAG_variable, DW_AT_name("mode")
    2160                            .dwattr $C$DW$96, DW_AT_TI_symbol_name("mode")
    2161                            .dwattr $C$DW$96, DW_AT_type(*$C$DW$T$48)
    2162                            .dwattr $C$DW$96, DW_AT_location[DW_OP_breg13 0]
    2163                    $C$DW$97        .dwtag  DW_TAG_variable, DW_AT_name("try")
    2164                            .dwattr $C$DW$97, DW_AT_TI_symbol_name("try")
    2165                            .dwattr $C$DW$97, DW_AT_type(*$C$DW$T$10)
    2166                            .dwattr $C$DW$97, DW_AT_location[DW_OP_breg13 4]
    2167                    ;----------------------------------------------------------------------
    2168                    ; 339 | int ESP8266_SetWifiMode(uint8_t mode){int try=MAXTRY;                  
    2169                    ;----------------------------------------------------------------------
    2170 000004e2 0000F88D          STRB      A1, [SP, #0]          ; [DPU_3_PIPE] |339|  ; [KEEP 32-BIT INS]
    2171                            .dwpsn  file "../esp8266.c",line 339,column 46,is_stmt,isa 1
    2172 000004e6 200A              MOVS      A1, #10               ; [DPU_3_PIPE] |339|  ; [ORIG 16-BIT INS]
    2173 000004e8 9001              STR       A1, [SP, #4]          ; [DPU_3_PIPE] |339|  ; [ORIG 16-BIT INS]
    2174                            .dwpsn  file "../esp8266.c",line 340,column 3,is_stmt,isa 1
    2175                    ;----------------------------------------------------------------------
    2176                    ; 340 | if(mode > ESP8266_WIFI_MODE_AP_AND_CLIENT)return 0; // fail            
    2177                    ;----------------------------------------------------------------------
    2178 000004ea 0000F89D          LDRB      A1, [SP, #0]          ; [DPU_3_PIPE] |340|  ; [KEEP 32-BIT INS]
    2179 000004ee 2803              CMP       A1, #3                ; [DPU_3_PIPE] |340|  ; [ORIG 16-BIT INS]
    2180 000004f0 DD01              BLE       ||$C$L36||            ; [DPU_3_PIPE] |340|  ; [ORIG 16-BIT INS]
    2181                            ; BRANCHCC OCCURS {||$C$L36||}   ; [] |340| 
    2182                    ;* --------------------------------------------------------------------------*
    2183                            .dwpsn  file "../esp8266.c",line 340,column 45,is_stmt,isa 1
    2184 000004f2 2000              MOVS      A1, #0                ; [DPU_3_PIPE] |340|  ; [ORIG 16-BIT INS]
    2185 000004f4 E027              B         ||$C$L40||            ; [DPU_3_PIPE] |340|  ; [ORIG 16-BIT INS]
    2186                            ; BRANCH OCCURS {||$C$L40||}     ; [] |340| 
    2187                    ;* --------------------------------------------------------------------------*
    2188 000004f6           ||$C$L36||:    
    2189                            .dwpsn  file "../esp8266.c",line 341,column 3,is_stmt,isa 1
    2190                    ;----------------------------------------------------------------------
    2191                    ; 341 | strcpy(SearchString, "no change");                                     
    2192                    ;----------------------------------------------------------------------
    2193 000004f6 4806              LDR       A1, $C$CON24          ; [DPU_3_PIPE] |341|  ; [ORIG 16-BIT INS]
    2194 000004f8 A1A1              ADR       A2, $C$SL14           ; [DPU_3_PIPE] |341|  ; [ORIG 16-BIT INS]
    2195                    $C$DW$98        .dwtag  DW_TAG_TI_branch
    2196                            .dwattr $C$DW$98, DW_AT_low_pc(0x00)
    2197                            .dwattr $C$DW$98, DW_AT_name("strcpy")
    2198                            .dwattr $C$DW$98, DW_AT_TI_call
TI ARM Assembler PC v5.2.4 Thu Sep 17 23:20:49 2015

Tools Copyright (c) 1996-2015 Texas Instruments Incorporated
esp8266.asm                                                          PAGE   48

    2199 000004fa FFFEF7FF!         BL        strcpy                ; [DPU_3_PIPE] |341|  ; [KEEP 32-BIT INS]
    2200                            ; CALL OCCURS {strcpy }          ; [] |341| 
    2201                            .dwpsn  file "../esp8266.c",line 342,column 3,is_stmt,isa 1
    2202                    ;----------------------------------------------------------------------
    2203                    ; 342 | SearchLooking = true;                                                  
    2204                    ;----------------------------------------------------------------------
    2205 000004fe 4977              LDR       A2, $C$CON27          ; [DPU_3_PIPE] |342|  ; [ORIG 16-BIT INS]
    2206 00000500 2001              MOVS      A1, #1                ; [DPU_3_PIPE] |342|  ; [ORIG 16-BIT INS]
    2207 00000502 7008              STRB      A1, [A2, #0]          ; [DPU_3_PIPE] |342|  ; [ORIG 16-BIT INS]
    2208                            .dwpsn  file "../esp8266.c",line 343,column 3,is_stmt,isa 1
    2209                    ;----------------------------------------------------------------------
    2210                    ; 343 | SearchFound = false;                                                   
    2211                    ;----------------------------------------------------------------------
    2212 00000504 4926              LDR       A2, $C$CON26          ; [DPU_3_PIPE] |343|  ; [ORIG 16-BIT INS]
    2213 00000506 2000              MOVS      A1, #0                ; [DPU_3_PIPE] |343|  ; [ORIG 16-BIT INS]
    2214 00000508 7008              STRB      A1, [A2, #0]          ; [DPU_3_PIPE] |343|  ; [ORIG 16-BIT INS]
    2215                            .dwpsn  file "../esp8266.c",line 344,column 3,is_stmt,isa 1
    2216                    ;----------------------------------------------------------------------
    2217                    ; 344 | while(try){                                                            
    2218                    ;----------------------------------------------------------------------
    2219 0000050a 9801              LDR       A1, [SP, #4]          ; [DPU_3_PIPE] |344|  ; [ORIG 16-BIT INS]
    2220 0000050c B1D0              CBZ       A1, ||$C$L39||        ; []  ; [ORIG 16-BIT INS]
    2221                            ; BRANCHCC OCCURS {||$C$L39||}   ; [] |344| 
    2222                    ;* --------------------------------------------------------------------------*
    2223 0000050e E001              B         ||$C$L37||            ; []  ; [ORIG 16-BIT INS]
    2224                            ; BRANCH OCCURS {||$C$L37||}     ; [] 
    2225                    ;******************************************************************************
    2226                    ;* CONSTANT TABLE                                                             *
    2227                    ;******************************************************************************
    2228 00000510                   .sect   ".text"
    2229                            .align  4
    2230 00000510 00000000! ||$C$CON24||:   .bits   SearchString,32
    2231                    ;* --------------------------------------------------------------------------*
    2232                    ;*   BEGIN LOOP ||$C$L37||
    2233                    ;*
    2234                    ;*   Loop source line                : 344
    2235                    ;*   Loop closing brace source line  : 350
    2236                    ;*   Known Minimum Trip Count        : 1
    2237                    ;*   Known Maximum Trip Count        : 4294967295
    2238                    ;*   Known Max Trip Count Factor     : 1
    2239                    ;* --------------------------------------------------------------------------*
    2240 00000514           ||$C$L37||:    
    2241                            .dwpsn  file "../esp8266.c",line 345,column 5,is_stmt,isa 1
    2242                    ;----------------------------------------------------------------------
    2243                    ; 345 | sprintf((char*)ESP8266_TXBuffer, "AT+CWMODE=%d\r\n", mode);            
    2244                    ;----------------------------------------------------------------------
    2245 00000514 2000F89D          LDRB      A3, [SP, #0]          ; [DPU_3_PIPE] |345|  ; [KEEP 32-BIT INS]
    2246 00000518 4897              LDR       A1, $C$CON29          ; [DPU_3_PIPE] |345|  ; [ORIG 16-BIT INS]
    2247 0000051a A19C              ADR       A2, $C$SL15           ; [DPU_3_PIPE] |345|  ; [ORIG 16-BIT INS]
    2248                    $C$DW$99        .dwtag  DW_TAG_TI_branch
    2249                            .dwattr $C$DW$99, DW_AT_low_pc(0x00)
    2250                            .dwattr $C$DW$99, DW_AT_name("sprintf")
    2251                            .dwattr $C$DW$99, DW_AT_TI_call
    2252 0000051c FFFEF7FF!         BL        sprintf               ; [DPU_3_PIPE] |345|  ; [KEEP 32-BIT INS]
    2253                            ; CALL OCCURS {sprintf }         ; [] |345| 
TI ARM Assembler PC v5.2.4 Thu Sep 17 23:20:49 2015

Tools Copyright (c) 1996-2015 Texas Instruments Incorporated
esp8266.asm                                                          PAGE   49

    2254                            .dwpsn  file "../esp8266.c",line 346,column 5,is_stmt,isa 1
    2255                    ;----------------------------------------------------------------------
    2256                    ; 346 | ESP8266SendCommand((const char*)ESP8266_TXBuffer);                     
    2257                    ;----------------------------------------------------------------------
    2258 00000520 4895              LDR       A1, $C$CON29          ; [DPU_3_PIPE] |346|  ; [ORIG 16-BIT INS]
    2259                    $C$DW$100       .dwtag  DW_TAG_TI_branch
    2260                            .dwattr $C$DW$100, DW_AT_low_pc(0x00)
    2261                            .dwattr $C$DW$100, DW_AT_name("ESP8266SendCommand")
    2262                            .dwattr $C$DW$100, DW_AT_TI_call
    2263 00000522 FE83F7FF          BL        ESP8266SendCommand    ; [DPU_3_PIPE] |346|  ; [KEEP 32-BIT INS]
    2264                            ; CALL OCCURS {ESP8266SendCommand }  ; [] |346| 
    2265                            .dwpsn  file "../esp8266.c",line 347,column 5,is_stmt,isa 1
    2266                    ;----------------------------------------------------------------------
    2267                    ; 347 | DelayMsSearching(5000);                                                
    2268                    ;----------------------------------------------------------------------
    2269 00000526 3088F241          MOV       A1, #5000             ; [DPU_3_PIPE] |347|  ; [KEEP 32-BIT INS]
    2270                    $C$DW$101       .dwtag  DW_TAG_TI_branch
    2271                            .dwattr $C$DW$101, DW_AT_low_pc(0x00)
    2272                            .dwattr $C$DW$101, DW_AT_name("DelayMsSearching")
    2273                            .dwattr $C$DW$101, DW_AT_TI_call
    2274 0000052a FEAFF7FF          BL        DelayMsSearching      ; [DPU_3_PIPE] |347|  ; [KEEP 32-BIT INS]
    2275                            ; CALL OCCURS {DelayMsSearching }  ; [] |347| 
    2276                            .dwpsn  file "../esp8266.c",line 348,column 5,is_stmt,isa 1
    2277                    ;----------------------------------------------------------------------
    2278                    ; 348 | if(SearchFound) return 1; // success                                   
    2279                    ;----------------------------------------------------------------------
    2280 0000052e 481C              LDR       A1, $C$CON26          ; [DPU_3_PIPE] |348|  ; [ORIG 16-BIT INS]
    2281 00000530 7800              LDRB      A1, [A1, #0]          ; [DPU_3_PIPE] |348|  ; [ORIG 16-BIT INS]
    2282 00000532 B108              CBZ       A1, ||$C$L38||        ; []  ; [ORIG 16-BIT INS]
    2283                            ; BRANCHCC OCCURS {||$C$L38||}   ; [] |348| 
    2284                    ;* --------------------------------------------------------------------------*
    2285                            .dwpsn  file "../esp8266.c",line 348,column 21,is_stmt,isa 1
    2286 00000534 2001              MOVS      A1, #1                ; [DPU_3_PIPE] |348|  ; [ORIG 16-BIT INS]
    2287 00000536 E006              B         ||$C$L40||            ; [DPU_3_PIPE] |348|  ; [ORIG 16-BIT INS]
    2288                            ; BRANCH OCCURS {||$C$L40||}     ; [] |348| 
    2289                    ;* --------------------------------------------------------------------------*
    2290 00000538           ||$C$L38||:    
    2291                            .dwpsn  file "../esp8266.c",line 349,column 5,is_stmt,isa 1
    2292                    ;----------------------------------------------------------------------
    2293                    ; 349 | try--;                                                                 
    2294                    ;----------------------------------------------------------------------
    2295 00000538 9801              LDR       A1, [SP, #4]          ; [DPU_3_PIPE] |349|  ; [ORIG 16-BIT INS]
    2296 0000053a 1E40              SUBS      A1, A1, #1            ; [DPU_3_PIPE] |349|  ; [ORIG 16-BIT INS]
    2297 0000053c 9001              STR       A1, [SP, #4]          ; [DPU_3_PIPE] |349|  ; [ORIG 16-BIT INS]
    2298                            .dwpsn  file "../esp8266.c",line 344,column 3,is_stmt,isa 1
    2299 0000053e 9801              LDR       A1, [SP, #4]          ; [DPU_3_PIPE] |344|  ; [ORIG 16-BIT INS]
    2300 00000540 2800              CMP       A1, #0                ; [DPU_3_PIPE] |344|  ; [ORIG 16-BIT INS]
    2301 00000542 D1E7              BNE       ||$C$L37||            ; [DPU_3_PIPE] |344|  ; [ORIG 16-BIT INS]
    2302                            ; BRANCHCC OCCURS {||$C$L37||}   ; [] |344| 
    2303                    ;* --------------------------------------------------------------------------*
    2304 00000544           ||$C$L39||:    
    2305                            .dwpsn  file "../esp8266.c",line 351,column 3,is_stmt,isa 1
    2306                    ;----------------------------------------------------------------------
    2307                    ; 351 | return 0; // fail                                                      
    2308                    ;----------------------------------------------------------------------
TI ARM Assembler PC v5.2.4 Thu Sep 17 23:20:49 2015

Tools Copyright (c) 1996-2015 Texas Instruments Incorporated
esp8266.asm                                                          PAGE   50

    2309 00000544 2000              MOVS      A1, #0                ; [DPU_3_PIPE] |351|  ; [ORIG 16-BIT INS]
    2310                    ;* --------------------------------------------------------------------------*
    2311 00000546           ||$C$L40||:    
    2312                            .dwpsn  file "../esp8266.c",line 352,column 1,is_stmt,isa 1
    2313                    $C$DW$102       .dwtag  DW_TAG_TI_branch
    2314                            .dwattr $C$DW$102, DW_AT_low_pc(0x00)
    2315                            .dwattr $C$DW$102, DW_AT_TI_return
    2316 00000546 BD0E              POP       {A2, A3, A4, PC}      ; [DPU_3_PIPE]  ; [ORIG 16-BIT INS]
    2317                            .dwcfi  cfa_offset, 0
    2318                            ; BRANCH OCCURS                  ; [] 
    2319                            .dwattr $C$DW$94, DW_AT_TI_end_file("../esp8266.c")
    2320                            .dwattr $C$DW$94, DW_AT_TI_end_line(0x160)
    2321                            .dwattr $C$DW$94, DW_AT_TI_end_column(0x01)
    2322                            .dwendentry
    2323                            .dwendtag $C$DW$94
    2324                    
    2325 00000548                   .sect   ".text"
    2326                            .clink
    2327                            .thumbfunc ESP8266_SetConnectionMux
    2328 00000548                   .thumb
    2329                            .global ESP8266_SetConnectionMux
    2330                    
    2331                    $C$DW$103       .dwtag  DW_TAG_subprogram, DW_AT_name("ESP8266_SetConnectionMux")
    2332                            .dwattr $C$DW$103, DW_AT_low_pc(ESP8266_SetConnectionMux)
    2333                            .dwattr $C$DW$103, DW_AT_high_pc(0x00)
    2334                            .dwattr $C$DW$103, DW_AT_TI_symbol_name("ESP8266_SetConnectionMux")
    2335                            .dwattr $C$DW$103, DW_AT_external
    2336                            .dwattr $C$DW$103, DW_AT_type(*$C$DW$T$10)
    2337                            .dwattr $C$DW$103, DW_AT_TI_begin_file("../esp8266.c")
    2338                            .dwattr $C$DW$103, DW_AT_TI_begin_line(0x168)
    2339                            .dwattr $C$DW$103, DW_AT_TI_begin_column(0x05)
    2340                            .dwattr $C$DW$103, DW_AT_decl_file("../esp8266.c")
    2341                            .dwattr $C$DW$103, DW_AT_decl_line(0x168)
    2342                            .dwattr $C$DW$103, DW_AT_decl_column(0x05)
    2343                            .dwattr $C$DW$103, DW_AT_TI_max_frame_size(0x10)
    2344                            .dwpsn  file "../esp8266.c",line 360,column 46,is_stmt,address ESP8266_SetConnectionMux,isa 1
    2345                    
    2346                            .dwfde $C$DW$CIE, ESP8266_SetConnectionMux
    2347                    $C$DW$104       .dwtag  DW_TAG_formal_parameter, DW_AT_name("enabled")
    2348                            .dwattr $C$DW$104, DW_AT_TI_symbol_name("enabled")
    2349                            .dwattr $C$DW$104, DW_AT_type(*$C$DW$T$48)
    2350                            .dwattr $C$DW$104, DW_AT_location[DW_OP_reg0]
    2351                    
    2352                    ;*****************************************************************************
    2353                    ;* FUNCTION NAME: ESP8266_SetConnectionMux                                   *
    2354                    ;*                                                                           *
    2355                    ;*   Regs Modified     : A1,A2,A3,A4,V9,SP,LR,SR,D0,D0_hi,D1,D1_hi,D2,D2_hi, *
    2356                    ;*                           D3,D3_hi,D4,D4_hi,D5,D5_hi,D6,D6_hi,D7,D7_hi,   *
    2357                    ;*                           FPEXC,FPSCR                                     *
    2358                    ;*   Regs Used         : A1,A2,A3,A4,V9,SP,LR,SR,D0,D0_hi,D1,D1_hi,D2,D2_hi, *
    2359                    ;*                           D3,D3_hi,D4,D4_hi,D5,D5_hi,D6,D6_hi,D7,D7_hi,   *
    2360                    ;*                           FPEXC,FPSCR                                     *
    2361                    ;*   Local Frame Size  : 0 Args + 8 Auto + 4 Save = 12 byte                  *
    2362                    ;*****************************************************************************
    2363 00000548           ESP8266_SetConnectionMux:
TI ARM Assembler PC v5.2.4 Thu Sep 17 23:20:49 2015

Tools Copyright (c) 1996-2015 Texas Instruments Incorporated
esp8266.asm                                                          PAGE   51

    2364                    ;* --------------------------------------------------------------------------*
    2365                            .dwcfi  cfa_offset, 0
    2366 00000548 B50E              PUSH      {A2, A3, A4, LR}      ; [DPU_3_PIPE]  ; [ORIG 16-BIT INS]
    2367                            .dwcfi  cfa_offset, 16
    2368                            .dwcfi  save_reg_to_mem, 14, -4
    2369                            .dwcfi  save_reg_to_mem, 3, -8
    2370                            .dwcfi  save_reg_to_mem, 2, -12
    2371                            .dwcfi  save_reg_to_mem, 1, -16
    2372                    $C$DW$105       .dwtag  DW_TAG_variable, DW_AT_name("enabled")
    2373                            .dwattr $C$DW$105, DW_AT_TI_symbol_name("enabled")
    2374                            .dwattr $C$DW$105, DW_AT_type(*$C$DW$T$48)
    2375                            .dwattr $C$DW$105, DW_AT_location[DW_OP_breg13 0]
    2376                    $C$DW$106       .dwtag  DW_TAG_variable, DW_AT_name("try")
    2377                            .dwattr $C$DW$106, DW_AT_TI_symbol_name("try")
    2378                            .dwattr $C$DW$106, DW_AT_type(*$C$DW$T$10)
    2379                            .dwattr $C$DW$106, DW_AT_location[DW_OP_breg13 4]
    2380                    ;----------------------------------------------------------------------
    2381                    ; 360 | int ESP8266_SetConnectionMux(uint8_t enabled){                         
    2382                    ;----------------------------------------------------------------------
    2383 0000054a 0000F88D          STRB      A1, [SP, #0]          ; [DPU_3_PIPE] |360|  ; [KEEP 32-BIT INS]
    2384                            .dwpsn  file "../esp8266.c",line 361,column 10,is_stmt,isa 1
    2385                    ;----------------------------------------------------------------------
    2386                    ; 361 | int try=MAXTRY;                                                        
    2387                    ;----------------------------------------------------------------------
    2388 0000054e 200A              MOVS      A1, #10               ; [DPU_3_PIPE] |361|  ; [ORIG 16-BIT INS]
    2389 00000550 9001              STR       A1, [SP, #4]          ; [DPU_3_PIPE] |361|  ; [ORIG 16-BIT INS]
    2390                            .dwpsn  file "../esp8266.c",line 362,column 3,is_stmt,isa 1
    2391                    ;----------------------------------------------------------------------
    2392                    ; 362 | strcpy(SearchString, "OK");                                            
    2393                    ;----------------------------------------------------------------------
    2394 00000552 488A              LDR       A1, $C$CON30          ; [DPU_3_PIPE] |362|  ; [ORIG 16-BIT INS]
    2395 00000554 A191              ADR       A2, $C$SL16           ; [DPU_3_PIPE] |362|  ; [ORIG 16-BIT INS]
    2396                    $C$DW$107       .dwtag  DW_TAG_TI_branch
    2397                            .dwattr $C$DW$107, DW_AT_low_pc(0x00)
    2398                            .dwattr $C$DW$107, DW_AT_name("strcpy")
    2399                            .dwattr $C$DW$107, DW_AT_TI_call
    2400 00000556 FFFEF7FF!         BL        strcpy                ; [DPU_3_PIPE] |362|  ; [KEEP 32-BIT INS]
    2401                            ; CALL OCCURS {strcpy }          ; [] |362| 
    2402                            .dwpsn  file "../esp8266.c",line 363,column 3,is_stmt,isa 1
    2403                    ;----------------------------------------------------------------------
    2404                    ; 363 | SearchLooking = true;                                                  
    2405                    ;----------------------------------------------------------------------
    2406 0000055a 4960              LDR       A2, $C$CON27          ; [DPU_3_PIPE] |363|  ; [ORIG 16-BIT INS]
    2407 0000055c 2001              MOVS      A1, #1                ; [DPU_3_PIPE] |363|  ; [ORIG 16-BIT INS]
    2408 0000055e 7008              STRB      A1, [A2, #0]          ; [DPU_3_PIPE] |363|  ; [ORIG 16-BIT INS]
    2409                            .dwpsn  file "../esp8266.c",line 364,column 3,is_stmt,isa 1
    2410                    ;----------------------------------------------------------------------
    2411                    ; 364 | SearchFound = false;                                                   
    2412                    ;----------------------------------------------------------------------
    2413 00000560 490F              LDR       A2, $C$CON26          ; [DPU_3_PIPE] |364|  ; [ORIG 16-BIT INS]
    2414 00000562 2000              MOVS      A1, #0                ; [DPU_3_PIPE] |364|  ; [ORIG 16-BIT INS]
    2415 00000564 7008              STRB      A1, [A2, #0]          ; [DPU_3_PIPE] |364|  ; [ORIG 16-BIT INS]
    2416                            .dwpsn  file "../esp8266.c",line 365,column 3,is_stmt,isa 1
    2417                    ;----------------------------------------------------------------------
    2418                    ; 365 | while(try){                                                            
TI ARM Assembler PC v5.2.4 Thu Sep 17 23:20:49 2015

Tools Copyright (c) 1996-2015 Texas Instruments Incorporated
esp8266.asm                                                          PAGE   52

    2419                    ;----------------------------------------------------------------------
    2420 00000566 9801              LDR       A1, [SP, #4]          ; [DPU_3_PIPE] |365|  ; [ORIG 16-BIT INS]
    2421 00000568 B1B8              CBZ       A1, ||$C$L43||        ; []  ; [ORIG 16-BIT INS]
    2422                            ; BRANCHCC OCCURS {||$C$L43||}   ; [] |365| 
    2423                    ;* --------------------------------------------------------------------------*
    2424                    ;*   BEGIN LOOP ||$C$L41||
    2425                    ;*
    2426                    ;*   Loop source line                : 365
    2427                    ;*   Loop closing brace source line  : 371
    2428                    ;*   Known Minimum Trip Count        : 1
    2429                    ;*   Known Maximum Trip Count        : 4294967295
    2430                    ;*   Known Max Trip Count Factor     : 1
    2431                    ;* --------------------------------------------------------------------------*
    2432 0000056a           ||$C$L41||:    
    2433                            .dwpsn  file "../esp8266.c",line 366,column 5,is_stmt,isa 1
    2434                    ;----------------------------------------------------------------------
    2435                    ; 366 | sprintf((char*)ESP8266_TXBuffer, "AT+CIPMUX=%d\r\n", enabled);         
    2436                    ;----------------------------------------------------------------------
    2437 0000056a 2000F89D          LDRB      A3, [SP, #0]          ; [DPU_3_PIPE] |366|  ; [KEEP 32-BIT INS]
    2438 0000056e 4882              LDR       A1, $C$CON29          ; [DPU_3_PIPE] |366|  ; [ORIG 16-BIT INS]
    2439 00000570 A18B              ADR       A2, $C$SL17           ; [DPU_3_PIPE] |366|  ; [ORIG 16-BIT INS]
    2440                    $C$DW$108       .dwtag  DW_TAG_TI_branch
    2441                            .dwattr $C$DW$108, DW_AT_low_pc(0x00)
    2442                            .dwattr $C$DW$108, DW_AT_name("sprintf")
    2443                            .dwattr $C$DW$108, DW_AT_TI_call
    2444 00000572 FFFEF7FF!         BL        sprintf               ; [DPU_3_PIPE] |366|  ; [KEEP 32-BIT INS]
    2445                            ; CALL OCCURS {sprintf }         ; [] |366| 
    2446                            .dwpsn  file "../esp8266.c",line 367,column 5,is_stmt,isa 1
    2447                    ;----------------------------------------------------------------------
    2448                    ; 367 | ESP8266SendCommand((const char*)ESP8266_TXBuffer);                     
    2449                    ;----------------------------------------------------------------------
    2450 00000576 4880              LDR       A1, $C$CON29          ; [DPU_3_PIPE] |367|  ; [ORIG 16-BIT INS]
    2451                    $C$DW$109       .dwtag  DW_TAG_TI_branch
    2452                            .dwattr $C$DW$109, DW_AT_low_pc(0x00)
    2453                            .dwattr $C$DW$109, DW_AT_name("ESP8266SendCommand")
    2454                            .dwattr $C$DW$109, DW_AT_TI_call
    2455 00000578 FE58F7FF          BL        ESP8266SendCommand    ; [DPU_3_PIPE] |367|  ; [KEEP 32-BIT INS]
    2456                            ; CALL OCCURS {ESP8266SendCommand }  ; [] |367| 
    2457                            .dwpsn  file "../esp8266.c",line 368,column 5,is_stmt,isa 1
    2458                    ;----------------------------------------------------------------------
    2459                    ; 368 | DelayMsSearching(5000);                                                
    2460                    ;----------------------------------------------------------------------
    2461 0000057c 3088F241          MOV       A1, #5000             ; [DPU_3_PIPE] |368|  ; [KEEP 32-BIT INS]
    2462                    $C$DW$110       .dwtag  DW_TAG_TI_branch
    2463                            .dwattr $C$DW$110, DW_AT_low_pc(0x00)
    2464                            .dwattr $C$DW$110, DW_AT_name("DelayMsSearching")
    2465                            .dwattr $C$DW$110, DW_AT_TI_call
    2466 00000580 FE84F7FF          BL        DelayMsSearching      ; [DPU_3_PIPE] |368|  ; [KEEP 32-BIT INS]
    2467                            ; CALL OCCURS {DelayMsSearching }  ; [] |368| 
    2468                            .dwpsn  file "../esp8266.c",line 369,column 5,is_stmt,isa 1
    2469                    ;----------------------------------------------------------------------
    2470                    ; 369 | if(SearchFound) return 1; // success                                   
    2471                    ;----------------------------------------------------------------------
    2472 00000584 4806              LDR       A1, $C$CON26          ; [DPU_3_PIPE] |369|  ; [ORIG 16-BIT INS]
    2473 00000586 7800              LDRB      A1, [A1, #0]          ; [DPU_3_PIPE] |369|  ; [ORIG 16-BIT INS]
TI ARM Assembler PC v5.2.4 Thu Sep 17 23:20:49 2015

Tools Copyright (c) 1996-2015 Texas Instruments Incorporated
esp8266.asm                                                          PAGE   53

    2474 00000588 B108              CBZ       A1, ||$C$L42||        ; []  ; [ORIG 16-BIT INS]
    2475                            ; BRANCHCC OCCURS {||$C$L42||}   ; [] |369| 
    2476                    ;* --------------------------------------------------------------------------*
    2477                            .dwpsn  file "../esp8266.c",line 369,column 21,is_stmt,isa 1
    2478 0000058a 2001              MOVS      A1, #1                ; [DPU_3_PIPE] |369|  ; [ORIG 16-BIT INS]
    2479 0000058c E006              B         ||$C$L44||            ; [DPU_3_PIPE] |369|  ; [ORIG 16-BIT INS]
    2480                            ; BRANCH OCCURS {||$C$L44||}     ; [] |369| 
    2481                    ;* --------------------------------------------------------------------------*
    2482 0000058e           ||$C$L42||:    
    2483                            .dwpsn  file "../esp8266.c",line 370,column 5,is_stmt,isa 1
    2484                    ;----------------------------------------------------------------------
    2485                    ; 370 | try--;                                                                 
    2486                    ;----------------------------------------------------------------------
    2487 0000058e 9801              LDR       A1, [SP, #4]          ; [DPU_3_PIPE] |370|  ; [ORIG 16-BIT INS]
    2488 00000590 1E40              SUBS      A1, A1, #1            ; [DPU_3_PIPE] |370|  ; [ORIG 16-BIT INS]
    2489 00000592 9001              STR       A1, [SP, #4]          ; [DPU_3_PIPE] |370|  ; [ORIG 16-BIT INS]
    2490                            .dwpsn  file "../esp8266.c",line 365,column 3,is_stmt,isa 1
    2491 00000594 9801              LDR       A1, [SP, #4]          ; [DPU_3_PIPE] |365|  ; [ORIG 16-BIT INS]
    2492 00000596 2800              CMP       A1, #0                ; [DPU_3_PIPE] |365|  ; [ORIG 16-BIT INS]
    2493 00000598 D1E7              BNE       ||$C$L41||            ; [DPU_3_PIPE] |365|  ; [ORIG 16-BIT INS]
    2494                            ; BRANCHCC OCCURS {||$C$L41||}   ; [] |365| 
    2495                    ;* --------------------------------------------------------------------------*
    2496 0000059a           ||$C$L43||:    
    2497                            .dwpsn  file "../esp8266.c",line 372,column 3,is_stmt,isa 1
    2498                    ;----------------------------------------------------------------------
    2499                    ; 372 | return 0; // fail                                                      
    2500                    ;----------------------------------------------------------------------
    2501 0000059a 2000              MOVS      A1, #0                ; [DPU_3_PIPE] |372|  ; [ORIG 16-BIT INS]
    2502                    ;* --------------------------------------------------------------------------*
    2503 0000059c           ||$C$L44||:    
    2504                            .dwpsn  file "../esp8266.c",line 373,column 1,is_stmt,isa 1
    2505                    $C$DW$111       .dwtag  DW_TAG_TI_branch
    2506                            .dwattr $C$DW$111, DW_AT_low_pc(0x00)
    2507                            .dwattr $C$DW$111, DW_AT_TI_return
    2508 0000059c BD0E              POP       {A2, A3, A4, PC}      ; [DPU_3_PIPE]  ; [ORIG 16-BIT INS]
    2509                            .dwcfi  cfa_offset, 0
    2510                            ; BRANCH OCCURS                  ; [] 
    2511                            .dwattr $C$DW$103, DW_AT_TI_end_file("../esp8266.c")
    2512                            .dwattr $C$DW$103, DW_AT_TI_end_line(0x175)
    2513                            .dwattr $C$DW$103, DW_AT_TI_end_column(0x01)
    2514                            .dwendentry
    2515                            .dwendtag $C$DW$103
    2516                    
    2517                    ;******************************************************************************
    2518                    ;* CONSTANT TABLE                                                             *
    2519                    ;******************************************************************************
    2520 0000059e                   .sect   ".text"
    2521                            .align  4
    2522 0000059e 000046C0! ||$C$CON26||:   .bits   SearchFound,32
         000005a2 00000000 
    2523 000005a4                   .sect   ".text"
    2524                            .clink
    2525                            .thumbfunc ESP8266_SetServerTimeout
    2526 000005a4                   .thumb
    2527                            .global ESP8266_SetServerTimeout
TI ARM Assembler PC v5.2.4 Thu Sep 17 23:20:49 2015

Tools Copyright (c) 1996-2015 Texas Instruments Incorporated
esp8266.asm                                                          PAGE   54

    2528                    
    2529                    $C$DW$112       .dwtag  DW_TAG_subprogram, DW_AT_name("ESP8266_SetServerTimeout")
    2530                            .dwattr $C$DW$112, DW_AT_low_pc(ESP8266_SetServerTimeout)
    2531                            .dwattr $C$DW$112, DW_AT_high_pc(0x00)
    2532                            .dwattr $C$DW$112, DW_AT_TI_symbol_name("ESP8266_SetServerTimeout")
    2533                            .dwattr $C$DW$112, DW_AT_external
    2534                            .dwattr $C$DW$112, DW_AT_TI_begin_file("../esp8266.c")
    2535                            .dwattr $C$DW$112, DW_AT_TI_begin_line(0x17e)
    2536                            .dwattr $C$DW$112, DW_AT_TI_begin_column(0x06)
    2537                            .dwattr $C$DW$112, DW_AT_decl_file("../esp8266.c")
    2538                            .dwattr $C$DW$112, DW_AT_decl_line(0x17e)
    2539                            .dwattr $C$DW$112, DW_AT_decl_column(0x06)
    2540                            .dwattr $C$DW$112, DW_AT_TI_max_frame_size(0x08)
    2541                            .dwpsn  file "../esp8266.c",line 382,column 48,is_stmt,address ESP8266_SetServerTimeout,isa 1
    2542                    
    2543                            .dwfde $C$DW$CIE, ESP8266_SetServerTimeout
    2544                    $C$DW$113       .dwtag  DW_TAG_formal_parameter, DW_AT_name("timeout")
    2545                            .dwattr $C$DW$113, DW_AT_TI_symbol_name("timeout")
    2546                            .dwattr $C$DW$113, DW_AT_type(*$C$DW$T$42)
    2547                            .dwattr $C$DW$113, DW_AT_location[DW_OP_reg0]
    2548                    
    2549                    ;*****************************************************************************
    2550                    ;* FUNCTION NAME: ESP8266_SetServerTimeout                                   *
    2551                    ;*                                                                           *
    2552                    ;*   Regs Modified     : A1,A2,A3,A4,V9,SP,LR,SR,D0,D0_hi,D1,D1_hi,D2,D2_hi, *
    2553                    ;*                           D3,D3_hi,D4,D4_hi,D5,D5_hi,D6,D6_hi,D7,D7_hi,   *
    2554                    ;*                           FPEXC,FPSCR                                     *
    2555                    ;*   Regs Used         : A1,A2,A3,A4,V9,SP,LR,SR,D0,D0_hi,D1,D1_hi,D2,D2_hi, *
    2556                    ;*                           D3,D3_hi,D4,D4_hi,D5,D5_hi,D6,D6_hi,D7,D7_hi,   *
    2557                    ;*                           FPEXC,FPSCR                                     *
    2558                    ;*   Local Frame Size  : 0 Args + 4 Auto + 4 Save = 8 byte                   *
    2559                    ;*****************************************************************************
    2560 000005a4           ESP8266_SetServerTimeout:
    2561                    ;* --------------------------------------------------------------------------*
    2562                            .dwcfi  cfa_offset, 0
    2563 000005a4 B508              PUSH      {A4, LR}              ; [DPU_3_PIPE]  ; [ORIG 16-BIT INS]
    2564                            .dwcfi  cfa_offset, 8
    2565                            .dwcfi  save_reg_to_mem, 14, -4
    2566                            .dwcfi  save_reg_to_mem, 3, -8
    2567                    $C$DW$114       .dwtag  DW_TAG_variable, DW_AT_name("timeout")
    2568                            .dwattr $C$DW$114, DW_AT_TI_symbol_name("timeout")
    2569                            .dwattr $C$DW$114, DW_AT_type(*$C$DW$T$42)
    2570                            .dwattr $C$DW$114, DW_AT_location[DW_OP_breg13 0]
    2571                    ;----------------------------------------------------------------------
    2572                    ; 382 | void ESP8266_SetServerTimeout(uint16_t timeout){                       
    2573                    ;----------------------------------------------------------------------
    2574 000005a6 0000F8AD          STRH      A1, [SP, #0]          ; [DPU_3_PIPE] |382|  ; [KEEP 32-BIT INS]
    2575                            .dwpsn  file "../esp8266.c",line 383,column 3,is_stmt,isa 1
    2576                    ;----------------------------------------------------------------------
    2577                    ; 383 | ESP8266_ServerTimeout = timeout;                                       
    2578                    ;----------------------------------------------------------------------
    2579 000005aa 4981              LDR       A2, $C$CON31          ; [DPU_3_PIPE] |383|  ; [ORIG 16-BIT INS]
    2580 000005ac 0000F8BD          LDRH      A1, [SP, #0]          ; [DPU_3_PIPE] |383|  ; [KEEP 32-BIT INS]
    2581 000005b0 8008              STRH      A1, [A2, #0]          ; [DPU_3_PIPE] |383|  ; [ORIG 16-BIT INS]
    2582                            .dwpsn  file "../esp8266.c",line 384,column 3,is_stmt,isa 1
TI ARM Assembler PC v5.2.4 Thu Sep 17 23:20:49 2015

Tools Copyright (c) 1996-2015 Texas Instruments Incorporated
esp8266.asm                                                          PAGE   55

    2583                    ;----------------------------------------------------------------------
    2584                    ; 384 | sprintf((char*)ESP8266_TXBuffer, "AT+CIPSTO=%d\r\n", ESP8266_ServerTime
    2585                    ;     | out);                                                                  
    2586                    ;----------------------------------------------------------------------
    2587 000005b2 487F              LDR       A1, $C$CON31          ; [DPU_3_PIPE] |384|  ; [ORIG 16-BIT INS]
    2588 000005b4 8802              LDRH      A3, [A1, #0]          ; [DPU_3_PIPE] |384|  ; [ORIG 16-BIT INS]
    2589 000005b6 4870              LDR       A1, $C$CON29          ; [DPU_3_PIPE] |384|  ; [ORIG 16-BIT INS]
    2590 000005b8 A1A6              ADR       A2, $C$SL18           ; [DPU_3_PIPE] |384|  ; [ORIG 16-BIT INS]
    2591                    $C$DW$115       .dwtag  DW_TAG_TI_branch
    2592                            .dwattr $C$DW$115, DW_AT_low_pc(0x00)
    2593                            .dwattr $C$DW$115, DW_AT_name("sprintf")
    2594                            .dwattr $C$DW$115, DW_AT_TI_call
    2595 000005ba FFFEF7FF!         BL        sprintf               ; [DPU_3_PIPE] |384|  ; [KEEP 32-BIT INS]
    2596                            ; CALL OCCURS {sprintf }         ; [] |384| 
    2597                            .dwpsn  file "../esp8266.c",line 385,column 3,is_stmt,isa 1
    2598                    ;----------------------------------------------------------------------
    2599                    ; 385 | ESP8266SendCommand((const char*)ESP8266_TXBuffer);                     
    2600                    ;----------------------------------------------------------------------
    2601 000005be 486E              LDR       A1, $C$CON29          ; [DPU_3_PIPE] |385|  ; [ORIG 16-BIT INS]
    2602                    $C$DW$116       .dwtag  DW_TAG_TI_branch
    2603                            .dwattr $C$DW$116, DW_AT_low_pc(0x00)
    2604                            .dwattr $C$DW$116, DW_AT_name("ESP8266SendCommand")
    2605                            .dwattr $C$DW$116, DW_AT_TI_call
    2606 000005c0 FE34F7FF          BL        ESP8266SendCommand    ; [DPU_3_PIPE] |385|  ; [KEEP 32-BIT INS]
    2607                            ; CALL OCCURS {ESP8266SendCommand }  ; [] |385| 
    2608                            .dwpsn  file "../esp8266.c",line 386,column 1,is_stmt,isa 1
    2609                    $C$DW$117       .dwtag  DW_TAG_TI_branch
    2610                            .dwattr $C$DW$117, DW_AT_low_pc(0x00)
    2611                            .dwattr $C$DW$117, DW_AT_TI_return
    2612 000005c4 BD08              POP       {A4, PC}              ; [DPU_3_PIPE]  ; [ORIG 16-BIT INS]
    2613                            .dwcfi  cfa_offset, 0
    2614                            ; BRANCH OCCURS                  ; [] 
    2615                            .dwattr $C$DW$112, DW_AT_TI_end_file("../esp8266.c")
    2616                            .dwattr $C$DW$112, DW_AT_TI_end_line(0x182)
    2617                            .dwattr $C$DW$112, DW_AT_TI_end_column(0x01)
    2618                            .dwendentry
    2619                            .dwendtag $C$DW$112
    2620                    
    2621 000005c6                   .sect   ".text"
    2622                            .clink
    2623                            .thumbfunc ESP8266_EnableServer
    2624 000005c6                   .thumb
    2625                            .global ESP8266_EnableServer
    2626                    
    2627                    $C$DW$118       .dwtag  DW_TAG_subprogram, DW_AT_name("ESP8266_EnableServer")
    2628                            .dwattr $C$DW$118, DW_AT_low_pc(ESP8266_EnableServer)
    2629                            .dwattr $C$DW$118, DW_AT_high_pc(0x00)
    2630                            .dwattr $C$DW$118, DW_AT_TI_symbol_name("ESP8266_EnableServer")
    2631                            .dwattr $C$DW$118, DW_AT_external
    2632                            .dwattr $C$DW$118, DW_AT_TI_begin_file("../esp8266.c")
    2633                            .dwattr $C$DW$118, DW_AT_TI_begin_line(0x18b)
    2634                            .dwattr $C$DW$118, DW_AT_TI_begin_column(0x06)
    2635                            .dwattr $C$DW$118, DW_AT_decl_file("../esp8266.c")
    2636                            .dwattr $C$DW$118, DW_AT_decl_line(0x18b)
    2637                            .dwattr $C$DW$118, DW_AT_decl_column(0x06)
TI ARM Assembler PC v5.2.4 Thu Sep 17 23:20:49 2015

Tools Copyright (c) 1996-2015 Texas Instruments Incorporated
esp8266.asm                                                          PAGE   56

    2638                            .dwattr $C$DW$118, DW_AT_TI_max_frame_size(0x08)
    2639                            .dwpsn  file "../esp8266.c",line 395,column 41,is_stmt,address ESP8266_EnableServer,isa 1
    2640                    
    2641                            .dwfde $C$DW$CIE, ESP8266_EnableServer
    2642                    $C$DW$119       .dwtag  DW_TAG_formal_parameter, DW_AT_name("port")
    2643                            .dwattr $C$DW$119, DW_AT_TI_symbol_name("port")
    2644                            .dwattr $C$DW$119, DW_AT_type(*$C$DW$T$42)
    2645                            .dwattr $C$DW$119, DW_AT_location[DW_OP_reg0]
    2646                    
    2647                    ;*****************************************************************************
    2648                    ;* FUNCTION NAME: ESP8266_EnableServer                                       *
    2649                    ;*                                                                           *
    2650                    ;*   Regs Modified     : A1,A2,A3,A4,V9,SP,LR,SR,D0,D0_hi,D1,D1_hi,D2,D2_hi, *
    2651                    ;*                           D3,D3_hi,D4,D4_hi,D5,D5_hi,D6,D6_hi,D7,D7_hi,   *
    2652                    ;*                           FPEXC,FPSCR                                     *
    2653                    ;*   Regs Used         : A1,A2,A3,A4,V9,SP,LR,SR,D0,D0_hi,D1,D1_hi,D2,D2_hi, *
    2654                    ;*                           D3,D3_hi,D4,D4_hi,D5,D5_hi,D6,D6_hi,D7,D7_hi,   *
    2655                    ;*                           FPEXC,FPSCR                                     *
    2656                    ;*   Local Frame Size  : 0 Args + 4 Auto + 4 Save = 8 byte                   *
    2657                    ;*****************************************************************************
    2658 000005c6           ESP8266_EnableServer:
    2659                    ;* --------------------------------------------------------------------------*
    2660                            .dwcfi  cfa_offset, 0
    2661 000005c6 B508              PUSH      {A4, LR}              ; [DPU_3_PIPE]  ; [ORIG 16-BIT INS]
    2662                            .dwcfi  cfa_offset, 8
    2663                            .dwcfi  save_reg_to_mem, 14, -4
    2664                            .dwcfi  save_reg_to_mem, 3, -8
    2665                    $C$DW$120       .dwtag  DW_TAG_variable, DW_AT_name("port")
    2666                            .dwattr $C$DW$120, DW_AT_TI_symbol_name("port")
    2667                            .dwattr $C$DW$120, DW_AT_type(*$C$DW$T$42)
    2668                            .dwattr $C$DW$120, DW_AT_location[DW_OP_breg13 0]
    2669                    ;----------------------------------------------------------------------
    2670                    ; 395 | void ESP8266_EnableServer(uint16_t port){                              
    2671                    ;----------------------------------------------------------------------
    2672 000005c8 0000F8AD          STRH      A1, [SP, #0]          ; [DPU_3_PIPE] |395|  ; [KEEP 32-BIT INS]
    2673                            .dwpsn  file "../esp8266.c",line 396,column 3,is_stmt,isa 1
    2674                    ;----------------------------------------------------------------------
    2675                    ; 396 | ESP8266_ServerPort = port;                                             
    2676                    ;----------------------------------------------------------------------
    2677 000005cc 4979              LDR       A2, $C$CON32          ; [DPU_3_PIPE] |396|  ; [ORIG 16-BIT INS]
    2678 000005ce 0000F8BD          LDRH      A1, [SP, #0]          ; [DPU_3_PIPE] |396|  ; [KEEP 32-BIT INS]
    2679 000005d2 8008              STRH      A1, [A2, #0]          ; [DPU_3_PIPE] |396|  ; [ORIG 16-BIT INS]
    2680                            .dwpsn  file "../esp8266.c",line 397,column 3,is_stmt,isa 1
    2681                    ;----------------------------------------------------------------------
    2682                    ; 397 | sprintf((char*)ESP8266_TXBuffer, "AT+CIPSERVER=1,%d\r\n", ESP8266_Serve
    2683                    ;     | rPort);                                                                
    2684                    ;----------------------------------------------------------------------
    2685 000005d4 4877              LDR       A1, $C$CON32          ; [DPU_3_PIPE] |397|  ; [ORIG 16-BIT INS]
    2686 000005d6 8802              LDRH      A3, [A1, #0]          ; [DPU_3_PIPE] |397|  ; [ORIG 16-BIT INS]
    2687 000005d8 4867              LDR       A1, $C$CON29          ; [DPU_3_PIPE] |397|  ; [ORIG 16-BIT INS]
    2688 000005da A1A9              ADR       A2, $C$SL19           ; [DPU_3_PIPE] |397|  ; [ORIG 16-BIT INS]
    2689                    $C$DW$121       .dwtag  DW_TAG_TI_branch
    2690                            .dwattr $C$DW$121, DW_AT_low_pc(0x00)
    2691                            .dwattr $C$DW$121, DW_AT_name("sprintf")
    2692                            .dwattr $C$DW$121, DW_AT_TI_call
TI ARM Assembler PC v5.2.4 Thu Sep 17 23:20:49 2015

Tools Copyright (c) 1996-2015 Texas Instruments Incorporated
esp8266.asm                                                          PAGE   57

    2693 000005dc FFFEF7FF!         BL        sprintf               ; [DPU_3_PIPE] |397|  ; [KEEP 32-BIT INS]
    2694                            ; CALL OCCURS {sprintf }         ; [] |397| 
    2695                            .dwpsn  file "../esp8266.c",line 398,column 3,is_stmt,isa 1
    2696                    ;----------------------------------------------------------------------
    2697                    ; 398 | ESP8266SendCommand((const char*)ESP8266_TXBuffer);                     
    2698                    ;----------------------------------------------------------------------
    2699 000005e0 4865              LDR       A1, $C$CON29          ; [DPU_3_PIPE] |398|  ; [ORIG 16-BIT INS]
    2700                    $C$DW$122       .dwtag  DW_TAG_TI_branch
    2701                            .dwattr $C$DW$122, DW_AT_low_pc(0x00)
    2702                            .dwattr $C$DW$122, DW_AT_name("ESP8266SendCommand")
    2703                            .dwattr $C$DW$122, DW_AT_TI_call
    2704 000005e2 FE23F7FF          BL        ESP8266SendCommand    ; [DPU_3_PIPE] |398|  ; [KEEP 32-BIT INS]
    2705                            ; CALL OCCURS {ESP8266SendCommand }  ; [] |398| 
    2706                            .dwpsn  file "../esp8266.c",line 399,column 1,is_stmt,isa 1
    2707                    $C$DW$123       .dwtag  DW_TAG_TI_branch
    2708                            .dwattr $C$DW$123, DW_AT_low_pc(0x00)
    2709                            .dwattr $C$DW$123, DW_AT_TI_return
    2710 000005e6 BD08              POP       {A4, PC}              ; [DPU_3_PIPE]  ; [ORIG 16-BIT INS]
    2711                            .dwcfi  cfa_offset, 0
    2712                            ; BRANCH OCCURS                  ; [] 
    2713                            .dwattr $C$DW$118, DW_AT_TI_end_file("../esp8266.c")
    2714                            .dwattr $C$DW$118, DW_AT_TI_end_line(0x18f)
    2715                            .dwattr $C$DW$118, DW_AT_TI_end_column(0x01)
    2716                            .dwendentry
    2717                            .dwendtag $C$DW$118
    2718                    
    2719 000005e8                   .sect   ".text"
    2720                            .clink
    2721                            .thumbfunc ESP8266_DisableServer
    2722 000005e8                   .thumb
    2723                            .global ESP8266_DisableServer
    2724                    
    2725                    $C$DW$124       .dwtag  DW_TAG_subprogram, DW_AT_name("ESP8266_DisableServer")
    2726                            .dwattr $C$DW$124, DW_AT_low_pc(ESP8266_DisableServer)
    2727                            .dwattr $C$DW$124, DW_AT_high_pc(0x00)
    2728                            .dwattr $C$DW$124, DW_AT_TI_symbol_name("ESP8266_DisableServer")
    2729                            .dwattr $C$DW$124, DW_AT_external
    2730                            .dwattr $C$DW$124, DW_AT_type(*$C$DW$T$10)
    2731                            .dwattr $C$DW$124, DW_AT_TI_begin_file("../esp8266.c")
    2732                            .dwattr $C$DW$124, DW_AT_TI_begin_line(0x196)
    2733                            .dwattr $C$DW$124, DW_AT_TI_begin_column(0x05)
    2734                            .dwattr $C$DW$124, DW_AT_decl_file("../esp8266.c")
    2735                            .dwattr $C$DW$124, DW_AT_decl_line(0x196)
    2736                            .dwattr $C$DW$124, DW_AT_decl_column(0x05)
    2737                            .dwattr $C$DW$124, DW_AT_TI_max_frame_size(0x08)
    2738                            .dwpsn  file "../esp8266.c",line 406,column 32,is_stmt,address ESP8266_DisableServer,isa 1
    2739                    
    2740                            .dwfde $C$DW$CIE, ESP8266_DisableServer
    2741                    ;----------------------------------------------------------------------
    2742                    ; 406 | int ESP8266_DisableServer(void){                                       
    2743                    ;----------------------------------------------------------------------
    2744                    
    2745                    ;*****************************************************************************
    2746                    ;* FUNCTION NAME: ESP8266_DisableServer                                      *
    2747                    ;*                                                                           *
TI ARM Assembler PC v5.2.4 Thu Sep 17 23:20:49 2015

Tools Copyright (c) 1996-2015 Texas Instruments Incorporated
esp8266.asm                                                          PAGE   58

    2748                    ;*   Regs Modified     : A1,A2,A3,A4,V9,SP,LR,SR,D0,D0_hi,D1,D1_hi,D2,D2_hi, *
    2749                    ;*                           D3,D3_hi,D4,D4_hi,D5,D5_hi,D6,D6_hi,D7,D7_hi,   *
    2750                    ;*                           FPEXC,FPSCR                                     *
    2751                    ;*   Regs Used         : A1,A2,A3,A4,V9,SP,LR,SR,D0,D0_hi,D1,D1_hi,D2,D2_hi, *
    2752                    ;*                           D3,D3_hi,D4,D4_hi,D5,D5_hi,D6,D6_hi,D7,D7_hi,   *
    2753                    ;*                           FPEXC,FPSCR                                     *
    2754                    ;*   Local Frame Size  : 0 Args + 4 Auto + 4 Save = 8 byte                   *
    2755                    ;*****************************************************************************
    2756 000005e8           ESP8266_DisableServer:
    2757                    ;* --------------------------------------------------------------------------*
    2758                            .dwcfi  cfa_offset, 0
    2759 000005e8 B508              PUSH      {A4, LR}              ; [DPU_3_PIPE]  ; [ORIG 16-BIT INS]
    2760                            .dwcfi  cfa_offset, 8
    2761                            .dwcfi  save_reg_to_mem, 14, -4
    2762                            .dwcfi  save_reg_to_mem, 3, -8
    2763                    $C$DW$125       .dwtag  DW_TAG_variable, DW_AT_name("try")
    2764                            .dwattr $C$DW$125, DW_AT_TI_symbol_name("try")
    2765                            .dwattr $C$DW$125, DW_AT_type(*$C$DW$T$10)
    2766                            .dwattr $C$DW$125, DW_AT_location[DW_OP_breg13 0]
    2767                            .dwpsn  file "../esp8266.c",line 407,column 10,is_stmt,isa 1
    2768                    ;----------------------------------------------------------------------
    2769                    ; 407 | int try=MAXTRY;                                                        
    2770                    ;----------------------------------------------------------------------
    2771 000005ea 200A              MOVS      A1, #10               ; [DPU_3_PIPE] |407|  ; [ORIG 16-BIT INS]
    2772 000005ec 9000              STR       A1, [SP, #0]          ; [DPU_3_PIPE] |407|  ; [ORIG 16-BIT INS]
    2773                            .dwpsn  file "../esp8266.c",line 408,column 3,is_stmt,isa 1
    2774                    ;----------------------------------------------------------------------
    2775                    ; 408 | strcpy(SearchString, "OK");                                            
    2776                    ;----------------------------------------------------------------------
    2777 000005ee 4863              LDR       A1, $C$CON30          ; [DPU_3_PIPE] |408|  ; [ORIG 16-BIT INS]
    2778 000005f0 A16A              ADR       A2, $C$SL16           ; [DPU_3_PIPE] |408|  ; [ORIG 16-BIT INS]
    2779                    $C$DW$126       .dwtag  DW_TAG_TI_branch
    2780                            .dwattr $C$DW$126, DW_AT_low_pc(0x00)
    2781                            .dwattr $C$DW$126, DW_AT_name("strcpy")
    2782                            .dwattr $C$DW$126, DW_AT_TI_call
    2783 000005f2 FFFEF7FF!         BL        strcpy                ; [DPU_3_PIPE] |408|  ; [KEEP 32-BIT INS]
    2784                            ; CALL OCCURS {strcpy }          ; [] |408| 
    2785                            .dwpsn  file "../esp8266.c",line 409,column 3,is_stmt,isa 1
    2786                    ;----------------------------------------------------------------------
    2787                    ; 409 | SearchLooking = true;                                                  
    2788                    ;----------------------------------------------------------------------
    2789 000005f6 4939              LDR       A2, $C$CON27          ; [DPU_3_PIPE] |409|  ; [ORIG 16-BIT INS]
    2790 000005f8 2001              MOVS      A1, #1                ; [DPU_3_PIPE] |409|  ; [ORIG 16-BIT INS]
    2791 000005fa 7008              STRB      A1, [A2, #0]          ; [DPU_3_PIPE] |409|  ; [ORIG 16-BIT INS]
    2792                            .dwpsn  file "../esp8266.c",line 410,column 3,is_stmt,isa 1
    2793                    ;----------------------------------------------------------------------
    2794                    ; 410 | SearchFound = false;                                                   
    2795                    ;----------------------------------------------------------------------
    2796 000005fc 496E              LDR       A2, $C$CON33          ; [DPU_3_PIPE] |410|  ; [ORIG 16-BIT INS]
    2797 000005fe 2000              MOVS      A1, #0                ; [DPU_3_PIPE] |410|  ; [ORIG 16-BIT INS]
    2798 00000600 7008              STRB      A1, [A2, #0]          ; [DPU_3_PIPE] |410|  ; [ORIG 16-BIT INS]
    2799                            .dwpsn  file "../esp8266.c",line 411,column 3,is_stmt,isa 1
    2800                    ;----------------------------------------------------------------------
    2801                    ; 411 | while(try){                                                            
    2802                    ;----------------------------------------------------------------------
TI ARM Assembler PC v5.2.4 Thu Sep 17 23:20:49 2015

Tools Copyright (c) 1996-2015 Texas Instruments Incorporated
esp8266.asm                                                          PAGE   59

    2803 00000602 9800              LDR       A1, [SP, #0]          ; [DPU_3_PIPE] |411|  ; [ORIG 16-BIT INS]
    2804 00000604 B1B8              CBZ       A1, ||$C$L47||        ; []  ; [ORIG 16-BIT INS]
    2805                            ; BRANCHCC OCCURS {||$C$L47||}   ; [] |411| 
    2806                    ;* --------------------------------------------------------------------------*
    2807                    ;*   BEGIN LOOP ||$C$L45||
    2808                    ;*
    2809                    ;*   Loop source line                : 411
    2810                    ;*   Loop closing brace source line  : 417
    2811                    ;*   Known Minimum Trip Count        : 1
    2812                    ;*   Known Maximum Trip Count        : 4294967295
    2813                    ;*   Known Max Trip Count Factor     : 1
    2814                    ;* --------------------------------------------------------------------------*
    2815 00000606           ||$C$L45||:    
    2816                            .dwpsn  file "../esp8266.c",line 412,column 5,is_stmt,isa 1
    2817                    ;----------------------------------------------------------------------
    2818                    ; 412 | sprintf((char*)ESP8266_TXBuffer, "AT+CIPSERVER=0,%d\r\n", ESP8266_Serve
    2819                    ;     | rPort);                                                                
    2820                    ;----------------------------------------------------------------------
    2821 00000606 486B              LDR       A1, $C$CON32          ; [DPU_3_PIPE] |412|  ; [ORIG 16-BIT INS]
    2822 00000608 8802              LDRH      A3, [A1, #0]          ; [DPU_3_PIPE] |412|  ; [ORIG 16-BIT INS]
    2823 0000060a 485B              LDR       A1, $C$CON29          ; [DPU_3_PIPE] |412|  ; [ORIG 16-BIT INS]
    2824 0000060c A1A1              ADR       A2, $C$SL20           ; [DPU_3_PIPE] |412|  ; [ORIG 16-BIT INS]
    2825                    $C$DW$127       .dwtag  DW_TAG_TI_branch
    2826                            .dwattr $C$DW$127, DW_AT_low_pc(0x00)
    2827                            .dwattr $C$DW$127, DW_AT_name("sprintf")
    2828                            .dwattr $C$DW$127, DW_AT_TI_call
    2829 0000060e FFFEF7FF!         BL        sprintf               ; [DPU_3_PIPE] |412|  ; [KEEP 32-BIT INS]
    2830                            ; CALL OCCURS {sprintf }         ; [] |412| 
    2831                            .dwpsn  file "../esp8266.c",line 413,column 5,is_stmt,isa 1
    2832                    ;----------------------------------------------------------------------
    2833                    ; 413 | ESP8266SendCommand((const char*)ESP8266_TXBuffer);                     
    2834                    ;----------------------------------------------------------------------
    2835 00000612 4859              LDR       A1, $C$CON29          ; [DPU_3_PIPE] |413|  ; [ORIG 16-BIT INS]
    2836                    $C$DW$128       .dwtag  DW_TAG_TI_branch
    2837                            .dwattr $C$DW$128, DW_AT_low_pc(0x00)
    2838                            .dwattr $C$DW$128, DW_AT_name("ESP8266SendCommand")
    2839                            .dwattr $C$DW$128, DW_AT_TI_call
    2840 00000614 FE0AF7FF          BL        ESP8266SendCommand    ; [DPU_3_PIPE] |413|  ; [KEEP 32-BIT INS]
    2841                            ; CALL OCCURS {ESP8266SendCommand }  ; [] |413| 
    2842                            .dwpsn  file "../esp8266.c",line 414,column 5,is_stmt,isa 1
    2843                    ;----------------------------------------------------------------------
    2844                    ; 414 | DelayMsSearching(4000);                                                
    2845                    ;----------------------------------------------------------------------
    2846 00000618 607AF44F          MOV       A1, #4000             ; [DPU_3_PIPE] |414|  ; [KEEP 32-BIT INS]
    2847                    $C$DW$129       .dwtag  DW_TAG_TI_branch
    2848                            .dwattr $C$DW$129, DW_AT_low_pc(0x00)
    2849                            .dwattr $C$DW$129, DW_AT_name("DelayMsSearching")
    2850                            .dwattr $C$DW$129, DW_AT_TI_call
    2851 0000061c FE36F7FF          BL        DelayMsSearching      ; [DPU_3_PIPE] |414|  ; [KEEP 32-BIT INS]
    2852                            ; CALL OCCURS {DelayMsSearching }  ; [] |414| 
    2853                            .dwpsn  file "../esp8266.c",line 415,column 5,is_stmt,isa 1
    2854                    ;----------------------------------------------------------------------
    2855                    ; 415 | if(SearchFound) return 1; // success                                   
    2856                    ;----------------------------------------------------------------------
    2857 00000620 4865              LDR       A1, $C$CON33          ; [DPU_3_PIPE] |415|  ; [ORIG 16-BIT INS]
TI ARM Assembler PC v5.2.4 Thu Sep 17 23:20:49 2015

Tools Copyright (c) 1996-2015 Texas Instruments Incorporated
esp8266.asm                                                          PAGE   60

    2858 00000622 7800              LDRB      A1, [A1, #0]          ; [DPU_3_PIPE] |415|  ; [ORIG 16-BIT INS]
    2859 00000624 B108              CBZ       A1, ||$C$L46||        ; []  ; [ORIG 16-BIT INS]
    2860                            ; BRANCHCC OCCURS {||$C$L46||}   ; [] |415| 
    2861                    ;* --------------------------------------------------------------------------*
    2862                            .dwpsn  file "../esp8266.c",line 415,column 21,is_stmt,isa 1
    2863 00000626 2001              MOVS      A1, #1                ; [DPU_3_PIPE] |415|  ; [ORIG 16-BIT INS]
    2864 00000628 E006              B         ||$C$L48||            ; [DPU_3_PIPE] |415|  ; [ORIG 16-BIT INS]
    2865                            ; BRANCH OCCURS {||$C$L48||}     ; [] |415| 
    2866                    ;* --------------------------------------------------------------------------*
    2867 0000062a           ||$C$L46||:    
    2868                            .dwpsn  file "../esp8266.c",line 416,column 5,is_stmt,isa 1
    2869                    ;----------------------------------------------------------------------
    2870                    ; 416 | try--;                                                                 
    2871                    ;----------------------------------------------------------------------
    2872 0000062a 9800              LDR       A1, [SP, #0]          ; [DPU_3_PIPE] |416|  ; [ORIG 16-BIT INS]
    2873 0000062c 1E40              SUBS      A1, A1, #1            ; [DPU_3_PIPE] |416|  ; [ORIG 16-BIT INS]
    2874 0000062e 9000              STR       A1, [SP, #0]          ; [DPU_3_PIPE] |416|  ; [ORIG 16-BIT INS]
    2875                            .dwpsn  file "../esp8266.c",line 411,column 3,is_stmt,isa 1
    2876 00000630 9800              LDR       A1, [SP, #0]          ; [DPU_3_PIPE] |411|  ; [ORIG 16-BIT INS]
    2877 00000632 2800              CMP       A1, #0                ; [DPU_3_PIPE] |411|  ; [ORIG 16-BIT INS]
    2878 00000634 D1E7              BNE       ||$C$L45||            ; [DPU_3_PIPE] |411|  ; [ORIG 16-BIT INS]
    2879                            ; BRANCHCC OCCURS {||$C$L45||}   ; [] |411| 
    2880                    ;* --------------------------------------------------------------------------*
    2881 00000636           ||$C$L47||:    
    2882                            .dwpsn  file "../esp8266.c",line 418,column 3,is_stmt,isa 1
    2883                    ;----------------------------------------------------------------------
    2884                    ; 418 | return 0; // fail                                                      
    2885                    ;----------------------------------------------------------------------
    2886 00000636 2000              MOVS      A1, #0                ; [DPU_3_PIPE] |418|  ; [ORIG 16-BIT INS]
    2887                    ;* --------------------------------------------------------------------------*
    2888 00000638           ||$C$L48||:    
    2889                            .dwpsn  file "../esp8266.c",line 419,column 1,is_stmt,isa 1
    2890                    $C$DW$130       .dwtag  DW_TAG_TI_branch
    2891                            .dwattr $C$DW$130, DW_AT_low_pc(0x00)
    2892                            .dwattr $C$DW$130, DW_AT_TI_return
    2893 00000638 BD08              POP       {A4, PC}              ; [DPU_3_PIPE]  ; [ORIG 16-BIT INS]
    2894                            .dwcfi  cfa_offset, 0
    2895                            ; BRANCH OCCURS                  ; [] 
    2896                            .dwattr $C$DW$124, DW_AT_TI_end_file("../esp8266.c")
    2897                            .dwattr $C$DW$124, DW_AT_TI_end_line(0x1a3)
    2898                            .dwattr $C$DW$124, DW_AT_TI_end_column(0x01)
    2899                            .dwendentry
    2900                            .dwendtag $C$DW$124
    2901                    
    2902 0000063a                   .sect   ".text"
    2903                            .clink
    2904                            .thumbfunc ESP8266_JoinAccessPoint
    2905 0000063a                   .thumb
    2906                            .global ESP8266_JoinAccessPoint
    2907                    
    2908                    $C$DW$131       .dwtag  DW_TAG_subprogram, DW_AT_name("ESP8266_JoinAccessPoint")
    2909                            .dwattr $C$DW$131, DW_AT_low_pc(ESP8266_JoinAccessPoint)
    2910                            .dwattr $C$DW$131, DW_AT_high_pc(0x00)
    2911                            .dwattr $C$DW$131, DW_AT_TI_symbol_name("ESP8266_JoinAccessPoint")
    2912                            .dwattr $C$DW$131, DW_AT_external
TI ARM Assembler PC v5.2.4 Thu Sep 17 23:20:49 2015

Tools Copyright (c) 1996-2015 Texas Instruments Incorporated
esp8266.asm                                                          PAGE   61

    2913                            .dwattr $C$DW$131, DW_AT_type(*$C$DW$T$10)
    2914                            .dwattr $C$DW$131, DW_AT_TI_begin_file("../esp8266.c")
    2915                            .dwattr $C$DW$131, DW_AT_TI_begin_line(0x1a9)
    2916                            .dwattr $C$DW$131, DW_AT_TI_begin_column(0x05)
    2917                            .dwattr $C$DW$131, DW_AT_decl_file("../esp8266.c")
    2918                            .dwattr $C$DW$131, DW_AT_decl_line(0x1a9)
    2919                            .dwattr $C$DW$131, DW_AT_decl_column(0x05)
    2920                            .dwattr $C$DW$131, DW_AT_TI_max_frame_size(0x10)
    2921                            .dwpsn  file "../esp8266.c",line 425,column 68,is_stmt,address ESP8266_JoinAccessPoint,isa 1
    2922                    
    2923                            .dwfde $C$DW$CIE, ESP8266_JoinAccessPoint
    2924                    $C$DW$132       .dwtag  DW_TAG_formal_parameter, DW_AT_name("ssid")
    2925                            .dwattr $C$DW$132, DW_AT_TI_symbol_name("ssid")
    2926                            .dwattr $C$DW$132, DW_AT_type(*$C$DW$T$36)
    2927                            .dwattr $C$DW$132, DW_AT_location[DW_OP_reg0]
    2928                    $C$DW$133       .dwtag  DW_TAG_formal_parameter, DW_AT_name("password")
    2929                            .dwattr $C$DW$133, DW_AT_TI_symbol_name("password")
    2930                            .dwattr $C$DW$133, DW_AT_type(*$C$DW$T$36)
    2931                            .dwattr $C$DW$133, DW_AT_location[DW_OP_reg1]
    2932                    
    2933                    ;*****************************************************************************
    2934                    ;* FUNCTION NAME: ESP8266_JoinAccessPoint                                    *
    2935                    ;*                                                                           *
    2936                    ;*   Regs Modified     : A1,A2,A3,A4,V9,SP,LR,SR,D0,D0_hi,D1,D1_hi,D2,D2_hi, *
    2937                    ;*                           D3,D3_hi,D4,D4_hi,D5,D5_hi,D6,D6_hi,D7,D7_hi,   *
    2938                    ;*                           FPEXC,FPSCR                                     *
    2939                    ;*   Regs Used         : A1,A2,A3,A4,V9,SP,LR,SR,D0,D0_hi,D1,D1_hi,D2,D2_hi, *
    2940                    ;*                           D3,D3_hi,D4,D4_hi,D5,D5_hi,D6,D6_hi,D7,D7_hi,   *
    2941                    ;*                           FPEXC,FPSCR                                     *
    2942                    ;*   Local Frame Size  : 0 Args + 12 Auto + 4 Save = 16 byte                 *
    2943                    ;*****************************************************************************
    2944 0000063a           ESP8266_JoinAccessPoint:
    2945                    ;* --------------------------------------------------------------------------*
    2946                            .dwcfi  cfa_offset, 0
    2947 0000063a B50E              PUSH      {A2, A3, A4, LR}      ; [DPU_3_PIPE]  ; [ORIG 16-BIT INS]
    2948                            .dwcfi  cfa_offset, 16
    2949                            .dwcfi  save_reg_to_mem, 14, -4
    2950                            .dwcfi  save_reg_to_mem, 3, -8
    2951                            .dwcfi  save_reg_to_mem, 2, -12
    2952                            .dwcfi  save_reg_to_mem, 1, -16
    2953                    $C$DW$134       .dwtag  DW_TAG_variable, DW_AT_name("ssid")
    2954                            .dwattr $C$DW$134, DW_AT_TI_symbol_name("ssid")
    2955                            .dwattr $C$DW$134, DW_AT_type(*$C$DW$T$36)
    2956                            .dwattr $C$DW$134, DW_AT_location[DW_OP_breg13 0]
    2957                    $C$DW$135       .dwtag  DW_TAG_variable, DW_AT_name("password")
    2958                            .dwattr $C$DW$135, DW_AT_TI_symbol_name("password")
    2959                            .dwattr $C$DW$135, DW_AT_type(*$C$DW$T$36)
    2960                            .dwattr $C$DW$135, DW_AT_location[DW_OP_breg13 4]
    2961                    $C$DW$136       .dwtag  DW_TAG_variable, DW_AT_name("try")
    2962                            .dwattr $C$DW$136, DW_AT_TI_symbol_name("try")
    2963                            .dwattr $C$DW$136, DW_AT_type(*$C$DW$T$10)
    2964                            .dwattr $C$DW$136, DW_AT_location[DW_OP_breg13 8]
    2965                    ;----------------------------------------------------------------------
    2966                    ; 425 | int ESP8266_JoinAccessPoint(const char* ssid, const char* password){   
    2967                    ;----------------------------------------------------------------------
TI ARM Assembler PC v5.2.4 Thu Sep 17 23:20:49 2015

Tools Copyright (c) 1996-2015 Texas Instruments Incorporated
esp8266.asm                                                          PAGE   62

    2968 0000063c 9101              STR       A2, [SP, #4]          ; [DPU_3_PIPE] |425|  ; [ORIG 16-BIT INS]
    2969 0000063e 9000              STR       A1, [SP, #0]          ; [DPU_3_PIPE] |425|  ; [ORIG 16-BIT INS]
    2970                            .dwpsn  file "../esp8266.c",line 426,column 10,is_stmt,isa 1
    2971                    ;----------------------------------------------------------------------
    2972                    ; 426 | int try=MAXTRY;                                                        
    2973                    ;----------------------------------------------------------------------
    2974 00000640 200A              MOVS      A1, #10               ; [DPU_3_PIPE] |426|  ; [ORIG 16-BIT INS]
    2975 00000642 9002              STR       A1, [SP, #8]          ; [DPU_3_PIPE] |426|  ; [ORIG 16-BIT INS]
    2976                            .dwpsn  file "../esp8266.c",line 427,column 3,is_stmt,isa 1
    2977                    ;----------------------------------------------------------------------
    2978                    ; 427 | strcpy(SearchString, "OK");                                            
    2979                    ;----------------------------------------------------------------------
    2980 00000644 484D              LDR       A1, $C$CON30          ; [DPU_3_PIPE] |427|  ; [ORIG 16-BIT INS]
    2981 00000646 A155              ADR       A2, $C$SL16           ; [DPU_3_PIPE] |427|  ; [ORIG 16-BIT INS]
    2982                    $C$DW$137       .dwtag  DW_TAG_TI_branch
    2983                            .dwattr $C$DW$137, DW_AT_low_pc(0x00)
    2984                            .dwattr $C$DW$137, DW_AT_name("strcpy")
    2985                            .dwattr $C$DW$137, DW_AT_TI_call
    2986 00000648 FFFEF7FF!         BL        strcpy                ; [DPU_3_PIPE] |427|  ; [KEEP 32-BIT INS]
    2987                            ; CALL OCCURS {strcpy }          ; [] |427| 
    2988                            .dwpsn  file "../esp8266.c",line 428,column 3,is_stmt,isa 1
    2989                    ;----------------------------------------------------------------------
    2990                    ; 428 | SearchLooking = true;                                                  
    2991                    ;----------------------------------------------------------------------
    2992 0000064c 4923              LDR       A2, $C$CON27          ; [DPU_3_PIPE] |428|  ; [ORIG 16-BIT INS]
    2993 0000064e 2001              MOVS      A1, #1                ; [DPU_3_PIPE] |428|  ; [ORIG 16-BIT INS]
    2994 00000650 7008              STRB      A1, [A2, #0]          ; [DPU_3_PIPE] |428|  ; [ORIG 16-BIT INS]
    2995                            .dwpsn  file "../esp8266.c",line 429,column 3,is_stmt,isa 1
    2996                    ;----------------------------------------------------------------------
    2997                    ; 429 | SearchFound = false;                                                   
    2998                    ;----------------------------------------------------------------------
    2999 00000652 4959              LDR       A2, $C$CON33          ; [DPU_3_PIPE] |429|  ; [ORIG 16-BIT INS]
    3000 00000654 2000              MOVS      A1, #0                ; [DPU_3_PIPE] |429|  ; [ORIG 16-BIT INS]
    3001 00000656 7008              STRB      A1, [A2, #0]          ; [DPU_3_PIPE] |429|  ; [ORIG 16-BIT INS]
    3002                            .dwpsn  file "../esp8266.c",line 430,column 3,is_stmt,isa 1
    3003                    ;----------------------------------------------------------------------
    3004                    ; 430 | while(try){                                                            
    3005                    ;----------------------------------------------------------------------
    3006 00000658 9802              LDR       A1, [SP, #8]          ; [DPU_3_PIPE] |430|  ; [ORIG 16-BIT INS]
    3007 0000065a B1B8              CBZ       A1, ||$C$L51||        ; []  ; [ORIG 16-BIT INS]
    3008                            ; BRANCHCC OCCURS {||$C$L51||}   ; [] |430| 
    3009                    ;* --------------------------------------------------------------------------*
    3010                    ;*   BEGIN LOOP ||$C$L49||
    3011                    ;*
    3012                    ;*   Loop source line                : 430
    3013                    ;*   Loop closing brace source line  : 436
    3014                    ;*   Known Minimum Trip Count        : 1
    3015                    ;*   Known Maximum Trip Count        : 4294967295
    3016                    ;*   Known Max Trip Count Factor     : 1
    3017                    ;* --------------------------------------------------------------------------*
    3018 0000065c           ||$C$L49||:    
    3019                            .dwpsn  file "../esp8266.c",line 431,column 5,is_stmt,isa 1
    3020                    ;----------------------------------------------------------------------
    3021                    ; 431 | sprintf((char*)ESP8266_TXBuffer, "AT+CWJAP=\"%s\",\"%s\"\r\n", ssid, pa
    3022                    ;     | ssword);                                                               
TI ARM Assembler PC v5.2.4 Thu Sep 17 23:20:49 2015

Tools Copyright (c) 1996-2015 Texas Instruments Incorporated
esp8266.asm                                                          PAGE   63

    3023                    ;----------------------------------------------------------------------
    3024 0000065c 4846              LDR       A1, $C$CON29          ; [DPU_3_PIPE] |431|  ; [ORIG 16-BIT INS]
    3025 0000065e 9A00              LDR       A3, [SP, #0]          ; [DPU_3_PIPE] |431|  ; [ORIG 16-BIT INS]
    3026 00000660 9B01              LDR       A4, [SP, #4]          ; [DPU_3_PIPE] |431|  ; [ORIG 16-BIT INS]
    3027 00000662 A1A3              ADR       A2, $C$SL21           ; [DPU_3_PIPE] |431|  ; [ORIG 16-BIT INS]
    3028                    $C$DW$138       .dwtag  DW_TAG_TI_branch
    3029                            .dwattr $C$DW$138, DW_AT_low_pc(0x00)
    3030                            .dwattr $C$DW$138, DW_AT_name("sprintf")
    3031                            .dwattr $C$DW$138, DW_AT_TI_call
    3032 00000664 FFFEF7FF!         BL        sprintf               ; [DPU_3_PIPE] |431|  ; [KEEP 32-BIT INS]
    3033                            ; CALL OCCURS {sprintf }         ; [] |431| 
    3034                            .dwpsn  file "../esp8266.c",line 432,column 5,is_stmt,isa 1
    3035                    ;----------------------------------------------------------------------
    3036                    ; 432 | ESP8266SendCommand((const char*)ESP8266_TXBuffer);                     
    3037                    ;----------------------------------------------------------------------
    3038 00000668 4843              LDR       A1, $C$CON29          ; [DPU_3_PIPE] |432|  ; [ORIG 16-BIT INS]
    3039                    $C$DW$139       .dwtag  DW_TAG_TI_branch
    3040                            .dwattr $C$DW$139, DW_AT_low_pc(0x00)
    3041                            .dwattr $C$DW$139, DW_AT_name("ESP8266SendCommand")
    3042                            .dwattr $C$DW$139, DW_AT_TI_call
    3043 0000066a FDDFF7FF          BL        ESP8266SendCommand    ; [DPU_3_PIPE] |432|  ; [KEEP 32-BIT INS]
    3044                            ; CALL OCCURS {ESP8266SendCommand }  ; [] |432| 
    3045                            .dwpsn  file "../esp8266.c",line 433,column 5,is_stmt,isa 1
    3046                    ;----------------------------------------------------------------------
    3047                    ; 433 | DelayMsSearching(4000);                                                
    3048                    ;----------------------------------------------------------------------
    3049 0000066e 607AF44F          MOV       A1, #4000             ; [DPU_3_PIPE] |433|  ; [KEEP 32-BIT INS]
    3050                    $C$DW$140       .dwtag  DW_TAG_TI_branch
    3051                            .dwattr $C$DW$140, DW_AT_low_pc(0x00)
    3052                            .dwattr $C$DW$140, DW_AT_name("DelayMsSearching")
    3053                            .dwattr $C$DW$140, DW_AT_TI_call
    3054 00000672 FE0BF7FF          BL        DelayMsSearching      ; [DPU_3_PIPE] |433|  ; [KEEP 32-BIT INS]
    3055                            ; CALL OCCURS {DelayMsSearching }  ; [] |433| 
    3056                            .dwpsn  file "../esp8266.c",line 434,column 5,is_stmt,isa 1
    3057                    ;----------------------------------------------------------------------
    3058                    ; 434 | if(SearchFound) return 1; // success                                   
    3059                    ;----------------------------------------------------------------------
    3060 00000676 4850              LDR       A1, $C$CON33          ; [DPU_3_PIPE] |434|  ; [ORIG 16-BIT INS]
    3061 00000678 7800              LDRB      A1, [A1, #0]          ; [DPU_3_PIPE] |434|  ; [ORIG 16-BIT INS]
    3062 0000067a B108              CBZ       A1, ||$C$L50||        ; []  ; [ORIG 16-BIT INS]
    3063                            ; BRANCHCC OCCURS {||$C$L50||}   ; [] |434| 
    3064                    ;* --------------------------------------------------------------------------*
    3065                            .dwpsn  file "../esp8266.c",line 434,column 21,is_stmt,isa 1
    3066 0000067c 2001              MOVS      A1, #1                ; [DPU_3_PIPE] |434|  ; [ORIG 16-BIT INS]
    3067 0000067e E006              B         ||$C$L52||            ; [DPU_3_PIPE] |434|  ; [ORIG 16-BIT INS]
    3068                            ; BRANCH OCCURS {||$C$L52||}     ; [] |434| 
    3069                    ;* --------------------------------------------------------------------------*
    3070 00000680           ||$C$L50||:    
    3071                            .dwpsn  file "../esp8266.c",line 435,column 5,is_stmt,isa 1
    3072                    ;----------------------------------------------------------------------
    3073                    ; 435 | try--;                                                                 
    3074                    ;----------------------------------------------------------------------
    3075 00000680 9802              LDR       A1, [SP, #8]          ; [DPU_3_PIPE] |435|  ; [ORIG 16-BIT INS]
    3076 00000682 1E40              SUBS      A1, A1, #1            ; [DPU_3_PIPE] |435|  ; [ORIG 16-BIT INS]
    3077 00000684 9002              STR       A1, [SP, #8]          ; [DPU_3_PIPE] |435|  ; [ORIG 16-BIT INS]
TI ARM Assembler PC v5.2.4 Thu Sep 17 23:20:49 2015

Tools Copyright (c) 1996-2015 Texas Instruments Incorporated
esp8266.asm                                                          PAGE   64

    3078                            .dwpsn  file "../esp8266.c",line 430,column 3,is_stmt,isa 1
    3079 00000686 9802              LDR       A1, [SP, #8]          ; [DPU_3_PIPE] |430|  ; [ORIG 16-BIT INS]
    3080 00000688 2800              CMP       A1, #0                ; [DPU_3_PIPE] |430|  ; [ORIG 16-BIT INS]
    3081 0000068a D1E7              BNE       ||$C$L49||            ; [DPU_3_PIPE] |430|  ; [ORIG 16-BIT INS]
    3082                            ; BRANCHCC OCCURS {||$C$L49||}   ; [] |430| 
    3083                    ;* --------------------------------------------------------------------------*
    3084 0000068c           ||$C$L51||:    
    3085                            .dwpsn  file "../esp8266.c",line 437,column 3,is_stmt,isa 1
    3086                    ;----------------------------------------------------------------------
    3087                    ; 437 | return 0; // fail                                                      
    3088                    ;----------------------------------------------------------------------
    3089 0000068c 2000              MOVS      A1, #0                ; [DPU_3_PIPE] |437|  ; [ORIG 16-BIT INS]
    3090                    ;* --------------------------------------------------------------------------*
    3091 0000068e           ||$C$L52||:    
    3092                            .dwpsn  file "../esp8266.c",line 438,column 1,is_stmt,isa 1
    3093                    $C$DW$141       .dwtag  DW_TAG_TI_branch
    3094                            .dwattr $C$DW$141, DW_AT_low_pc(0x00)
    3095                            .dwattr $C$DW$141, DW_AT_TI_return
    3096 0000068e BD0E              POP       {A2, A3, A4, PC}      ; [DPU_3_PIPE]  ; [ORIG 16-BIT INS]
    3097                            .dwcfi  cfa_offset, 0
    3098                            ; BRANCH OCCURS                  ; [] 
    3099                            .dwattr $C$DW$131, DW_AT_TI_end_file("../esp8266.c")
    3100                            .dwattr $C$DW$131, DW_AT_TI_end_line(0x1b6)
    3101                            .dwattr $C$DW$131, DW_AT_TI_end_column(0x01)
    3102                            .dwendentry
    3103                            .dwendtag $C$DW$131
    3104                    
    3105                    ;******************************************************************************
    3106                    ;* CONSTANT TABLE                                                             *
    3107                    ;******************************************************************************
    3108 00000690                   .sect   ".text"
    3109                            .align  4
    3110 00000690 400053FC  ||$C$CON28||:   .bits   1073763324,32
    3111 00000694                   .sect   ".text"
    3112                            .clink
    3113                            .thumbfunc ESP8266_ListAccessPoints
    3114 00000694                   .thumb
    3115                            .global ESP8266_ListAccessPoints
    3116                    
    3117                    $C$DW$142       .dwtag  DW_TAG_subprogram, DW_AT_name("ESP8266_ListAccessPoints")
    3118                            .dwattr $C$DW$142, DW_AT_low_pc(ESP8266_ListAccessPoints)
    3119                            .dwattr $C$DW$142, DW_AT_high_pc(0x00)
    3120                            .dwattr $C$DW$142, DW_AT_TI_symbol_name("ESP8266_ListAccessPoints")
    3121                            .dwattr $C$DW$142, DW_AT_external
    3122                            .dwattr $C$DW$142, DW_AT_type(*$C$DW$T$10)
    3123                            .dwattr $C$DW$142, DW_AT_TI_begin_file("../esp8266.c")
    3124                            .dwattr $C$DW$142, DW_AT_TI_begin_line(0x1be)
    3125                            .dwattr $C$DW$142, DW_AT_TI_begin_column(0x05)
    3126                            .dwattr $C$DW$142, DW_AT_decl_file("../esp8266.c")
    3127                            .dwattr $C$DW$142, DW_AT_decl_line(0x1be)
    3128                            .dwattr $C$DW$142, DW_AT_decl_column(0x05)
    3129                            .dwattr $C$DW$142, DW_AT_TI_max_frame_size(0x08)
    3130                            .dwpsn  file "../esp8266.c",line 446,column 35,is_stmt,address ESP8266_ListAccessPoints,isa 1
    3131                    
    3132                            .dwfde $C$DW$CIE, ESP8266_ListAccessPoints
TI ARM Assembler PC v5.2.4 Thu Sep 17 23:20:49 2015

Tools Copyright (c) 1996-2015 Texas Instruments Incorporated
esp8266.asm                                                          PAGE   65

    3133                    ;----------------------------------------------------------------------
    3134                    ; 446 | int ESP8266_ListAccessPoints(void){                                    
    3135                    ;----------------------------------------------------------------------
    3136                    
    3137                    ;*****************************************************************************
    3138                    ;* FUNCTION NAME: ESP8266_ListAccessPoints                                   *
    3139                    ;*                                                                           *
    3140                    ;*   Regs Modified     : A1,A2,A3,A4,V9,SP,LR,SR,D0,D0_hi,D1,D1_hi,D2,D2_hi, *
    3141                    ;*                           D3,D3_hi,D4,D4_hi,D5,D5_hi,D6,D6_hi,D7,D7_hi,   *
    3142                    ;*                           FPEXC,FPSCR                                     *
    3143                    ;*   Regs Used         : A1,A2,A3,A4,V9,SP,LR,SR,D0,D0_hi,D1,D1_hi,D2,D2_hi, *
    3144                    ;*                           D3,D3_hi,D4,D4_hi,D5,D5_hi,D6,D6_hi,D7,D7_hi,   *
    3145                    ;*                           FPEXC,FPSCR                                     *
    3146                    ;*   Local Frame Size  : 0 Args + 4 Auto + 4 Save = 8 byte                   *
    3147                    ;*****************************************************************************
    3148 00000694           ESP8266_ListAccessPoints:
    3149                    ;* --------------------------------------------------------------------------*
    3150                            .dwcfi  cfa_offset, 0
    3151 00000694 B508              PUSH      {A4, LR}              ; [DPU_3_PIPE]  ; [ORIG 16-BIT INS]
    3152                            .dwcfi  cfa_offset, 8
    3153                            .dwcfi  save_reg_to_mem, 14, -4
    3154                            .dwcfi  save_reg_to_mem, 3, -8
    3155                    $C$DW$143       .dwtag  DW_TAG_variable, DW_AT_name("try")
    3156                            .dwattr $C$DW$143, DW_AT_TI_symbol_name("try")
    3157                            .dwattr $C$DW$143, DW_AT_type(*$C$DW$T$10)
    3158                            .dwattr $C$DW$143, DW_AT_location[DW_OP_breg13 0]
    3159                            .dwpsn  file "../esp8266.c",line 447,column 10,is_stmt,isa 1
    3160                    ;----------------------------------------------------------------------
    3161                    ; 447 | int try=MAXTRY;                                                        
    3162                    ;----------------------------------------------------------------------
    3163 00000696 200A              MOVS      A1, #10               ; [DPU_3_PIPE] |447|  ; [ORIG 16-BIT INS]
    3164 00000698 9000              STR       A1, [SP, #0]          ; [DPU_3_PIPE] |447|  ; [ORIG 16-BIT INS]
    3165                            .dwpsn  file "../esp8266.c",line 448,column 3,is_stmt,isa 1
    3166                    ;----------------------------------------------------------------------
    3167                    ; 448 | strcpy(SearchString, "OK");                                            
    3168                    ;----------------------------------------------------------------------
    3169 0000069a 4838              LDR       A1, $C$CON30          ; [DPU_3_PIPE] |448|  ; [ORIG 16-BIT INS]
    3170 0000069c A13F              ADR       A2, $C$SL16           ; [DPU_3_PIPE] |448|  ; [ORIG 16-BIT INS]
    3171                    $C$DW$144       .dwtag  DW_TAG_TI_branch
    3172                            .dwattr $C$DW$144, DW_AT_low_pc(0x00)
    3173                            .dwattr $C$DW$144, DW_AT_name("strcpy")
    3174                            .dwattr $C$DW$144, DW_AT_TI_call
    3175 0000069e FFFEF7FF!         BL        strcpy                ; [DPU_3_PIPE] |448|  ; [KEEP 32-BIT INS]
    3176                            ; CALL OCCURS {strcpy }          ; [] |448| 
    3177                            .dwpsn  file "../esp8266.c",line 449,column 3,is_stmt,isa 1
    3178                    ;----------------------------------------------------------------------
    3179                    ; 449 | SearchLooking = true;                                                  
    3180                    ;----------------------------------------------------------------------
    3181 000006a2 490E              LDR       A2, $C$CON27          ; [DPU_3_PIPE] |449|  ; [ORIG 16-BIT INS]
    3182 000006a4 2001              MOVS      A1, #1                ; [DPU_3_PIPE] |449|  ; [ORIG 16-BIT INS]
    3183 000006a6 7008              STRB      A1, [A2, #0]          ; [DPU_3_PIPE] |449|  ; [ORIG 16-BIT INS]
    3184                            .dwpsn  file "../esp8266.c",line 450,column 3,is_stmt,isa 1
    3185                    ;----------------------------------------------------------------------
    3186                    ; 450 | SearchFound = false;                                                   
    3187                    ;----------------------------------------------------------------------
TI ARM Assembler PC v5.2.4 Thu Sep 17 23:20:49 2015

Tools Copyright (c) 1996-2015 Texas Instruments Incorporated
esp8266.asm                                                          PAGE   66

    3188 000006a8 4943              LDR       A2, $C$CON33          ; [DPU_3_PIPE] |450|  ; [ORIG 16-BIT INS]
    3189 000006aa 2000              MOVS      A1, #0                ; [DPU_3_PIPE] |450|  ; [ORIG 16-BIT INS]
    3190 000006ac 7008              STRB      A1, [A2, #0]          ; [DPU_3_PIPE] |450|  ; [ORIG 16-BIT INS]
    3191                            .dwpsn  file "../esp8266.c",line 451,column 3,is_stmt,isa 1
    3192                    ;----------------------------------------------------------------------
    3193                    ; 451 | while(try){                                                            
    3194                    ;----------------------------------------------------------------------
    3195 000006ae 9800              LDR       A1, [SP, #0]          ; [DPU_3_PIPE] |451|  ; [ORIG 16-BIT INS]
    3196 000006b0 B188              CBZ       A1, ||$C$L55||        ; []  ; [ORIG 16-BIT INS]
    3197                            ; BRANCHCC OCCURS {||$C$L55||}   ; [] |451| 
    3198                    ;* --------------------------------------------------------------------------*
    3199                    ;*   BEGIN LOOP ||$C$L53||
    3200                    ;*
    3201                    ;*   Loop source line                : 451
    3202                    ;*   Loop closing brace source line  : 456
    3203                    ;*   Known Minimum Trip Count        : 1
    3204                    ;*   Known Maximum Trip Count        : 4294967295
    3205                    ;*   Known Max Trip Count Factor     : 1
    3206                    ;* --------------------------------------------------------------------------*
    3207 000006b2           ||$C$L53||:    
    3208                            .dwpsn  file "../esp8266.c",line 452,column 5,is_stmt,isa 1
    3209                    ;----------------------------------------------------------------------
    3210                    ; 452 | ESP8266SendCommand("AT+CWLAP\r\n");                                    
    3211                    ;----------------------------------------------------------------------
    3212 000006b2 A0B3              ADR       A1, $C$SL22           ; [DPU_3_PIPE] |452|  ; [ORIG 16-BIT INS]
    3213                    $C$DW$145       .dwtag  DW_TAG_TI_branch
    3214                            .dwattr $C$DW$145, DW_AT_low_pc(0x00)
    3215                            .dwattr $C$DW$145, DW_AT_name("ESP8266SendCommand")
    3216                            .dwattr $C$DW$145, DW_AT_TI_call
    3217 000006b4 FDBAF7FF          BL        ESP8266SendCommand    ; [DPU_3_PIPE] |452|  ; [KEEP 32-BIT INS]
    3218                            ; CALL OCCURS {ESP8266SendCommand }  ; [] |452| 
    3219                            .dwpsn  file "../esp8266.c",line 453,column 5,is_stmt,isa 1
    3220                    ;----------------------------------------------------------------------
    3221                    ; 453 | DelayMsSearching(8000);                                                
    3222                    ;----------------------------------------------------------------------
    3223 000006b8 50FAF44F          MOV       A1, #8000             ; [DPU_3_PIPE] |453|  ; [KEEP 32-BIT INS]
    3224                    $C$DW$146       .dwtag  DW_TAG_TI_branch
    3225                            .dwattr $C$DW$146, DW_AT_low_pc(0x00)
    3226                            .dwattr $C$DW$146, DW_AT_name("DelayMsSearching")
    3227                            .dwattr $C$DW$146, DW_AT_TI_call
    3228 000006bc FDE6F7FF          BL        DelayMsSearching      ; [DPU_3_PIPE] |453|  ; [KEEP 32-BIT INS]
    3229                            ; CALL OCCURS {DelayMsSearching }  ; [] |453| 
    3230                            .dwpsn  file "../esp8266.c",line 454,column 5,is_stmt,isa 1
    3231                    ;----------------------------------------------------------------------
    3232                    ; 454 | if(SearchFound) return 1; // success                                   
    3233                    ;----------------------------------------------------------------------
    3234 000006c0 483D              LDR       A1, $C$CON33          ; [DPU_3_PIPE] |454|  ; [ORIG 16-BIT INS]
    3235 000006c2 7800              LDRB      A1, [A1, #0]          ; [DPU_3_PIPE] |454|  ; [ORIG 16-BIT INS]
    3236 000006c4 B108              CBZ       A1, ||$C$L54||        ; []  ; [ORIG 16-BIT INS]
    3237                            ; BRANCHCC OCCURS {||$C$L54||}   ; [] |454| 
    3238                    ;* --------------------------------------------------------------------------*
    3239                            .dwpsn  file "../esp8266.c",line 454,column 21,is_stmt,isa 1
    3240 000006c6 2001              MOVS      A1, #1                ; [DPU_3_PIPE] |454|  ; [ORIG 16-BIT INS]
    3241 000006c8 E006              B         ||$C$L56||            ; [DPU_3_PIPE] |454|  ; [ORIG 16-BIT INS]
    3242                            ; BRANCH OCCURS {||$C$L56||}     ; [] |454| 
TI ARM Assembler PC v5.2.4 Thu Sep 17 23:20:49 2015

Tools Copyright (c) 1996-2015 Texas Instruments Incorporated
esp8266.asm                                                          PAGE   67

    3243                    ;* --------------------------------------------------------------------------*
    3244 000006ca           ||$C$L54||:    
    3245                            .dwpsn  file "../esp8266.c",line 455,column 5,is_stmt,isa 1
    3246                    ;----------------------------------------------------------------------
    3247                    ; 455 | try--;                                                                 
    3248                    ;----------------------------------------------------------------------
    3249 000006ca 9800              LDR       A1, [SP, #0]          ; [DPU_3_PIPE] |455|  ; [ORIG 16-BIT INS]
    3250 000006cc 1E40              SUBS      A1, A1, #1            ; [DPU_3_PIPE] |455|  ; [ORIG 16-BIT INS]
    3251 000006ce 9000              STR       A1, [SP, #0]          ; [DPU_3_PIPE] |455|  ; [ORIG 16-BIT INS]
    3252                            .dwpsn  file "../esp8266.c",line 451,column 3,is_stmt,isa 1
    3253 000006d0 9800              LDR       A1, [SP, #0]          ; [DPU_3_PIPE] |451|  ; [ORIG 16-BIT INS]
    3254 000006d2 2800              CMP       A1, #0                ; [DPU_3_PIPE] |451|  ; [ORIG 16-BIT INS]
    3255 000006d4 D1ED              BNE       ||$C$L53||            ; [DPU_3_PIPE] |451|  ; [ORIG 16-BIT INS]
    3256                            ; BRANCHCC OCCURS {||$C$L53||}   ; [] |451| 
    3257                    ;* --------------------------------------------------------------------------*
    3258 000006d6           ||$C$L55||:    
    3259                            .dwpsn  file "../esp8266.c",line 457,column 3,is_stmt,isa 1
    3260                    ;----------------------------------------------------------------------
    3261                    ; 457 | return 0; // fail                                                      
    3262                    ;----------------------------------------------------------------------
    3263 000006d6 2000              MOVS      A1, #0                ; [DPU_3_PIPE] |457|  ; [ORIG 16-BIT INS]
    3264                    ;* --------------------------------------------------------------------------*
    3265 000006d8           ||$C$L56||:    
    3266                            .dwpsn  file "../esp8266.c",line 458,column 1,is_stmt,isa 1
    3267                    $C$DW$147       .dwtag  DW_TAG_TI_branch
    3268                            .dwattr $C$DW$147, DW_AT_low_pc(0x00)
    3269                            .dwattr $C$DW$147, DW_AT_TI_return
    3270 000006d8 BD08              POP       {A4, PC}              ; [DPU_3_PIPE]  ; [ORIG 16-BIT INS]
    3271                            .dwcfi  cfa_offset, 0
    3272                            ; BRANCH OCCURS                  ; [] 
    3273                    ;******************************************************************************
    3274                    ;* CONSTANT TABLE                                                             *
    3275                    ;******************************************************************************
    3276 000006da                   .sect   ".text"
    3277                            .align  4
    3278 000006da 000046C0! ||$C$CON27||:   .bits   SearchLooking,32
         000006de 00000000 
    3279                            .dwattr $C$DW$142, DW_AT_TI_end_file("../esp8266.c")
    3280                            .dwattr $C$DW$142, DW_AT_TI_end_line(0x1ca)
    3281                            .dwattr $C$DW$142, DW_AT_TI_end_column(0x01)
    3282                            .dwendentry
    3283                            .dwendtag $C$DW$142
    3284                    
    3285 000006e0                   .sect   ".text"
    3286                            .clink
    3287                            .thumbfunc ESP8266_QuitAccessPoint
    3288 000006e0                   .thumb
    3289                            .global ESP8266_QuitAccessPoint
    3290                    
    3291                    $C$DW$148       .dwtag  DW_TAG_subprogram, DW_AT_name("ESP8266_QuitAccessPoint")
    3292                            .dwattr $C$DW$148, DW_AT_low_pc(ESP8266_QuitAccessPoint)
    3293                            .dwattr $C$DW$148, DW_AT_high_pc(0x00)
    3294                            .dwattr $C$DW$148, DW_AT_TI_symbol_name("ESP8266_QuitAccessPoint")
    3295                            .dwattr $C$DW$148, DW_AT_external
    3296                            .dwattr $C$DW$148, DW_AT_TI_begin_file("../esp8266.c")
TI ARM Assembler PC v5.2.4 Thu Sep 17 23:20:49 2015

Tools Copyright (c) 1996-2015 Texas Instruments Incorporated
esp8266.asm                                                          PAGE   68

    3297                            .dwattr $C$DW$148, DW_AT_TI_begin_line(0x1d2)
    3298                            .dwattr $C$DW$148, DW_AT_TI_begin_column(0x06)
    3299                            .dwattr $C$DW$148, DW_AT_decl_file("../esp8266.c")
    3300                            .dwattr $C$DW$148, DW_AT_decl_line(0x1d2)
    3301                            .dwattr $C$DW$148, DW_AT_decl_column(0x06)
    3302                            .dwattr $C$DW$148, DW_AT_TI_max_frame_size(0x08)
    3303                            .dwpsn  file "../esp8266.c",line 466,column 31,is_stmt,address ESP8266_QuitAccessPoint,isa 1
    3304                    
    3305                            .dwfde $C$DW$CIE, ESP8266_QuitAccessPoint
    3306                    ;----------------------------------------------------------------------
    3307                    ; 466 | void ESP8266_QuitAccessPoint(){                                        
    3308                    ;----------------------------------------------------------------------
    3309                    
    3310                    ;*****************************************************************************
    3311                    ;* FUNCTION NAME: ESP8266_QuitAccessPoint                                    *
    3312                    ;*                                                                           *
    3313                    ;*   Regs Modified     : A1,A2,A3,A4,V9,SP,LR,SR,D0,D0_hi,D1,D1_hi,D2,D2_hi, *
    3314                    ;*                           D3,D3_hi,D4,D4_hi,D5,D5_hi,D6,D6_hi,D7,D7_hi,   *
    3315                    ;*                           FPEXC,FPSCR                                     *
    3316                    ;*   Regs Used         : A1,A2,A3,A4,V9,SP,LR,SR,D0,D0_hi,D1,D1_hi,D2,D2_hi, *
    3317                    ;*                           D3,D3_hi,D4,D4_hi,D5,D5_hi,D6,D6_hi,D7,D7_hi,   *
    3318                    ;*                           FPEXC,FPSCR                                     *
    3319                    ;*   Local Frame Size  : 0 Args + 0 Auto + 4 Save = 4 byte                   *
    3320                    ;*****************************************************************************
    3321 000006e0           ESP8266_QuitAccessPoint:
    3322                    ;* --------------------------------------------------------------------------*
    3323                            .dwcfi  cfa_offset, 0
    3324 000006e0 B508              PUSH      {A4, LR}              ; [DPU_3_PIPE]  ; [ORIG 16-BIT INS]
    3325                            .dwcfi  cfa_offset, 8
    3326                            .dwcfi  save_reg_to_mem, 14, -4
    3327                            .dwcfi  save_reg_to_mem, 3, -8
    3328                            .dwpsn  file "../esp8266.c",line 467,column 3,is_stmt,isa 1
    3329                    ;----------------------------------------------------------------------
    3330                    ; 467 | ESP8266SendCommand("AT+CWQAP\r\n");                                    
    3331                    ;----------------------------------------------------------------------
    3332 000006e2 A0AA              ADR       A1, $C$SL23           ; [DPU_3_PIPE] |467|  ; [ORIG 16-BIT INS]
    3333                    $C$DW$149       .dwtag  DW_TAG_TI_branch
    3334                            .dwattr $C$DW$149, DW_AT_low_pc(0x00)
    3335                            .dwattr $C$DW$149, DW_AT_name("ESP8266SendCommand")
    3336                            .dwattr $C$DW$149, DW_AT_TI_call
    3337 000006e4 FDA2F7FF          BL        ESP8266SendCommand    ; [DPU_3_PIPE] |467|  ; [KEEP 32-BIT INS]
    3338                            ; CALL OCCURS {ESP8266SendCommand }  ; [] |467| 
    3339                            .dwpsn  file "../esp8266.c",line 468,column 1,is_stmt,isa 1
    3340                    $C$DW$150       .dwtag  DW_TAG_TI_branch
    3341                            .dwattr $C$DW$150, DW_AT_low_pc(0x00)
    3342                            .dwattr $C$DW$150, DW_AT_TI_return
    3343 000006e8 BD08              POP       {A4, PC}              ; [DPU_3_PIPE]  ; [ORIG 16-BIT INS]
    3344                            .dwcfi  cfa_offset, 0
    3345                            ; BRANCH OCCURS                  ; [] 
    3346                            .dwattr $C$DW$148, DW_AT_TI_end_file("../esp8266.c")
    3347                            .dwattr $C$DW$148, DW_AT_TI_end_line(0x1d4)
    3348                            .dwattr $C$DW$148, DW_AT_TI_end_column(0x01)
    3349                            .dwendentry
    3350                            .dwendtag $C$DW$148
    3351                    
TI ARM Assembler PC v5.2.4 Thu Sep 17 23:20:49 2015

Tools Copyright (c) 1996-2015 Texas Instruments Incorporated
esp8266.asm                                                          PAGE   69

    3352                    ;******************************************************************************
    3353                    ;* STRINGS                                                                    *
    3354                    ;******************************************************************************
    3355 000006ea                   .sect   ".text"
    3356                            .align  4
    3357 000006ec 53        ||$C$SL12||:    .string "System Ready",0
         000006ed 79       
         000006ee 73       
         000006ef 74       
         000006f0 65       
         000006f1 6D       
         000006f2 20       
         000006f3 52       
         000006f4 65       
         000006f5 61       
         000006f6 64       
         000006f7 79       
         000006f8 00       
    3358                            .align  4
    3359 000006fc 41        ||$C$SL13||:    .string "AT+RST",13,10,0
         000006fd 54       
         000006fe 2B       
         000006ff 52       
         00000700 53       
         00000701 54       
         00000702 0D       
         00000703 0A       
         00000704 00       
    3360 00000705                   .sect   ".text"
    3361                            .clink
    3362                            .thumbfunc ESP8266_ConfigureAccessPoint
    3363 00000706                   .thumb
    3364                            .global ESP8266_ConfigureAccessPoint
    3365                    
    3366                    $C$DW$151       .dwtag  DW_TAG_subprogram, DW_AT_name("ESP8266_ConfigureAccessPoint")
    3367                            .dwattr $C$DW$151, DW_AT_low_pc(ESP8266_ConfigureAccessPoint)
    3368                            .dwattr $C$DW$151, DW_AT_high_pc(0x00)
    3369                            .dwattr $C$DW$151, DW_AT_TI_symbol_name("ESP8266_ConfigureAccessPoint")
    3370                            .dwattr $C$DW$151, DW_AT_external
    3371                            .dwattr $C$DW$151, DW_AT_type(*$C$DW$T$10)
    3372                            .dwattr $C$DW$151, DW_AT_TI_begin_file("../esp8266.c")
    3373                            .dwattr $C$DW$151, DW_AT_TI_begin_line(0x1db)
    3374                            .dwattr $C$DW$151, DW_AT_TI_begin_column(0x05)
    3375                            .dwattr $C$DW$151, DW_AT_decl_file("../esp8266.c")
    3376                            .dwattr $C$DW$151, DW_AT_decl_line(0x1db)
    3377                            .dwattr $C$DW$151, DW_AT_decl_column(0x05)
    3378                            .dwattr $C$DW$151, DW_AT_TI_max_frame_size(0x20)
    3379                            .dwpsn  file "../esp8266.c",line 475,column 111,is_stmt,address ESP8266_ConfigureAccessPoint,i
    3380                    
    3381                            .dwfde $C$DW$CIE, ESP8266_ConfigureAccessPoint
    3382                    $C$DW$152       .dwtag  DW_TAG_formal_parameter, DW_AT_name("ssid")
    3383                            .dwattr $C$DW$152, DW_AT_TI_symbol_name("ssid")
    3384                            .dwattr $C$DW$152, DW_AT_type(*$C$DW$T$36)
    3385                            .dwattr $C$DW$152, DW_AT_location[DW_OP_reg0]
    3386                    $C$DW$153       .dwtag  DW_TAG_formal_parameter, DW_AT_name("password")
TI ARM Assembler PC v5.2.4 Thu Sep 17 23:20:49 2015

Tools Copyright (c) 1996-2015 Texas Instruments Incorporated
esp8266.asm                                                          PAGE   70

    3387                            .dwattr $C$DW$153, DW_AT_TI_symbol_name("password")
    3388                            .dwattr $C$DW$153, DW_AT_type(*$C$DW$T$36)
    3389                            .dwattr $C$DW$153, DW_AT_location[DW_OP_reg1]
    3390                    $C$DW$154       .dwtag  DW_TAG_formal_parameter, DW_AT_name("channel")
    3391                            .dwattr $C$DW$154, DW_AT_TI_symbol_name("channel")
    3392                            .dwattr $C$DW$154, DW_AT_type(*$C$DW$T$48)
    3393                            .dwattr $C$DW$154, DW_AT_location[DW_OP_reg2]
    3394                    $C$DW$155       .dwtag  DW_TAG_formal_parameter, DW_AT_name("encryptMode")
    3395                            .dwattr $C$DW$155, DW_AT_TI_symbol_name("encryptMode")
    3396                            .dwattr $C$DW$155, DW_AT_type(*$C$DW$T$48)
    3397                            .dwattr $C$DW$155, DW_AT_location[DW_OP_reg3]
    3398                    
    3399                    ;*****************************************************************************
    3400                    ;* FUNCTION NAME: ESP8266_ConfigureAccessPoint                               *
    3401                    ;*                                                                           *
    3402                    ;*   Regs Modified     : A1,A2,A3,A4,V9,SP,LR,SR,D0,D0_hi,D1,D1_hi,D2,D2_hi, *
    3403                    ;*                           D3,D3_hi,D4,D4_hi,D5,D5_hi,D6,D6_hi,D7,D7_hi,   *
    3404                    ;*                           FPEXC,FPSCR                                     *
    3405                    ;*   Regs Used         : A1,A2,A3,A4,V9,SP,LR,SR,D0,D0_hi,D1,D1_hi,D2,D2_hi, *
    3406                    ;*                           D3,D3_hi,D4,D4_hi,D5,D5_hi,D6,D6_hi,D7,D7_hi,   *
    3407                    ;*                           FPEXC,FPSCR                                     *
    3408                    ;*   Local Frame Size  : 8 Args + 16 Auto + 4 Save = 28 byte                 *
    3409                    ;*****************************************************************************
    3410 00000706           ESP8266_ConfigureAccessPoint:
    3411                    ;* --------------------------------------------------------------------------*
    3412                            .dwcfi  cfa_offset, 0
    3413 00000706 B500              PUSH      {LR}                  ; [DPU_3_PIPE]  ; [ORIG 16-BIT INS]
    3414                            .dwcfi  cfa_offset, 4
    3415                            .dwcfi  save_reg_to_mem, 14, -4
    3416 00000708 0D1CF1AD          SUB       SP, SP, #28           ; [DPU_3_PIPE]  ; [KEEP 32-BIT INS]
    3417                            .dwcfi  cfa_offset, 32
    3418                    $C$DW$156       .dwtag  DW_TAG_variable, DW_AT_name("ssid")
    3419                            .dwattr $C$DW$156, DW_AT_TI_symbol_name("ssid")
    3420                            .dwattr $C$DW$156, DW_AT_type(*$C$DW$T$36)
    3421                            .dwattr $C$DW$156, DW_AT_location[DW_OP_breg13 8]
    3422                    $C$DW$157       .dwtag  DW_TAG_variable, DW_AT_name("password")
    3423                            .dwattr $C$DW$157, DW_AT_TI_symbol_name("password")
    3424                            .dwattr $C$DW$157, DW_AT_type(*$C$DW$T$36)
    3425                            .dwattr $C$DW$157, DW_AT_location[DW_OP_breg13 12]
    3426                    $C$DW$158       .dwtag  DW_TAG_variable, DW_AT_name("channel")
    3427                            .dwattr $C$DW$158, DW_AT_TI_symbol_name("channel")
    3428                            .dwattr $C$DW$158, DW_AT_type(*$C$DW$T$48)
    3429                            .dwattr $C$DW$158, DW_AT_location[DW_OP_breg13 16]
    3430                    $C$DW$159       .dwtag  DW_TAG_variable, DW_AT_name("encryptMode")
    3431                            .dwattr $C$DW$159, DW_AT_TI_symbol_name("encryptMode")
    3432                            .dwattr $C$DW$159, DW_AT_type(*$C$DW$T$48)
    3433                            .dwattr $C$DW$159, DW_AT_location[DW_OP_breg13 17]
    3434                    $C$DW$160       .dwtag  DW_TAG_variable, DW_AT_name("try")
    3435                            .dwattr $C$DW$160, DW_AT_TI_symbol_name("try")
    3436                            .dwattr $C$DW$160, DW_AT_type(*$C$DW$T$10)
    3437                            .dwattr $C$DW$160, DW_AT_location[DW_OP_breg13 20]
    3438                    ;----------------------------------------------------------------------
    3439                    ; 475 | int ESP8266_ConfigureAccessPoint(const char* ssid, const char* password
    3440                    ;     | , uint8_t channel, uint8_t encryptMode){                               
    3441                    ;----------------------------------------------------------------------
TI ARM Assembler PC v5.2.4 Thu Sep 17 23:20:49 2015

Tools Copyright (c) 1996-2015 Texas Instruments Incorporated
esp8266.asm                                                          PAGE   71

    3442 0000070c 3011F88D          STRB      A4, [SP, #17]         ; [DPU_3_PIPE] |475|  ; [KEEP 32-BIT INS]
    3443 00000710 2010F88D          STRB      A3, [SP, #16]         ; [DPU_3_PIPE] |475|  ; [KEEP 32-BIT INS]
    3444 00000714 9103              STR       A2, [SP, #12]         ; [DPU_3_PIPE] |475|  ; [ORIG 16-BIT INS]
    3445 00000716 9002              STR       A1, [SP, #8]          ; [DPU_3_PIPE] |475|  ; [ORIG 16-BIT INS]
    3446                            .dwpsn  file "../esp8266.c",line 476,column 10,is_stmt,isa 1
    3447                    ;----------------------------------------------------------------------
    3448                    ; 476 | int try=MAXTRY;                                                        
    3449                    ;----------------------------------------------------------------------
    3450 00000718 200A              MOVS      A1, #10               ; [DPU_3_PIPE] |476|  ; [ORIG 16-BIT INS]
    3451 0000071a 9005              STR       A1, [SP, #20]         ; [DPU_3_PIPE] |476|  ; [ORIG 16-BIT INS]
    3452                            .dwpsn  file "../esp8266.c",line 477,column 3,is_stmt,isa 1
    3453                    ;----------------------------------------------------------------------
    3454                    ; 477 | strcpy(SearchString, "OK");                                            
    3455                    ;----------------------------------------------------------------------
    3456 0000071c 4817              LDR       A1, $C$CON30          ; [DPU_3_PIPE] |477|  ; [ORIG 16-BIT INS]
    3457 0000071e A11F              ADR       A2, $C$SL16           ; [DPU_3_PIPE] |477|  ; [ORIG 16-BIT INS]
    3458                    $C$DW$161       .dwtag  DW_TAG_TI_branch
    3459                            .dwattr $C$DW$161, DW_AT_low_pc(0x00)
    3460                            .dwattr $C$DW$161, DW_AT_name("strcpy")
    3461                            .dwattr $C$DW$161, DW_AT_TI_call
    3462 00000720 FFFEF7FF!         BL        strcpy                ; [DPU_3_PIPE] |477|  ; [KEEP 32-BIT INS]
    3463                            ; CALL OCCURS {strcpy }          ; [] |477| 
    3464                            .dwpsn  file "../esp8266.c",line 478,column 3,is_stmt,isa 1
    3465                    ;----------------------------------------------------------------------
    3466                    ; 478 | SearchLooking = true;                                                  
    3467                    ;----------------------------------------------------------------------
    3468 00000724 49AE              LDR       A2, $C$CON34          ; [DPU_3_PIPE] |478|  ; [ORIG 16-BIT INS]
    3469 00000726 2001              MOVS      A1, #1                ; [DPU_3_PIPE] |478|  ; [ORIG 16-BIT INS]
    3470 00000728 7008              STRB      A1, [A2, #0]          ; [DPU_3_PIPE] |478|  ; [ORIG 16-BIT INS]
    3471                            .dwpsn  file "../esp8266.c",line 479,column 3,is_stmt,isa 1
    3472                    ;----------------------------------------------------------------------
    3473                    ; 479 | SearchFound = false;                                                   
    3474                    ;----------------------------------------------------------------------
    3475 0000072a 4923              LDR       A2, $C$CON33          ; [DPU_3_PIPE] |479|  ; [ORIG 16-BIT INS]
    3476 0000072c 2000              MOVS      A1, #0                ; [DPU_3_PIPE] |479|  ; [ORIG 16-BIT INS]
    3477 0000072e 7008              STRB      A1, [A2, #0]          ; [DPU_3_PIPE] |479|  ; [ORIG 16-BIT INS]
    3478                            .dwpsn  file "../esp8266.c",line 480,column 3,is_stmt,isa 1
    3479                    ;----------------------------------------------------------------------
    3480                    ; 480 | while(try){                                                            
    3481                    ;----------------------------------------------------------------------
    3482 00000730 9805              LDR       A1, [SP, #20]         ; [DPU_3_PIPE] |480|  ; [ORIG 16-BIT INS]
    3483 00000732 B1E8              CBZ       A1, ||$C$L59||        ; []  ; [ORIG 16-BIT INS]
    3484                            ; BRANCHCC OCCURS {||$C$L59||}   ; [] |480| 
    3485                    ;* --------------------------------------------------------------------------*
    3486                    ;*   BEGIN LOOP ||$C$L57||
    3487                    ;*
    3488                    ;*   Loop source line                : 480
    3489                    ;*   Loop closing brace source line  : 486
    3490                    ;*   Known Minimum Trip Count        : 1
    3491                    ;*   Known Maximum Trip Count        : 4294967295
    3492                    ;*   Known Max Trip Count Factor     : 1
    3493                    ;* --------------------------------------------------------------------------*
    3494 00000734           ||$C$L57||:    
    3495                            .dwpsn  file "../esp8266.c",line 481,column 5,is_stmt,isa 1
    3496                    ;----------------------------------------------------------------------
TI ARM Assembler PC v5.2.4 Thu Sep 17 23:20:49 2015

Tools Copyright (c) 1996-2015 Texas Instruments Incorporated
esp8266.asm                                                          PAGE   72

    3497                    ; 481 | sprintf((char*)ESP8266_TXBuffer, "AT+CWSAP=\"%s\",\"%s\",%d,%d\r\n", ss
    3498                    ;     | id, password, channel, encryptMode);                                   
    3499                    ;----------------------------------------------------------------------
    3500 00000734 0010F89D          LDRB      A1, [SP, #16]         ; [DPU_3_PIPE] |481|  ; [KEEP 32-BIT INS]
    3501 00000738 9000              STR       A1, [SP, #0]          ; [DPU_3_PIPE] |481|  ; [ORIG 16-BIT INS]
    3502 0000073a 0011F89D          LDRB      A1, [SP, #17]         ; [DPU_3_PIPE] |481|  ; [KEEP 32-BIT INS]
    3503 0000073e 9001              STR       A1, [SP, #4]          ; [DPU_3_PIPE] |481|  ; [ORIG 16-BIT INS]
    3504 00000740 480D              LDR       A1, $C$CON29          ; [DPU_3_PIPE] |481|  ; [ORIG 16-BIT INS]
    3505 00000742 9A02              LDR       A3, [SP, #8]          ; [DPU_3_PIPE] |481|  ; [ORIG 16-BIT INS]
    3506 00000744 9B03              LDR       A4, [SP, #12]         ; [DPU_3_PIPE] |481|  ; [ORIG 16-BIT INS]
    3507 00000746 A1A7              ADR       A2, $C$SL24           ; [DPU_3_PIPE] |481|  ; [ORIG 16-BIT INS]
    3508                    $C$DW$162       .dwtag  DW_TAG_TI_branch
    3509                            .dwattr $C$DW$162, DW_AT_low_pc(0x00)
    3510                            .dwattr $C$DW$162, DW_AT_name("sprintf")
    3511                            .dwattr $C$DW$162, DW_AT_TI_call
    3512 00000748 FFFEF7FF!         BL        sprintf               ; [DPU_3_PIPE] |481|  ; [KEEP 32-BIT INS]
    3513                            ; CALL OCCURS {sprintf }         ; [] |481| 
    3514                            .dwpsn  file "../esp8266.c",line 482,column 5,is_stmt,isa 1
    3515                    ;----------------------------------------------------------------------
    3516                    ; 482 | ESP8266SendCommand((const char*)ESP8266_TXBuffer);                     
    3517                    ;----------------------------------------------------------------------
    3518 0000074c 480A              LDR       A1, $C$CON29          ; [DPU_3_PIPE] |482|  ; [ORIG 16-BIT INS]
    3519                    $C$DW$163       .dwtag  DW_TAG_TI_branch
    3520                            .dwattr $C$DW$163, DW_AT_low_pc(0x00)
    3521                            .dwattr $C$DW$163, DW_AT_name("ESP8266SendCommand")
    3522                            .dwattr $C$DW$163, DW_AT_TI_call
    3523 0000074e FD6DF7FF          BL        ESP8266SendCommand    ; [DPU_3_PIPE] |482|  ; [KEEP 32-BIT INS]
    3524                            ; CALL OCCURS {ESP8266SendCommand }  ; [] |482| 
    3525                            .dwpsn  file "../esp8266.c",line 483,column 5,is_stmt,isa 1
    3526                    ;----------------------------------------------------------------------
    3527                    ; 483 | DelayMsSearching(4000);                                                
    3528                    ;----------------------------------------------------------------------
    3529 00000752 607AF44F          MOV       A1, #4000             ; [DPU_3_PIPE] |483|  ; [KEEP 32-BIT INS]
    3530                    $C$DW$164       .dwtag  DW_TAG_TI_branch
    3531                            .dwattr $C$DW$164, DW_AT_low_pc(0x00)
    3532                            .dwattr $C$DW$164, DW_AT_name("DelayMsSearching")
    3533                            .dwattr $C$DW$164, DW_AT_TI_call
    3534 00000756 FD99F7FF          BL        DelayMsSearching      ; [DPU_3_PIPE] |483|  ; [KEEP 32-BIT INS]
    3535                            ; CALL OCCURS {DelayMsSearching }  ; [] |483| 
    3536                            .dwpsn  file "../esp8266.c",line 484,column 5,is_stmt,isa 1
    3537                    ;----------------------------------------------------------------------
    3538                    ; 484 | if(SearchFound) return 1; // success                                   
    3539                    ;----------------------------------------------------------------------
    3540 0000075a 4817              LDR       A1, $C$CON33          ; [DPU_3_PIPE] |484|  ; [ORIG 16-BIT INS]
    3541 0000075c 7800              LDRB      A1, [A1, #0]          ; [DPU_3_PIPE] |484|  ; [ORIG 16-BIT INS]
    3542 0000075e B108              CBZ       A1, ||$C$L58||        ; []  ; [ORIG 16-BIT INS]
    3543                            ; BRANCHCC OCCURS {||$C$L58||}   ; [] |484| 
    3544                    ;* --------------------------------------------------------------------------*
    3545                            .dwpsn  file "../esp8266.c",line 484,column 21,is_stmt,isa 1
    3546 00000760 2001              MOVS      A1, #1                ; [DPU_3_PIPE] |484|  ; [ORIG 16-BIT INS]
    3547 00000762 E006              B         ||$C$L60||            ; [DPU_3_PIPE] |484|  ; [ORIG 16-BIT INS]
    3548                            ; BRANCH OCCURS {||$C$L60||}     ; [] |484| 
    3549                    ;* --------------------------------------------------------------------------*
    3550 00000764           ||$C$L58||:    
    3551                            .dwpsn  file "../esp8266.c",line 485,column 5,is_stmt,isa 1
TI ARM Assembler PC v5.2.4 Thu Sep 17 23:20:49 2015

Tools Copyright (c) 1996-2015 Texas Instruments Incorporated
esp8266.asm                                                          PAGE   73

    3552                    ;----------------------------------------------------------------------
    3553                    ; 485 | try--;                                                                 
    3554                    ;----------------------------------------------------------------------
    3555 00000764 9805              LDR       A1, [SP, #20]         ; [DPU_3_PIPE] |485|  ; [ORIG 16-BIT INS]
    3556 00000766 1E40              SUBS      A1, A1, #1            ; [DPU_3_PIPE] |485|  ; [ORIG 16-BIT INS]
    3557 00000768 9005              STR       A1, [SP, #20]         ; [DPU_3_PIPE] |485|  ; [ORIG 16-BIT INS]
    3558                            .dwpsn  file "../esp8266.c",line 480,column 3,is_stmt,isa 1
    3559 0000076a 9805              LDR       A1, [SP, #20]         ; [DPU_3_PIPE] |480|  ; [ORIG 16-BIT INS]
    3560 0000076c 2800              CMP       A1, #0                ; [DPU_3_PIPE] |480|  ; [ORIG 16-BIT INS]
    3561 0000076e D1E1              BNE       ||$C$L57||            ; [DPU_3_PIPE] |480|  ; [ORIG 16-BIT INS]
    3562                            ; BRANCHCC OCCURS {||$C$L57||}   ; [] |480| 
    3563                    ;* --------------------------------------------------------------------------*
    3564 00000770           ||$C$L59||:    
    3565                            .dwpsn  file "../esp8266.c",line 487,column 3,is_stmt,isa 1
    3566                    ;----------------------------------------------------------------------
    3567                    ; 487 | return 0; // fail                                                      
    3568                    ;----------------------------------------------------------------------
    3569 00000770 2000              MOVS      A1, #0                ; [DPU_3_PIPE] |487|  ; [ORIG 16-BIT INS]
    3570                    ;* --------------------------------------------------------------------------*
    3571 00000772           ||$C$L60||:    
    3572                            .dwpsn  file "../esp8266.c",line 488,column 1,is_stmt,isa 1
    3573 00000772 B007              ADD       SP, SP, #28           ; [DPU_3_PIPE]  ; [ORIG 16-BIT INS]
    3574                            .dwcfi  cfa_offset, 4
    3575                    $C$DW$165       .dwtag  DW_TAG_TI_branch
    3576                            .dwattr $C$DW$165, DW_AT_low_pc(0x00)
    3577                            .dwattr $C$DW$165, DW_AT_TI_return
    3578 00000774 BD00              POP       {PC}                  ; [DPU_3_PIPE]  ; [ORIG 16-BIT INS]
    3579                            .dwcfi  cfa_offset, 0
    3580                            ; BRANCH OCCURS                  ; [] 
    3581                    ;******************************************************************************
    3582                    ;* CONSTANT TABLE                                                             *
    3583                    ;******************************************************************************
    3584 00000776                   .sect   ".text"
    3585                            .align  4
    3586 00000776 000046C0! ||$C$CON29||:   .bits   ESP8266_TXBuffer,32
         0000077a 00000000 
    3587                            .align  4
    3588 0000077a 00000000! ||$C$CON30||:   .bits   SearchString,32
         0000077e 00000000 
    3589                            .dwattr $C$DW$151, DW_AT_TI_end_file("../esp8266.c")
    3590                            .dwattr $C$DW$151, DW_AT_TI_end_line(0x1e8)
    3591                            .dwattr $C$DW$151, DW_AT_TI_end_column(0x01)
    3592                            .dwendentry
    3593                            .dwendtag $C$DW$151
    3594                    
    3595                    ;******************************************************************************
    3596                    ;* STRINGS                                                                    *
    3597                    ;******************************************************************************
    3598 00000780                   .sect   ".text"
    3599                            .align  4
    3600 00000780 6E        ||$C$SL14||:    .string "no change",0
         00000781 6F       
         00000782 20       
         00000783 63       
         00000784 68       
TI ARM Assembler PC v5.2.4 Thu Sep 17 23:20:49 2015

Tools Copyright (c) 1996-2015 Texas Instruments Incorporated
esp8266.asm                                                          PAGE   74

         00000785 61       
         00000786 6E       
         00000787 67       
         00000788 65       
         00000789 00       
    3601                            .align  4
    3602 0000078c 41        ||$C$SL15||:    .string "AT+CWMODE=%d",13,10,0
         0000078d 54       
         0000078e 2B       
         0000078f 43       
         00000790 57       
         00000791 4D       
         00000792 4F       
         00000793 44       
         00000794 45       
         00000795 3D       
         00000796 25       
         00000797 64       
         00000798 0D       
         00000799 0A       
         0000079a 00       
    3603                            .align  4
    3604 0000079c 4F        ||$C$SL16||:    .string "OK",0
         0000079d 4B       
         0000079e 00       
    3605                            .align  4
    3606 000007a0 41        ||$C$SL17||:    .string "AT+CIPMUX=%d",13,10,0
         000007a1 54       
         000007a2 2B       
         000007a3 43       
         000007a4 49       
         000007a5 50       
         000007a6 4D       
         000007a7 55       
         000007a8 58       
         000007a9 3D       
         000007aa 25       
         000007ab 64       
         000007ac 0D       
         000007ad 0A       
         000007ae 00       
    3607                    ;******************************************************************************
    3608                    ;* CONSTANT TABLE                                                             *
    3609                    ;******************************************************************************
    3610 000007af                   .sect   ".text"
    3611                            .align  4
    3612 000007ae 0000C000! ||$C$CON31||:   .bits   ESP8266_ServerTimeout,32
         000007b2 00000000 
    3613                            .align  4
    3614 000007b2 00000000! ||$C$CON32||:   .bits   ESP8266_ServerPort,32
         000007b6 00000000 
    3615                            .align  4
    3616 000007b6 00000000! ||$C$CON33||:   .bits   SearchFound,32
         000007ba 00000000 
    3617 000007bc                   .sect   ".text"
TI ARM Assembler PC v5.2.4 Thu Sep 17 23:20:49 2015

Tools Copyright (c) 1996-2015 Texas Instruments Incorporated
esp8266.asm                                                          PAGE   75

    3618                            .clink
    3619                            .thumbfunc ESP8266ProcessInput
    3620 000007bc                   .thumb
    3621                            .global ESP8266ProcessInput
    3622                    
    3623                    $C$DW$166       .dwtag  DW_TAG_subprogram, DW_AT_name("ESP8266ProcessInput")
    3624                            .dwattr $C$DW$166, DW_AT_low_pc(ESP8266ProcessInput)
    3625                            .dwattr $C$DW$166, DW_AT_high_pc(0x00)
    3626                            .dwattr $C$DW$166, DW_AT_TI_symbol_name("ESP8266ProcessInput")
    3627                            .dwattr $C$DW$166, DW_AT_external
    3628                            .dwattr $C$DW$166, DW_AT_TI_begin_file("../esp8266.c")
    3629                            .dwattr $C$DW$166, DW_AT_TI_begin_line(0x1f0)
    3630                            .dwattr $C$DW$166, DW_AT_TI_begin_column(0x06)
    3631                            .dwattr $C$DW$166, DW_AT_decl_file("../esp8266.c")
    3632                            .dwattr $C$DW$166, DW_AT_decl_line(0x1f0)
    3633                            .dwattr $C$DW$166, DW_AT_decl_column(0x06)
    3634                            .dwattr $C$DW$166, DW_AT_TI_max_frame_size(0x10)
    3635                            .dwpsn  file "../esp8266.c",line 496,column 45,is_stmt,address ESP8266ProcessInput,isa 1
    3636                    
    3637                            .dwfde $C$DW$CIE, ESP8266ProcessInput
    3638                    $C$DW$167       .dwtag  DW_TAG_formal_parameter, DW_AT_name("buffer")
    3639                            .dwattr $C$DW$167, DW_AT_TI_symbol_name("buffer")
    3640                            .dwattr $C$DW$167, DW_AT_type(*$C$DW$T$36)
    3641                            .dwattr $C$DW$167, DW_AT_location[DW_OP_reg0]
    3642                    
    3643                    ;*****************************************************************************
    3644                    ;* FUNCTION NAME: ESP8266ProcessInput                                        *
    3645                    ;*                                                                           *
    3646                    ;*   Regs Modified     : A1,A2,A3,A4,V9,SP,LR,SR,D0,D0_hi,D1,D1_hi,D2,D2_hi, *
    3647                    ;*                           D3,D3_hi,D4,D4_hi,D5,D5_hi,D6,D6_hi,D7,D7_hi,   *
    3648                    ;*                           FPEXC,FPSCR                                     *
    3649                    ;*   Regs Used         : A1,A2,A3,A4,V9,SP,LR,SR,D0,D0_hi,D1,D1_hi,D2,D2_hi, *
    3650                    ;*                           D3,D3_hi,D4,D4_hi,D5,D5_hi,D6,D6_hi,D7,D7_hi,   *
    3651                    ;*                           FPEXC,FPSCR                                     *
    3652                    ;*   Local Frame Size  : 0 Args + 12 Auto + 4 Save = 16 byte                 *
    3653                    ;*****************************************************************************
    3654 000007bc           ESP8266ProcessInput:
    3655                    ;* --------------------------------------------------------------------------*
    3656                            .dwcfi  cfa_offset, 0
    3657 000007bc B50E              PUSH      {A2, A3, A4, LR}      ; [DPU_3_PIPE]  ; [ORIG 16-BIT INS]
    3658                            .dwcfi  cfa_offset, 16
    3659                            .dwcfi  save_reg_to_mem, 14, -4
    3660                            .dwcfi  save_reg_to_mem, 3, -8
    3661                            .dwcfi  save_reg_to_mem, 2, -12
    3662                            .dwcfi  save_reg_to_mem, 1, -16
    3663                    $C$DW$168       .dwtag  DW_TAG_variable, DW_AT_name("buffer")
    3664                            .dwattr $C$DW$168, DW_AT_TI_symbol_name("buffer")
    3665                            .dwattr $C$DW$168, DW_AT_type(*$C$DW$T$36)
    3666                            .dwattr $C$DW$168, DW_AT_location[DW_OP_breg13 0]
    3667                    $C$DW$169       .dwtag  DW_TAG_variable, DW_AT_name("ptr")
    3668                            .dwattr $C$DW$169, DW_AT_TI_symbol_name("ptr")
    3669                            .dwattr $C$DW$169, DW_AT_type(*$C$DW$T$59)
    3670                            .dwattr $C$DW$169, DW_AT_location[DW_OP_breg13 4]
    3671                    ;----------------------------------------------------------------------
    3672                    ; 496 | void ESP8266ProcessInput(const char* buffer){                          
TI ARM Assembler PC v5.2.4 Thu Sep 17 23:20:49 2015

Tools Copyright (c) 1996-2015 Texas Instruments Incorporated
esp8266.asm                                                          PAGE   76

    3673                    ; 497 | char* ptr;                                                             
    3674                    ; 498 | // "+IPD" indicates data coming in from IP server                      
    3675                    ;----------------------------------------------------------------------
    3676 000007be 9000              STR       A1, [SP, #0]          ; [DPU_3_PIPE] |496|  ; [ORIG 16-BIT INS]
    3677                            .dwpsn  file "../esp8266.c",line 499,column 3,is_stmt,isa 1
    3678                    ;----------------------------------------------------------------------
    3679                    ; 499 | if (buffer[0] == '+' && buffer[1] == 'I' && buffer[2] == 'P' && buffer[
    3680                    ;     | 3] == 'D' && buffer[8] != '\n'){                                       
    3681                    ;----------------------------------------------------------------------
    3682 000007c0 9800              LDR       A1, [SP, #0]          ; [DPU_3_PIPE] |499|  ; [ORIG 16-BIT INS]
    3683 000007c2 7800              LDRB      A1, [A1, #0]          ; [DPU_3_PIPE] |499|  ; [ORIG 16-BIT INS]
    3684 000007c4 282B              CMP       A1, #43               ; [DPU_3_PIPE] |499|  ; [ORIG 16-BIT INS]
    3685 000007c6 D13B              BNE       ||$C$L64||            ; [DPU_3_PIPE] |499|  ; [ORIG 16-BIT INS]
    3686                            ; BRANCHCC OCCURS {||$C$L64||}   ; [] |499| 
    3687                    ;* --------------------------------------------------------------------------*
    3688 000007c8 9800              LDR       A1, [SP, #0]          ; [DPU_3_PIPE] |499|  ; [ORIG 16-BIT INS]
    3689 000007ca 7840              LDRB      A1, [A1, #1]          ; [DPU_3_PIPE] |499|  ; [ORIG 16-BIT INS]
    3690 000007cc 2849              CMP       A1, #73               ; [DPU_3_PIPE] |499|  ; [ORIG 16-BIT INS]
    3691 000007ce D137              BNE       ||$C$L64||            ; [DPU_3_PIPE] |499|  ; [ORIG 16-BIT INS]
    3692                            ; BRANCHCC OCCURS {||$C$L64||}   ; [] |499| 
    3693                    ;* --------------------------------------------------------------------------*
    3694 000007d0 9800              LDR       A1, [SP, #0]          ; [DPU_3_PIPE] |499|  ; [ORIG 16-BIT INS]
    3695 000007d2 7880              LDRB      A1, [A1, #2]          ; [DPU_3_PIPE] |499|  ; [ORIG 16-BIT INS]
    3696 000007d4 2850              CMP       A1, #80               ; [DPU_3_PIPE] |499|  ; [ORIG 16-BIT INS]
    3697 000007d6 D133              BNE       ||$C$L64||            ; [DPU_3_PIPE] |499|  ; [ORIG 16-BIT INS]
    3698                            ; BRANCHCC OCCURS {||$C$L64||}   ; [] |499| 
    3699                    ;* --------------------------------------------------------------------------*
    3700 000007d8 9800              LDR       A1, [SP, #0]          ; [DPU_3_PIPE] |499|  ; [ORIG 16-BIT INS]
    3701 000007da 78C0              LDRB      A1, [A1, #3]          ; [DPU_3_PIPE] |499|  ; [ORIG 16-BIT INS]
    3702 000007dc 2844              CMP       A1, #68               ; [DPU_3_PIPE] |499|  ; [ORIG 16-BIT INS]
    3703 000007de D12F              BNE       ||$C$L64||            ; [DPU_3_PIPE] |499|  ; [ORIG 16-BIT INS]
    3704                            ; BRANCHCC OCCURS {||$C$L64||}   ; [] |499| 
    3705                    ;* --------------------------------------------------------------------------*
    3706 000007e0 9800              LDR       A1, [SP, #0]          ; [DPU_3_PIPE] |499|  ; [ORIG 16-BIT INS]
    3707 000007e2 7A00              LDRB      A1, [A1, #8]          ; [DPU_3_PIPE] |499|  ; [ORIG 16-BIT INS]
    3708 000007e4 280A              CMP       A1, #10               ; [DPU_3_PIPE] |499|  ; [ORIG 16-BIT INS]
    3709 000007e6 D02B              BEQ       ||$C$L64||            ; [DPU_3_PIPE] |499|  ; [ORIG 16-BIT INS]
    3710                            ; BRANCHCC OCCURS {||$C$L64||}   ; [] |499| 
    3711                    ;* --------------------------------------------------------------------------*
    3712                            .dwpsn  file "../esp8266.c",line 500,column 5,is_stmt,isa 1
    3713                    ;----------------------------------------------------------------------
    3714                    ; 500 | ptr = (char *)buffer + 7;                                              
    3715                    ;----------------------------------------------------------------------
    3716 000007e8 9800              LDR       A1, [SP, #0]          ; [DPU_3_PIPE] |500|  ; [ORIG 16-BIT INS]
    3717 000007ea 1DC0              ADDS      A1, A1, #7            ; [DPU_3_PIPE] |500|  ; [ORIG 16-BIT INS]
    3718 000007ec 9001              STR       A1, [SP, #4]          ; [DPU_3_PIPE] |500|  ; [ORIG 16-BIT INS]
    3719                            .dwpsn  file "../esp8266.c",line 501,column 5,is_stmt,isa 1
    3720                    ;----------------------------------------------------------------------
    3721                    ; 501 | while (*ptr != ':'){                                                   
    3722                    ;----------------------------------------------------------------------
    3723 000007ee E002              B         ||$C$L62||            ; [DPU_3_PIPE] |501|  ; [ORIG 16-BIT INS]
    3724                            ; BRANCH OCCURS {||$C$L62||}     ; [] |501| 
    3725                    ;* --------------------------------------------------------------------------*
    3726 000007f0           ||$C$L61||:    
    3727                            .dwpsn  file "../esp8266.c",line 502,column 7,is_stmt,isa 1
TI ARM Assembler PC v5.2.4 Thu Sep 17 23:20:49 2015

Tools Copyright (c) 1996-2015 Texas Instruments Incorporated
esp8266.asm                                                          PAGE   77

    3728                    ;----------------------------------------------------------------------
    3729                    ; 502 | ptr++;                                                                 
    3730                    ;----------------------------------------------------------------------
    3731 000007f0 9801              LDR       A1, [SP, #4]          ; [DPU_3_PIPE] |502|  ; [ORIG 16-BIT INS]
    3732 000007f2 1C40              ADDS      A1, A1, #1            ; [DPU_3_PIPE] |502|  ; [ORIG 16-BIT INS]
    3733 000007f4 9001              STR       A1, [SP, #4]          ; [DPU_3_PIPE] |502|  ; [ORIG 16-BIT INS]
    3734                    ;* --------------------------------------------------------------------------*
    3735                    ;*   BEGIN LOOP ||$C$L62||
    3736                    ;* --------------------------------------------------------------------------*
    3737 000007f6           ||$C$L62||:    
    3738                            .dwpsn  file "../esp8266.c",line 501,column 12,is_stmt,isa 1
    3739 000007f6 9801              LDR       A1, [SP, #4]          ; [DPU_3_PIPE] |501|  ; [ORIG 16-BIT INS]
    3740 000007f8 7800              LDRB      A1, [A1, #0]          ; [DPU_3_PIPE] |501|  ; [ORIG 16-BIT INS]
    3741 000007fa 283A              CMP       A1, #58               ; [DPU_3_PIPE] |501|  ; [ORIG 16-BIT INS]
    3742 000007fc D1F8              BNE       ||$C$L61||            ; [DPU_3_PIPE] |501|  ; [ORIG 16-BIT INS]
    3743                            ; BRANCHCC OCCURS {||$C$L61||}   ; [] |501| 
    3744                    ;* --------------------------------------------------------------------------*
    3745                            .dwpsn  file "../esp8266.c",line 504,column 5,is_stmt,isa 1
    3746                    ;----------------------------------------------------------------------
    3747                    ; 504 | ptr++;                                                                 
    3748                    ; 506 | // check for HTTP GET                                                  
    3749                    ;----------------------------------------------------------------------
    3750 000007fe 9801              LDR       A1, [SP, #4]          ; [DPU_3_PIPE] |504|  ; [ORIG 16-BIT INS]
    3751 00000800 1C40              ADDS      A1, A1, #1            ; [DPU_3_PIPE] |504|  ; [ORIG 16-BIT INS]
    3752 00000802 9001              STR       A1, [SP, #4]          ; [DPU_3_PIPE] |504|  ; [ORIG 16-BIT INS]
    3753                            .dwpsn  file "../esp8266.c",line 507,column 5,is_stmt,isa 1
    3754                    ;----------------------------------------------------------------------
    3755                    ; 507 | if (*ptr == 'G' && *(ptr + 1) == 'E' && *(ptr + 2) == 'T') {           
    3756                    ;----------------------------------------------------------------------
    3757 00000804 9801              LDR       A1, [SP, #4]          ; [DPU_3_PIPE] |507|  ; [ORIG 16-BIT INS]
    3758 00000806 7800              LDRB      A1, [A1, #0]          ; [DPU_3_PIPE] |507|  ; [ORIG 16-BIT INS]
    3759 00000808 2847              CMP       A1, #71               ; [DPU_3_PIPE] |507|  ; [ORIG 16-BIT INS]
    3760 0000080a D119              BNE       ||$C$L64||            ; [DPU_3_PIPE] |507|  ; [ORIG 16-BIT INS]
    3761                            ; BRANCHCC OCCURS {||$C$L64||}   ; [] |507| 
    3762                    ;* --------------------------------------------------------------------------*
    3763 0000080c 9801              LDR       A1, [SP, #4]          ; [DPU_3_PIPE] |507|  ; [ORIG 16-BIT INS]
    3764 0000080e 7840              LDRB      A1, [A1, #1]          ; [DPU_3_PIPE] |507|  ; [ORIG 16-BIT INS]
    3765 00000810 2845              CMP       A1, #69               ; [DPU_3_PIPE] |507|  ; [ORIG 16-BIT INS]
    3766 00000812 D115              BNE       ||$C$L64||            ; [DPU_3_PIPE] |507|  ; [ORIG 16-BIT INS]
    3767                            ; BRANCHCC OCCURS {||$C$L64||}   ; [] |507| 
    3768                    ;* --------------------------------------------------------------------------*
    3769 00000814 9801              LDR       A1, [SP, #4]          ; [DPU_3_PIPE] |507|  ; [ORIG 16-BIT INS]
    3770 00000816 7880              LDRB      A1, [A1, #2]          ; [DPU_3_PIPE] |507|  ; [ORIG 16-BIT INS]
    3771 00000818 2854              CMP       A1, #84               ; [DPU_3_PIPE] |507|  ; [ORIG 16-BIT INS]
    3772 0000081a D111              BNE       ||$C$L64||            ; [DPU_3_PIPE] |507|  ; [ORIG 16-BIT INS]
    3773                            ; BRANCHCC OCCURS {||$C$L64||}   ; [] |507| 
    3774                    ;* --------------------------------------------------------------------------*
    3775                            .dwpsn  file "../esp8266.c",line 508,column 7,is_stmt,isa 1
    3776                    ;----------------------------------------------------------------------
    3777                    ; 508 | if (*(ptr + 5) == '?'){ // means data to process                       
    3778                    ;----------------------------------------------------------------------
    3779 0000081c 9801              LDR       A1, [SP, #4]          ; [DPU_3_PIPE] |508|  ; [ORIG 16-BIT INS]
    3780 0000081e 7940              LDRB      A1, [A1, #5]          ; [DPU_3_PIPE] |508|  ; [ORIG 16-BIT INS]
    3781 00000820 283F              CMP       A1, #63               ; [DPU_3_PIPE] |508|  ; [ORIG 16-BIT INS]
    3782 00000822 D109              BNE       ||$C$L63||            ; [DPU_3_PIPE] |508|  ; [ORIG 16-BIT INS]
TI ARM Assembler PC v5.2.4 Thu Sep 17 23:20:49 2015

Tools Copyright (c) 1996-2015 Texas Instruments Incorporated
esp8266.asm                                                          PAGE   78

    3783                            ; BRANCHCC OCCURS {||$C$L63||}   ; [] |508| 
    3784                    ;* --------------------------------------------------------------------------*
    3785                    
    3786                    $C$DW$170       .dwtag  DW_TAG_lexical_block, DW_AT_low_pc(0x00), DW_AT_high_pc(0x00)
    3787                    $C$DW$171       .dwtag  DW_TAG_variable, DW_AT_name("messagePtr")
    3788                            .dwattr $C$DW$171, DW_AT_TI_symbol_name("messagePtr")
    3789                            .dwattr $C$DW$171, DW_AT_type(*$C$DW$T$59)
    3790                            .dwattr $C$DW$171, DW_AT_location[DW_OP_breg13 8]
    3791                            .dwpsn  file "../esp8266.c",line 509,column 26,is_stmt,isa 1
    3792                    ;----------------------------------------------------------------------
    3793                    ; 509 | char* messagePtr = strstr(ptr, "message=") + 8;                        
    3794                    ;----------------------------------------------------------------------
    3795 00000824 9801              LDR       A1, [SP, #4]          ; [DPU_3_PIPE] |509|  ; [ORIG 16-BIT INS]
    3796 00000826 A19D              ADR       A2, $C$SL25           ; [DPU_3_PIPE] |509|  ; [ORIG 16-BIT INS]
    3797                    $C$DW$172       .dwtag  DW_TAG_TI_branch
    3798                            .dwattr $C$DW$172, DW_AT_low_pc(0x00)
    3799                            .dwattr $C$DW$172, DW_AT_name("strstr")
    3800                            .dwattr $C$DW$172, DW_AT_TI_call
    3801 00000828 FFFEF7FF!         BL        strstr                ; [DPU_3_PIPE] |509|  ; [KEEP 32-BIT INS]
    3802                            ; CALL OCCURS {strstr }          ; [] |509| 
    3803 0000082c 3008              ADDS      A1, A1, #8            ; [DPU_3_PIPE] |509|  ; [ORIG 16-BIT INS]
    3804 0000082e 9002              STR       A1, [SP, #8]          ; [DPU_3_PIPE] |509|  ; [ORIG 16-BIT INS]
    3805                            .dwpsn  file "../esp8266.c",line 510,column 9,is_stmt,isa 1
    3806                    ;----------------------------------------------------------------------
    3807                    ; 510 | printf("Message from ESP8266: %s\n", messagePtr);                      
    3808                    ;----------------------------------------------------------------------
    3809 00000830 9902              LDR       A2, [SP, #8]          ; [DPU_3_PIPE] |510|  ; [ORIG 16-BIT INS]
    3810 00000832 A09D              ADR       A1, $C$SL26           ; [DPU_3_PIPE] |510|  ; [ORIG 16-BIT INS]
    3811                    $C$DW$173       .dwtag  DW_TAG_TI_branch
    3812                            .dwattr $C$DW$173, DW_AT_low_pc(0x00)
    3813                            .dwattr $C$DW$173, DW_AT_name("printf")
    3814                            .dwattr $C$DW$173, DW_AT_TI_call
    3815 00000834 FFFEF7FF!         BL        printf                ; [DPU_3_PIPE] |510|  ; [KEEP 32-BIT INS]
    3816                            ; CALL OCCURS {printf }          ; [] |510| 
    3817                            .dwendtag $C$DW$170
    3818                    
    3819                    ;* --------------------------------------------------------------------------*
    3820 00000838           ||$C$L63||:    
    3821                            .dwpsn  file "../esp8266.c",line 512,column 7,is_stmt,isa 1
    3822                    ;----------------------------------------------------------------------
    3823                    ; 512 | ESP8266_PageRequested = true;                                          
    3824                    ;----------------------------------------------------------------------
    3825 00000838 49BF              LDR       A2, $C$CON35          ; [DPU_3_PIPE] |512|  ; [ORIG 16-BIT INS]
    3826 0000083a 2001              MOVS      A1, #1                ; [DPU_3_PIPE] |512|  ; [ORIG 16-BIT INS]
    3827 0000083c 7008              STRB      A1, [A2, #0]          ; [DPU_3_PIPE] |512|  ; [ORIG 16-BIT INS]
    3828                            .dwpsn  file "../esp8266.c",line 513,column 5,is_stmt,isa 1
    3829                    ;----------------------------------------------------------------------
    3830                    ; 513 | } else {                                                               
    3831                    ; 514 |   // handle data that may be sent via means other than HTTP GET        
    3832                    ;----------------------------------------------------------------------
    3833 0000083e E7FF              B         ||$C$L64||            ; [DPU_3_PIPE] |513|  ; [ORIG 16-BIT INS]
    3834                            ; BRANCH OCCURS {||$C$L64||}     ; [] |513| 
    3835                    ;* --------------------------------------------------------------------------*
    3836                    ;* --------------------------------------------------------------------------*
    3837                    ||$C$L64||:    
TI ARM Assembler PC v5.2.4 Thu Sep 17 23:20:49 2015

Tools Copyright (c) 1996-2015 Texas Instruments Incorporated
esp8266.asm                                                          PAGE   79

    3838                    $C$DW$174       .dwtag  DW_TAG_TI_branch
    3839                            .dwattr $C$DW$174, DW_AT_low_pc(0x00)
    3840                            .dwattr $C$DW$174, DW_AT_TI_return
    3841 00000840 BD0E              POP       {A2, A3, A4, PC}      ; [DPU_3_PIPE]  ; [ORIG 16-BIT INS]
    3842                            .dwcfi  cfa_offset, 0
    3843                            ; BRANCH OCCURS                  ; [] 
    3844                            .dwattr $C$DW$166, DW_AT_TI_end_file("../esp8266.c")
    3845                            .dwattr $C$DW$166, DW_AT_TI_end_line(0x205)
    3846                            .dwattr $C$DW$166, DW_AT_TI_end_column(0x01)
    3847                            .dwendentry
    3848                            .dwendtag $C$DW$166
    3849                    
    3850 00000842                   .sect   ".text"
    3851                            .clink
    3852                            .thumbfunc ESP8266EnableRXInterrupt
    3853 00000842                   .thumb
    3854                            .global ESP8266EnableRXInterrupt
    3855                    
    3856                    $C$DW$175       .dwtag  DW_TAG_subprogram, DW_AT_name("ESP8266EnableRXInterrupt")
    3857                            .dwattr $C$DW$175, DW_AT_low_pc(ESP8266EnableRXInterrupt)
    3858                            .dwattr $C$DW$175, DW_AT_high_pc(0x00)
    3859                            .dwattr $C$DW$175, DW_AT_TI_symbol_name("ESP8266EnableRXInterrupt")
    3860                            .dwattr $C$DW$175, DW_AT_external
    3861                            .dwattr $C$DW$175, DW_AT_TI_begin_file("../esp8266.c")
    3862                            .dwattr $C$DW$175, DW_AT_TI_begin_line(0x20e)
    3863                            .dwattr $C$DW$175, DW_AT_TI_begin_column(0x06)
    3864                            .dwattr $C$DW$175, DW_AT_decl_file("../esp8266.c")
    3865                            .dwattr $C$DW$175, DW_AT_decl_line(0x20e)
    3866                            .dwattr $C$DW$175, DW_AT_decl_column(0x06)
    3867                            .dwattr $C$DW$175, DW_AT_TI_max_frame_size(0x00)
    3868                            .dwpsn  file "../esp8266.c",line 526,column 36,is_stmt,address ESP8266EnableRXInterrupt,isa 1
    3869                    
    3870                            .dwfde $C$DW$CIE, ESP8266EnableRXInterrupt
    3871                    ;----------------------------------------------------------------------
    3872                    ; 526 | void ESP8266EnableRXInterrupt(void){                                   
    3873                    ;----------------------------------------------------------------------
    3874                    
    3875                    ;*****************************************************************************
    3876                    ;* FUNCTION NAME: ESP8266EnableRXInterrupt                                   *
    3877                    ;*                                                                           *
    3878                    ;*   Regs Modified     : A1,A2,SR                                            *
    3879                    ;*   Regs Used         : A1,A2,LR,SR                                         *
    3880                    ;*   Local Frame Size  : 0 Args + 0 Auto + 0 Save = 0 byte                   *
    3881                    ;*****************************************************************************
    3882 00000842           ESP8266EnableRXInterrupt:
    3883                    ;* --------------------------------------------------------------------------*
    3884                            .dwcfi  cfa_offset, 0
    3885                            .dwpsn  file "../esp8266.c",line 527,column 3,is_stmt,isa 1
    3886                    ;----------------------------------------------------------------------
    3887                    ; 527 | NVIC_EN0_R = 1<<6; // interrupt 6                                      
    3888                    ;----------------------------------------------------------------------
    3889 00000842 49BE              LDR       A2, $C$CON36          ; [DPU_3_PIPE] |527|  ; [ORIG 16-BIT INS]
    3890 00000844 2040              MOVS      A1, #64               ; [DPU_3_PIPE] |527|  ; [ORIG 16-BIT INS]
    3891 00000846 6008              STR       A1, [A2, #0]          ; [DPU_3_PIPE] |527|  ; [ORIG 16-BIT INS]
    3892                            .dwpsn  file "../esp8266.c",line 528,column 1,is_stmt,isa 1
TI ARM Assembler PC v5.2.4 Thu Sep 17 23:20:49 2015

Tools Copyright (c) 1996-2015 Texas Instruments Incorporated
esp8266.asm                                                          PAGE   80

    3893                    $C$DW$176       .dwtag  DW_TAG_TI_branch
    3894                            .dwattr $C$DW$176, DW_AT_low_pc(0x00)
    3895                            .dwattr $C$DW$176, DW_AT_TI_return
    3896 00000848 4770              BX        LR                    ; [DPU_3_PIPE]  ; [ORIG 16-BIT INS]
    3897                            ; BRANCH OCCURS                  ; [] 
    3898                            .dwattr $C$DW$175, DW_AT_TI_end_file("../esp8266.c")
    3899                            .dwattr $C$DW$175, DW_AT_TI_end_line(0x210)
    3900                            .dwattr $C$DW$175, DW_AT_TI_end_column(0x01)
    3901                            .dwendentry
    3902                            .dwendtag $C$DW$175
    3903                    
    3904 0000084a                   .sect   ".text"
    3905                            .clink
    3906                            .thumbfunc ESP8266DisableRXInterrupt
    3907 0000084a                   .thumb
    3908                            .global ESP8266DisableRXInterrupt
    3909                    
    3910                    $C$DW$177       .dwtag  DW_TAG_subprogram, DW_AT_name("ESP8266DisableRXInterrupt")
    3911                            .dwattr $C$DW$177, DW_AT_low_pc(ESP8266DisableRXInterrupt)
    3912                            .dwattr $C$DW$177, DW_AT_high_pc(0x00)
    3913                            .dwattr $C$DW$177, DW_AT_TI_symbol_name("ESP8266DisableRXInterrupt")
    3914                            .dwattr $C$DW$177, DW_AT_external
    3915                            .dwattr $C$DW$177, DW_AT_TI_begin_file("../esp8266.c")
    3916                            .dwattr $C$DW$177, DW_AT_TI_begin_line(0x219)
    3917                            .dwattr $C$DW$177, DW_AT_TI_begin_column(0x06)
    3918                            .dwattr $C$DW$177, DW_AT_decl_file("../esp8266.c")
    3919                            .dwattr $C$DW$177, DW_AT_decl_line(0x219)
    3920                            .dwattr $C$DW$177, DW_AT_decl_column(0x06)
    3921                            .dwattr $C$DW$177, DW_AT_TI_max_frame_size(0x00)
    3922                            .dwpsn  file "../esp8266.c",line 537,column 37,is_stmt,address ESP8266DisableRXInterrupt,isa 1
    3923                    
    3924                            .dwfde $C$DW$CIE, ESP8266DisableRXInterrupt
    3925                    ;----------------------------------------------------------------------
    3926                    ; 537 | void ESP8266DisableRXInterrupt(void){                                  
    3927                    ;----------------------------------------------------------------------
    3928                    
    3929                    ;*****************************************************************************
    3930                    ;* FUNCTION NAME: ESP8266DisableRXInterrupt                                  *
    3931                    ;*                                                                           *
    3932                    ;*   Regs Modified     : A1,A2,SR                                            *
    3933                    ;*   Regs Used         : A1,A2,LR,SR                                         *
    3934                    ;*   Local Frame Size  : 0 Args + 0 Auto + 0 Save = 0 byte                   *
    3935                    ;*****************************************************************************
    3936 0000084a           ESP8266DisableRXInterrupt:
    3937                    ;* --------------------------------------------------------------------------*
    3938                            .dwcfi  cfa_offset, 0
    3939                            .dwpsn  file "../esp8266.c",line 538,column 3,is_stmt,isa 1
    3940                    ;----------------------------------------------------------------------
    3941                    ; 538 | NVIC_DIS0_R = 1<<6; // interrupt 6                                     
    3942                    ;----------------------------------------------------------------------
    3943 0000084a 49BD              LDR       A2, $C$CON37          ; [DPU_3_PIPE] |538|  ; [ORIG 16-BIT INS]
    3944 0000084c 2040              MOVS      A1, #64               ; [DPU_3_PIPE] |538|  ; [ORIG 16-BIT INS]
    3945 0000084e 6008              STR       A1, [A2, #0]          ; [DPU_3_PIPE] |538|  ; [ORIG 16-BIT INS]
    3946                            .dwpsn  file "../esp8266.c",line 539,column 1,is_stmt,isa 1
    3947                    $C$DW$178       .dwtag  DW_TAG_TI_branch
TI ARM Assembler PC v5.2.4 Thu Sep 17 23:20:49 2015

Tools Copyright (c) 1996-2015 Texas Instruments Incorporated
esp8266.asm                                                          PAGE   81

    3948                            .dwattr $C$DW$178, DW_AT_low_pc(0x00)
    3949                            .dwattr $C$DW$178, DW_AT_TI_return
    3950 00000850 4770              BX        LR                    ; [DPU_3_PIPE]  ; [ORIG 16-BIT INS]
    3951                            ; BRANCH OCCURS                  ; [] 
    3952                            .dwattr $C$DW$177, DW_AT_TI_end_file("../esp8266.c")
    3953                            .dwattr $C$DW$177, DW_AT_TI_end_line(0x21b)
    3954                            .dwattr $C$DW$177, DW_AT_TI_end_column(0x01)
    3955                            .dwendentry
    3956                            .dwendtag $C$DW$177
    3957                    
    3958                    ;******************************************************************************
    3959                    ;* STRINGS                                                                    *
    3960                    ;******************************************************************************
    3961 00000852                   .sect   ".text"
    3962                            .align  4
    3963 00000854 41        ||$C$SL18||:    .string "AT+CIPSTO=%d",13,10,0
         00000855 54       
         00000856 2B       
         00000857 43       
         00000858 49       
         00000859 50       
         0000085a 53       
         0000085b 54       
         0000085c 4F       
         0000085d 3D       
         0000085e 25       
         0000085f 64       
         00000860 0D       
         00000861 0A       
         00000862 00       
    3964 00000863                   .sect   ".text"
    3965                            .clink
    3966                            .thumbfunc ESP8266PrintChar
    3967 00000864                   .thumb
    3968                            .global ESP8266PrintChar
    3969                    
    3970                    $C$DW$179       .dwtag  DW_TAG_subprogram, DW_AT_name("ESP8266PrintChar")
    3971                            .dwattr $C$DW$179, DW_AT_low_pc(ESP8266PrintChar)
    3972                            .dwattr $C$DW$179, DW_AT_high_pc(0x00)
    3973                            .dwattr $C$DW$179, DW_AT_TI_symbol_name("ESP8266PrintChar")
    3974                            .dwattr $C$DW$179, DW_AT_external
    3975                            .dwattr $C$DW$179, DW_AT_TI_begin_file("../esp8266.c")
    3976                            .dwattr $C$DW$179, DW_AT_TI_begin_line(0x224)
    3977                            .dwattr $C$DW$179, DW_AT_TI_begin_column(0x06)
    3978                            .dwattr $C$DW$179, DW_AT_decl_file("../esp8266.c")
    3979                            .dwattr $C$DW$179, DW_AT_decl_line(0x224)
    3980                            .dwattr $C$DW$179, DW_AT_decl_column(0x06)
    3981                            .dwattr $C$DW$179, DW_AT_TI_max_frame_size(0x08)
    3982                            .dwpsn  file "../esp8266.c",line 548,column 34,is_stmt,address ESP8266PrintChar,isa 1
    3983                    
    3984                            .dwfde $C$DW$CIE, ESP8266PrintChar
    3985                    $C$DW$180       .dwtag  DW_TAG_formal_parameter, DW_AT_name("input")
    3986                            .dwattr $C$DW$180, DW_AT_TI_symbol_name("input")
    3987                            .dwattr $C$DW$180, DW_AT_type(*$C$DW$T$6)
    3988                            .dwattr $C$DW$180, DW_AT_location[DW_OP_reg0]
TI ARM Assembler PC v5.2.4 Thu Sep 17 23:20:49 2015

Tools Copyright (c) 1996-2015 Texas Instruments Incorporated
esp8266.asm                                                          PAGE   82

    3989                    
    3990                    ;*****************************************************************************
    3991                    ;* FUNCTION NAME: ESP8266PrintChar                                           *
    3992                    ;*                                                                           *
    3993                    ;*   Regs Modified     : A1,A2,SP,SR                                         *
    3994                    ;*   Regs Used         : A1,A2,SP,LR,SR                                      *
    3995                    ;*   Local Frame Size  : 0 Args + 4 Auto + 0 Save = 4 byte                   *
    3996                    ;*****************************************************************************
    3997 00000864           ESP8266PrintChar:
    3998                    ;* --------------------------------------------------------------------------*
    3999                            .dwcfi  cfa_offset, 0
    4000 00000864 0D08F1AD          SUB       SP, SP, #8            ; [DPU_3_PIPE]  ; [KEEP 32-BIT INS]
    4001                            .dwcfi  cfa_offset, 8
    4002                    $C$DW$181       .dwtag  DW_TAG_variable, DW_AT_name("input")
    4003                            .dwattr $C$DW$181, DW_AT_TI_symbol_name("input")
    4004                            .dwattr $C$DW$181, DW_AT_type(*$C$DW$T$6)
    4005                            .dwattr $C$DW$181, DW_AT_location[DW_OP_breg13 0]
    4006                    ;----------------------------------------------------------------------
    4007                    ; 548 | void ESP8266PrintChar(char input){                                     
    4008                    ;----------------------------------------------------------------------
    4009 00000868 0000F88D          STRB      A1, [SP, #0]          ; [DPU_3_PIPE] |548|  ; [KEEP 32-BIT INS]
    4010                            .dwpsn  file "../esp8266.c",line 549,column 3,is_stmt,isa 1
    4011                    ;----------------------------------------------------------------------
    4012                    ; 549 | while((UART1_FR_R&UART_FR_TXFF) != 0) {};                              
    4013                    ;----------------------------------------------------------------------
    4014                    ;* --------------------------------------------------------------------------*
    4015                    ;*   BEGIN LOOP ||$C$L65||
    4016                    ;*
    4017                    ;*   Loop source line                : 549
    4018                    ;*   Loop closing brace source line  : 549
    4019                    ;*   Known Minimum Trip Count        : 1
    4020                    ;*   Known Maximum Trip Count        : 4294967295
    4021                    ;*   Known Max Trip Count Factor     : 1
    4022                    ;* --------------------------------------------------------------------------*
    4023 0000086c           ||$C$L65||:    
    4024                            .dwpsn  file "../esp8266.c",line 549,column 9,is_stmt,isa 1
    4025 0000086c 48B5              LDR       A1, $C$CON38          ; [DPU_3_PIPE] |549|  ; [ORIG 16-BIT INS]
    4026 0000086e 6800              LDR       A1, [A1, #0]          ; [DPU_3_PIPE] |549|  ; [ORIG 16-BIT INS]
    4027 00000870 0980              LSRS      A1, A1, #6            ; [DPU_3_PIPE] |549|  ; [ORIG 16-BIT INS]
    4028 00000872 D2FB              BCS       ||$C$L65||            ; [DPU_3_PIPE] |549|  ; [ORIG 16-BIT INS]
    4029                            ; BRANCHCC OCCURS {||$C$L65||}   ; [] |549| 
    4030                    ;* --------------------------------------------------------------------------*
    4031                            .dwpsn  file "../esp8266.c",line 550,column 3,is_stmt,isa 1
    4032                    ;----------------------------------------------------------------------
    4033                    ; 550 | UART1_DR_R = input;                                                    
    4034                    ; 551 | //  UART_OutChar(input); // debugging                                  
    4035                    ;----------------------------------------------------------------------
    4036 00000874 0000F89D          LDRB      A1, [SP, #0]          ; [DPU_3_PIPE] |550|  ; [KEEP 32-BIT INS]
    4037 00000878 49B3              LDR       A2, $C$CON39          ; [DPU_3_PIPE] |550|  ; [ORIG 16-BIT INS]
    4038 0000087a 6008              STR       A1, [A2, #0]          ; [DPU_3_PIPE] |550|  ; [ORIG 16-BIT INS]
    4039                            .dwpsn  file "../esp8266.c",line 552,column 1,is_stmt,isa 1
    4040 0000087c B002              ADD       SP, SP, #8            ; [DPU_3_PIPE]  ; [ORIG 16-BIT INS]
    4041                            .dwcfi  cfa_offset, 0
    4042                    $C$DW$182       .dwtag  DW_TAG_TI_branch
    4043                            .dwattr $C$DW$182, DW_AT_low_pc(0x00)
TI ARM Assembler PC v5.2.4 Thu Sep 17 23:20:49 2015

Tools Copyright (c) 1996-2015 Texas Instruments Incorporated
esp8266.asm                                                          PAGE   83

    4044                            .dwattr $C$DW$182, DW_AT_TI_return
    4045 0000087e 4770              BX        LR                    ; [DPU_3_PIPE]  ; [ORIG 16-BIT INS]
    4046                            ; BRANCH OCCURS                  ; [] 
    4047                            .dwattr $C$DW$179, DW_AT_TI_end_file("../esp8266.c")
    4048                            .dwattr $C$DW$179, DW_AT_TI_end_line(0x228)
    4049                            .dwattr $C$DW$179, DW_AT_TI_end_column(0x01)
    4050                            .dwendentry
    4051                            .dwendtag $C$DW$179
    4052                    
    4053                    ;******************************************************************************
    4054                    ;* STRINGS                                                                    *
    4055                    ;******************************************************************************
    4056 00000880                   .sect   ".text"
    4057                            .align  4
    4058 00000880 41        ||$C$SL19||:    .string "AT+CIPSERVER=1,%d",13,10,0
         00000881 54       
         00000882 2B       
         00000883 43       
         00000884 49       
         00000885 50       
         00000886 53       
         00000887 45       
         00000888 52       
         00000889 56       
         0000088a 45       
         0000088b 52       
         0000088c 3D       
         0000088d 31       
         0000088e 2C       
         0000088f 25       
         00000890 64       
         00000891 0D       
         00000892 0A       
         00000893 00       
    4059                            .align  4
    4060 00000894 41        ||$C$SL20||:    .string "AT+CIPSERVER=0,%d",13,10,0
         00000895 54       
         00000896 2B       
         00000897 43       
         00000898 49       
         00000899 50       
         0000089a 53       
         0000089b 45       
         0000089c 52       
         0000089d 56       
         0000089e 45       
         0000089f 52       
         000008a0 3D       
         000008a1 30       
         000008a2 2C       
         000008a3 25       
         000008a4 64       
         000008a5 0D       
         000008a6 0A       
         000008a7 00       
TI ARM Assembler PC v5.2.4 Thu Sep 17 23:20:49 2015

Tools Copyright (c) 1996-2015 Texas Instruments Incorporated
esp8266.asm                                                          PAGE   84

    4061 000008a8                   .sect   ".text"
    4062                            .clink
    4063                            .thumbfunc ESP8266_GetIPAddress
    4064 000008a8                   .thumb
    4065                            .global ESP8266_GetIPAddress
    4066                    
    4067                    $C$DW$183       .dwtag  DW_TAG_subprogram, DW_AT_name("ESP8266_GetIPAddress")
    4068                            .dwattr $C$DW$183, DW_AT_low_pc(ESP8266_GetIPAddress)
    4069                            .dwattr $C$DW$183, DW_AT_high_pc(0x00)
    4070                            .dwattr $C$DW$183, DW_AT_TI_symbol_name("ESP8266_GetIPAddress")
    4071                            .dwattr $C$DW$183, DW_AT_external
    4072                            .dwattr $C$DW$183, DW_AT_type(*$C$DW$T$10)
    4073                            .dwattr $C$DW$183, DW_AT_TI_begin_file("../esp8266.c")
    4074                            .dwattr $C$DW$183, DW_AT_TI_begin_line(0x22f)
    4075                            .dwattr $C$DW$183, DW_AT_TI_begin_column(0x05)
    4076                            .dwattr $C$DW$183, DW_AT_decl_file("../esp8266.c")
    4077                            .dwattr $C$DW$183, DW_AT_decl_line(0x22f)
    4078                            .dwattr $C$DW$183, DW_AT_decl_column(0x05)
    4079                            .dwattr $C$DW$183, DW_AT_TI_max_frame_size(0x08)
    4080                            .dwpsn  file "../esp8266.c",line 559,column 31,is_stmt,address ESP8266_GetIPAddress,isa 1
    4081                    
    4082                            .dwfde $C$DW$CIE, ESP8266_GetIPAddress
    4083                    ;----------------------------------------------------------------------
    4084                    ; 559 | int ESP8266_GetIPAddress(void){                                        
    4085                    ;----------------------------------------------------------------------
    4086                    
    4087                    ;*****************************************************************************
    4088                    ;* FUNCTION NAME: ESP8266_GetIPAddress                                       *
    4089                    ;*                                                                           *
    4090                    ;*   Regs Modified     : A1,A2,A3,A4,V9,SP,LR,SR,D0,D0_hi,D1,D1_hi,D2,D2_hi, *
    4091                    ;*                           D3,D3_hi,D4,D4_hi,D5,D5_hi,D6,D6_hi,D7,D7_hi,   *
    4092                    ;*                           FPEXC,FPSCR                                     *
    4093                    ;*   Regs Used         : A1,A2,A3,A4,V9,SP,LR,SR,D0,D0_hi,D1,D1_hi,D2,D2_hi, *
    4094                    ;*                           D3,D3_hi,D4,D4_hi,D5,D5_hi,D6,D6_hi,D7,D7_hi,   *
    4095                    ;*                           FPEXC,FPSCR                                     *
    4096                    ;*   Local Frame Size  : 0 Args + 4 Auto + 4 Save = 8 byte                   *
    4097                    ;*****************************************************************************
    4098 000008a8           ESP8266_GetIPAddress:
    4099                    ;* --------------------------------------------------------------------------*
    4100                            .dwcfi  cfa_offset, 0
    4101 000008a8 B508              PUSH      {A4, LR}              ; [DPU_3_PIPE]  ; [ORIG 16-BIT INS]
    4102                            .dwcfi  cfa_offset, 8
    4103                            .dwcfi  save_reg_to_mem, 14, -4
    4104                            .dwcfi  save_reg_to_mem, 3, -8
    4105                    $C$DW$184       .dwtag  DW_TAG_variable, DW_AT_name("try")
    4106                            .dwattr $C$DW$184, DW_AT_TI_symbol_name("try")
    4107                            .dwattr $C$DW$184, DW_AT_type(*$C$DW$T$10)
    4108                            .dwattr $C$DW$184, DW_AT_location[DW_OP_breg13 0]
    4109                            .dwpsn  file "../esp8266.c",line 560,column 10,is_stmt,isa 1
    4110                    ;----------------------------------------------------------------------
    4111                    ; 560 | int try=MAXTRY;                                                        
    4112                    ;----------------------------------------------------------------------
    4113 000008aa 200A              MOVS      A1, #10               ; [DPU_3_PIPE] |560|  ; [ORIG 16-BIT INS]
    4114 000008ac 9000              STR       A1, [SP, #0]          ; [DPU_3_PIPE] |560|  ; [ORIG 16-BIT INS]
    4115                            .dwpsn  file "../esp8266.c",line 561,column 3,is_stmt,isa 1
TI ARM Assembler PC v5.2.4 Thu Sep 17 23:20:49 2015

Tools Copyright (c) 1996-2015 Texas Instruments Incorporated
esp8266.asm                                                          PAGE   85

    4116                    ;----------------------------------------------------------------------
    4117                    ; 561 | strcpy(SearchString, "OK");                                            
    4118                    ;----------------------------------------------------------------------
    4119 000008ae 48A7              LDR       A1, $C$CON40          ; [DPU_3_PIPE] |561|  ; [ORIG 16-BIT INS]
    4120 000008b0 49A7              LDR       A2, $C$CON41          ; [] |561|  ; [ORIG 16-BIT INS]
    4121                    $C$DW$185       .dwtag  DW_TAG_TI_branch
    4122                            .dwattr $C$DW$185, DW_AT_low_pc(0x00)
    4123                            .dwattr $C$DW$185, DW_AT_name("strcpy")
    4124                            .dwattr $C$DW$185, DW_AT_TI_call
    4125 000008b2 FFFEF7FF!         BL        strcpy                ; [DPU_3_PIPE] |561|  ; [KEEP 32-BIT INS]
    4126                            ; CALL OCCURS {strcpy }          ; [] |561| 
    4127                            .dwpsn  file "../esp8266.c",line 562,column 3,is_stmt,isa 1
    4128                    ;----------------------------------------------------------------------
    4129                    ; 562 | SearchLooking = true;                                                  
    4130                    ;----------------------------------------------------------------------
    4131 000008b6 494A              LDR       A2, $C$CON34          ; [DPU_3_PIPE] |562|  ; [ORIG 16-BIT INS]
    4132 000008b8 2001              MOVS      A1, #1                ; [DPU_3_PIPE] |562|  ; [ORIG 16-BIT INS]
    4133 000008ba 7008              STRB      A1, [A2, #0]          ; [DPU_3_PIPE] |562|  ; [ORIG 16-BIT INS]
    4134                            .dwpsn  file "../esp8266.c",line 563,column 3,is_stmt,isa 1
    4135                    ;----------------------------------------------------------------------
    4136                    ; 563 | SearchFound = false;                                                   
    4137                    ;----------------------------------------------------------------------
    4138 000008bc 49A5              LDR       A2, $C$CON42          ; [DPU_3_PIPE] |563|  ; [ORIG 16-BIT INS]
    4139 000008be 2000              MOVS      A1, #0                ; [DPU_3_PIPE] |563|  ; [ORIG 16-BIT INS]
    4140 000008c0 7008              STRB      A1, [A2, #0]          ; [DPU_3_PIPE] |563|  ; [ORIG 16-BIT INS]
    4141                            .dwpsn  file "../esp8266.c",line 564,column 3,is_stmt,isa 1
    4142                    ;----------------------------------------------------------------------
    4143                    ; 564 | while(try){                                                            
    4144                    ;----------------------------------------------------------------------
    4145 000008c2 9800              LDR       A1, [SP, #0]          ; [DPU_3_PIPE] |564|  ; [ORIG 16-BIT INS]
    4146 000008c4 B188              CBZ       A1, ||$C$L68||        ; []  ; [ORIG 16-BIT INS]
    4147                            ; BRANCHCC OCCURS {||$C$L68||}   ; [] |564| 
    4148                    ;* --------------------------------------------------------------------------*
    4149                    ;*   BEGIN LOOP ||$C$L66||
    4150                    ;*
    4151                    ;*   Loop source line                : 564
    4152                    ;*   Loop closing brace source line  : 570
    4153                    ;*   Known Minimum Trip Count        : 1
    4154                    ;*   Known Maximum Trip Count        : 4294967295
    4155                    ;*   Known Max Trip Count Factor     : 1
    4156                    ;* --------------------------------------------------------------------------*
    4157 000008c6           ||$C$L66||:    
    4158                            .dwpsn  file "../esp8266.c",line 565,column 5,is_stmt,isa 1
    4159                    ;----------------------------------------------------------------------
    4160                    ; 565 | ESP8266SendCommand("AT+CIFSR\r\n");                                    
    4161                    ;----------------------------------------------------------------------
    4162 000008c6 A07F              ADR       A1, $C$SL27           ; [DPU_3_PIPE] |565|  ; [ORIG 16-BIT INS]
    4163                    $C$DW$186       .dwtag  DW_TAG_TI_branch
    4164                            .dwattr $C$DW$186, DW_AT_low_pc(0x00)
    4165                            .dwattr $C$DW$186, DW_AT_name("ESP8266SendCommand")
    4166                            .dwattr $C$DW$186, DW_AT_TI_call
    4167 000008c8 FCB0F7FF          BL        ESP8266SendCommand    ; [DPU_3_PIPE] |565|  ; [KEEP 32-BIT INS]
    4168                            ; CALL OCCURS {ESP8266SendCommand }  ; [] |565| 
    4169                            .dwpsn  file "../esp8266.c",line 567,column 5,is_stmt,isa 1
    4170                    ;----------------------------------------------------------------------
TI ARM Assembler PC v5.2.4 Thu Sep 17 23:20:49 2015

Tools Copyright (c) 1996-2015 Texas Instruments Incorporated
esp8266.asm                                                          PAGE   86

    4171                    ; 567 | DelayMsSearching(5000);                                                
    4172                    ;----------------------------------------------------------------------
    4173 000008cc 3088F241          MOV       A1, #5000             ; [DPU_3_PIPE] |567|  ; [KEEP 32-BIT INS]
    4174                    $C$DW$187       .dwtag  DW_TAG_TI_branch
    4175                            .dwattr $C$DW$187, DW_AT_low_pc(0x00)
    4176                            .dwattr $C$DW$187, DW_AT_name("DelayMsSearching")
    4177                            .dwattr $C$DW$187, DW_AT_TI_call
    4178 000008d0 FCDCF7FF          BL        DelayMsSearching      ; [DPU_3_PIPE] |567|  ; [KEEP 32-BIT INS]
    4179                            ; CALL OCCURS {DelayMsSearching }  ; [] |567| 
    4180                            .dwpsn  file "../esp8266.c",line 568,column 5,is_stmt,isa 1
    4181                    ;----------------------------------------------------------------------
    4182                    ; 568 | if(SearchFound) return 1; // success                                   
    4183                    ;----------------------------------------------------------------------
    4184 000008d4 489F              LDR       A1, $C$CON42          ; [DPU_3_PIPE] |568|  ; [ORIG 16-BIT INS]
    4185 000008d6 7800              LDRB      A1, [A1, #0]          ; [DPU_3_PIPE] |568|  ; [ORIG 16-BIT INS]
    4186 000008d8 B108              CBZ       A1, ||$C$L67||        ; []  ; [ORIG 16-BIT INS]
    4187                            ; BRANCHCC OCCURS {||$C$L67||}   ; [] |568| 
    4188                    ;* --------------------------------------------------------------------------*
    4189                            .dwpsn  file "../esp8266.c",line 568,column 21,is_stmt,isa 1
    4190 000008da 2001              MOVS      A1, #1                ; [DPU_3_PIPE] |568|  ; [ORIG 16-BIT INS]
    4191 000008dc E006              B         ||$C$L69||            ; [DPU_3_PIPE] |568|  ; [ORIG 16-BIT INS]
    4192                            ; BRANCH OCCURS {||$C$L69||}     ; [] |568| 
    4193                    ;* --------------------------------------------------------------------------*
    4194 000008de           ||$C$L67||:    
    4195                            .dwpsn  file "../esp8266.c",line 569,column 5,is_stmt,isa 1
    4196                    ;----------------------------------------------------------------------
    4197                    ; 569 | try--;                                                                 
    4198                    ;----------------------------------------------------------------------
    4199 000008de 9800              LDR       A1, [SP, #0]          ; [DPU_3_PIPE] |569|  ; [ORIG 16-BIT INS]
    4200 000008e0 1E40              SUBS      A1, A1, #1            ; [DPU_3_PIPE] |569|  ; [ORIG 16-BIT INS]
    4201 000008e2 9000              STR       A1, [SP, #0]          ; [DPU_3_PIPE] |569|  ; [ORIG 16-BIT INS]
    4202                            .dwpsn  file "../esp8266.c",line 564,column 3,is_stmt,isa 1
    4203 000008e4 9800              LDR       A1, [SP, #0]          ; [DPU_3_PIPE] |564|  ; [ORIG 16-BIT INS]
    4204 000008e6 2800              CMP       A1, #0                ; [DPU_3_PIPE] |564|  ; [ORIG 16-BIT INS]
    4205 000008e8 D1ED              BNE       ||$C$L66||            ; [DPU_3_PIPE] |564|  ; [ORIG 16-BIT INS]
    4206                            ; BRANCHCC OCCURS {||$C$L66||}   ; [] |564| 
    4207                    ;* --------------------------------------------------------------------------*
    4208 000008ea           ||$C$L68||:    
    4209                            .dwpsn  file "../esp8266.c",line 571,column 3,is_stmt,isa 1
    4210                    ;----------------------------------------------------------------------
    4211                    ; 571 | return 0; // fail                                                      
    4212                    ;----------------------------------------------------------------------
    4213 000008ea 2000              MOVS      A1, #0                ; [DPU_3_PIPE] |571|  ; [ORIG 16-BIT INS]
    4214                    ;* --------------------------------------------------------------------------*
    4215 000008ec           ||$C$L69||:    
    4216                            .dwpsn  file "../esp8266.c",line 572,column 1,is_stmt,isa 1
    4217                    $C$DW$188       .dwtag  DW_TAG_TI_branch
    4218                            .dwattr $C$DW$188, DW_AT_low_pc(0x00)
    4219                            .dwattr $C$DW$188, DW_AT_TI_return
    4220 000008ec BD08              POP       {A4, PC}              ; [DPU_3_PIPE]  ; [ORIG 16-BIT INS]
    4221                            .dwcfi  cfa_offset, 0
    4222                            ; BRANCH OCCURS                  ; [] 
    4223                            .dwattr $C$DW$183, DW_AT_TI_end_file("../esp8266.c")
    4224                            .dwattr $C$DW$183, DW_AT_TI_end_line(0x23c)
    4225                            .dwattr $C$DW$183, DW_AT_TI_end_column(0x01)
TI ARM Assembler PC v5.2.4 Thu Sep 17 23:20:49 2015

Tools Copyright (c) 1996-2015 Texas Instruments Incorporated
esp8266.asm                                                          PAGE   87

    4226                            .dwendentry
    4227                            .dwendtag $C$DW$183
    4228                    
    4229                    ;******************************************************************************
    4230                    ;* STRINGS                                                                    *
    4231                    ;******************************************************************************
    4232 000008ee                   .sect   ".text"
    4233                            .align  4
    4234 000008f0 41        ||$C$SL21||:    .string "AT+CWJAP=",34,"%s",34,",",34,"%s",34,13,10,0
         000008f1 54       
         000008f2 2B       
         000008f3 43       
         000008f4 57       
         000008f5 4A       
         000008f6 41       
         000008f7 50       
         000008f8 3D       
         000008f9 22       
         000008fa 25       
         000008fb 73       
         000008fc 22       
         000008fd 2C       
         000008fe 22       
         000008ff 25       
         00000900 73       
         00000901 22       
         00000902 0D       
         00000903 0A       
         00000904 00       
    4235 00000905                   .sect   ".text"
    4236                            .clink
    4237                            .thumbfunc ESP8266_MakeTCPConnection
    4238 00000906                   .thumb
    4239                            .global ESP8266_MakeTCPConnection
    4240                    
    4241                    $C$DW$189       .dwtag  DW_TAG_subprogram, DW_AT_name("ESP8266_MakeTCPConnection")
    4242                            .dwattr $C$DW$189, DW_AT_low_pc(ESP8266_MakeTCPConnection)
    4243                            .dwattr $C$DW$189, DW_AT_high_pc(0x00)
    4244                            .dwattr $C$DW$189, DW_AT_TI_symbol_name("ESP8266_MakeTCPConnection")
    4245                            .dwattr $C$DW$189, DW_AT_external
    4246                            .dwattr $C$DW$189, DW_AT_type(*$C$DW$T$10)
    4247                            .dwattr $C$DW$189, DW_AT_TI_begin_file("../esp8266.c")
    4248                            .dwattr $C$DW$189, DW_AT_TI_begin_line(0x242)
    4249                            .dwattr $C$DW$189, DW_AT_TI_begin_column(0x05)
    4250                            .dwattr $C$DW$189, DW_AT_decl_file("../esp8266.c")
    4251                            .dwattr $C$DW$189, DW_AT_decl_line(0x242)
    4252                            .dwattr $C$DW$189, DW_AT_decl_column(0x05)
    4253                            .dwattr $C$DW$189, DW_AT_TI_max_frame_size(0x08)
    4254                            .dwpsn  file "../esp8266.c",line 578,column 36,is_stmt,address ESP8266_MakeTCPConnection,isa 1
    4255                    
    4256                            .dwfde $C$DW$CIE, ESP8266_MakeTCPConnection
    4257                    ;----------------------------------------------------------------------
    4258                    ; 578 | int ESP8266_MakeTCPConnection(void){                                   
    4259                    ;----------------------------------------------------------------------
    4260                    
TI ARM Assembler PC v5.2.4 Thu Sep 17 23:20:49 2015

Tools Copyright (c) 1996-2015 Texas Instruments Incorporated
esp8266.asm                                                          PAGE   88

    4261                    ;*****************************************************************************
    4262                    ;* FUNCTION NAME: ESP8266_MakeTCPConnection                                  *
    4263                    ;*                                                                           *
    4264                    ;*   Regs Modified     : A1,A2,A3,A4,V9,SP,LR,SR,D0,D0_hi,D1,D1_hi,D2,D2_hi, *
    4265                    ;*                           D3,D3_hi,D4,D4_hi,D5,D5_hi,D6,D6_hi,D7,D7_hi,   *
    4266                    ;*                           FPEXC,FPSCR                                     *
    4267                    ;*   Regs Used         : A1,A2,A3,A4,V9,SP,LR,SR,D0,D0_hi,D1,D1_hi,D2,D2_hi, *
    4268                    ;*                           D3,D3_hi,D4,D4_hi,D5,D5_hi,D6,D6_hi,D7,D7_hi,   *
    4269                    ;*                           FPEXC,FPSCR                                     *
    4270                    ;*   Local Frame Size  : 0 Args + 4 Auto + 4 Save = 8 byte                   *
    4271                    ;*****************************************************************************
    4272 00000906           ESP8266_MakeTCPConnection:
    4273                    ;* --------------------------------------------------------------------------*
    4274                            .dwcfi  cfa_offset, 0
    4275 00000906 B508              PUSH      {A4, LR}              ; [DPU_3_PIPE]  ; [ORIG 16-BIT INS]
    4276                            .dwcfi  cfa_offset, 8
    4277                            .dwcfi  save_reg_to_mem, 14, -4
    4278                            .dwcfi  save_reg_to_mem, 3, -8
    4279                    $C$DW$190       .dwtag  DW_TAG_variable, DW_AT_name("try")
    4280                            .dwattr $C$DW$190, DW_AT_TI_symbol_name("try")
    4281                            .dwattr $C$DW$190, DW_AT_type(*$C$DW$T$10)
    4282                            .dwattr $C$DW$190, DW_AT_location[DW_OP_breg13 0]
    4283                            .dwpsn  file "../esp8266.c",line 579,column 10,is_stmt,isa 1
    4284                    ;----------------------------------------------------------------------
    4285                    ; 579 | int try=MAXTRY;                                                        
    4286                    ;----------------------------------------------------------------------
    4287 00000908 200A              MOVS      A1, #10               ; [DPU_3_PIPE] |579|  ; [ORIG 16-BIT INS]
    4288 0000090a 9000              STR       A1, [SP, #0]          ; [DPU_3_PIPE] |579|  ; [ORIG 16-BIT INS]
    4289                            .dwpsn  file "../esp8266.c",line 580,column 3,is_stmt,isa 1
    4290                    ;----------------------------------------------------------------------
    4291                    ; 580 | strcpy(SearchString, "OK");                                            
    4292                    ;----------------------------------------------------------------------
    4293 0000090c 488F              LDR       A1, $C$CON40          ; [DPU_3_PIPE] |580|  ; [ORIG 16-BIT INS]
    4294 0000090e 4990              LDR       A2, $C$CON41          ; [] |580|  ; [ORIG 16-BIT INS]
    4295                    $C$DW$191       .dwtag  DW_TAG_TI_branch
    4296                            .dwattr $C$DW$191, DW_AT_low_pc(0x00)
    4297                            .dwattr $C$DW$191, DW_AT_name("strcpy")
    4298                            .dwattr $C$DW$191, DW_AT_TI_call
    4299 00000910 FFFEF7FF!         BL        strcpy                ; [DPU_3_PIPE] |580|  ; [KEEP 32-BIT INS]
    4300                            ; CALL OCCURS {strcpy }          ; [] |580| 
    4301                            .dwpsn  file "../esp8266.c",line 581,column 3,is_stmt,isa 1
    4302                    ;----------------------------------------------------------------------
    4303                    ; 581 | SearchLooking = true;                                                  
    4304                    ;----------------------------------------------------------------------
    4305 00000914 4932              LDR       A2, $C$CON34          ; [DPU_3_PIPE] |581|  ; [ORIG 16-BIT INS]
    4306 00000916 2001              MOVS      A1, #1                ; [DPU_3_PIPE] |581|  ; [ORIG 16-BIT INS]
    4307 00000918 7008              STRB      A1, [A2, #0]          ; [DPU_3_PIPE] |581|  ; [ORIG 16-BIT INS]
    4308                            .dwpsn  file "../esp8266.c",line 582,column 3,is_stmt,isa 1
    4309                    ;----------------------------------------------------------------------
    4310                    ; 582 | SearchFound = false;                                                   
    4311                    ;----------------------------------------------------------------------
    4312 0000091a 498E              LDR       A2, $C$CON42          ; [DPU_3_PIPE] |582|  ; [ORIG 16-BIT INS]
    4313 0000091c 2000              MOVS      A1, #0                ; [DPU_3_PIPE] |582|  ; [ORIG 16-BIT INS]
    4314 0000091e 7008              STRB      A1, [A2, #0]          ; [DPU_3_PIPE] |582|  ; [ORIG 16-BIT INS]
    4315                            .dwpsn  file "../esp8266.c",line 583,column 3,is_stmt,isa 1
TI ARM Assembler PC v5.2.4 Thu Sep 17 23:20:49 2015

Tools Copyright (c) 1996-2015 Texas Instruments Incorporated
esp8266.asm                                                          PAGE   89

    4316                    ;----------------------------------------------------------------------
    4317                    ; 583 | while(try){                                                            
    4318                    ;----------------------------------------------------------------------
    4319 00000920 9800              LDR       A1, [SP, #0]          ; [DPU_3_PIPE] |583|  ; [ORIG 16-BIT INS]
    4320 00000922 B188              CBZ       A1, ||$C$L72||        ; []  ; [ORIG 16-BIT INS]
    4321                            ; BRANCHCC OCCURS {||$C$L72||}   ; [] |583| 
    4322                    ;* --------------------------------------------------------------------------*
    4323                    ;*   BEGIN LOOP ||$C$L70||
    4324                    ;*
    4325                    ;*   Loop source line                : 583
    4326                    ;*   Loop closing brace source line  : 589
    4327                    ;*   Known Minimum Trip Count        : 1
    4328                    ;*   Known Maximum Trip Count        : 4294967295
    4329                    ;*   Known Max Trip Count Factor     : 1
    4330                    ;* --------------------------------------------------------------------------*
    4331 00000924           ||$C$L70||:    
    4332                            .dwpsn  file "../esp8266.c",line 584,column 5,is_stmt,isa 1
    4333                    ;----------------------------------------------------------------------
    4334                    ; 584 | ESP8266SendCommand("AT+CIPSTART=\"TCP\",\"144.76.83.20\",80\r\n");   //
    4335                    ;     |  openweathermap.org                                                    
    4336                    ; 585 | //    ESP8266SendCommand("AT+CIPSTART=\"TCP\",\"64.233.171.141\",80\r\n
    4337                    ;     | ");   //embedded-systems-server.appspot.com                            
    4338                    ;----------------------------------------------------------------------
    4339 00000924 A06A              ADR       A1, $C$SL28           ; [DPU_3_PIPE] |584|  ; [ORIG 16-BIT INS]
    4340                    $C$DW$192       .dwtag  DW_TAG_TI_branch
    4341                            .dwattr $C$DW$192, DW_AT_low_pc(0x00)
    4342                            .dwattr $C$DW$192, DW_AT_name("ESP8266SendCommand")
    4343                            .dwattr $C$DW$192, DW_AT_TI_call
    4344 00000926 FC81F7FF          BL        ESP8266SendCommand    ; [DPU_3_PIPE] |584|  ; [KEEP 32-BIT INS]
    4345                            ; CALL OCCURS {ESP8266SendCommand }  ; [] |584| 
    4346                            .dwpsn  file "../esp8266.c",line 586,column 5,is_stmt,isa 1
    4347                    ;----------------------------------------------------------------------
    4348                    ; 586 | DelayMsSearching(8000);                                                
    4349                    ;----------------------------------------------------------------------
    4350 0000092a 50FAF44F          MOV       A1, #8000             ; [DPU_3_PIPE] |586|  ; [KEEP 32-BIT INS]
    4351                    $C$DW$193       .dwtag  DW_TAG_TI_branch
    4352                            .dwattr $C$DW$193, DW_AT_low_pc(0x00)
    4353                            .dwattr $C$DW$193, DW_AT_name("DelayMsSearching")
    4354                            .dwattr $C$DW$193, DW_AT_TI_call
    4355 0000092e FCADF7FF          BL        DelayMsSearching      ; [DPU_3_PIPE] |586|  ; [KEEP 32-BIT INS]
    4356                            ; CALL OCCURS {DelayMsSearching }  ; [] |586| 
    4357                            .dwpsn  file "../esp8266.c",line 587,column 5,is_stmt,isa 1
    4358                    ;----------------------------------------------------------------------
    4359                    ; 587 | if(SearchFound) return 1; // success                                   
    4360                    ;----------------------------------------------------------------------
    4361 00000932 4888              LDR       A1, $C$CON42          ; [DPU_3_PIPE] |587|  ; [ORIG 16-BIT INS]
    4362 00000934 7800              LDRB      A1, [A1, #0]          ; [DPU_3_PIPE] |587|  ; [ORIG 16-BIT INS]
    4363 00000936 B108              CBZ       A1, ||$C$L71||        ; []  ; [ORIG 16-BIT INS]
    4364                            ; BRANCHCC OCCURS {||$C$L71||}   ; [] |587| 
    4365                    ;* --------------------------------------------------------------------------*
    4366                            .dwpsn  file "../esp8266.c",line 587,column 21,is_stmt,isa 1
    4367 00000938 2001              MOVS      A1, #1                ; [DPU_3_PIPE] |587|  ; [ORIG 16-BIT INS]
    4368 0000093a E006              B         ||$C$L73||            ; [DPU_3_PIPE] |587|  ; [ORIG 16-BIT INS]
    4369                            ; BRANCH OCCURS {||$C$L73||}     ; [] |587| 
    4370                    ;* --------------------------------------------------------------------------*
TI ARM Assembler PC v5.2.4 Thu Sep 17 23:20:49 2015

Tools Copyright (c) 1996-2015 Texas Instruments Incorporated
esp8266.asm                                                          PAGE   90

    4371 0000093c           ||$C$L71||:    
    4372                            .dwpsn  file "../esp8266.c",line 588,column 5,is_stmt,isa 1
    4373                    ;----------------------------------------------------------------------
    4374                    ; 588 | try--;                                                                 
    4375                    ;----------------------------------------------------------------------
    4376 0000093c 9800              LDR       A1, [SP, #0]          ; [DPU_3_PIPE] |588|  ; [ORIG 16-BIT INS]
    4377 0000093e 1E40              SUBS      A1, A1, #1            ; [DPU_3_PIPE] |588|  ; [ORIG 16-BIT INS]
    4378 00000940 9000              STR       A1, [SP, #0]          ; [DPU_3_PIPE] |588|  ; [ORIG 16-BIT INS]
    4379                            .dwpsn  file "../esp8266.c",line 583,column 3,is_stmt,isa 1
    4380 00000942 9800              LDR       A1, [SP, #0]          ; [DPU_3_PIPE] |583|  ; [ORIG 16-BIT INS]
    4381 00000944 2800              CMP       A1, #0                ; [DPU_3_PIPE] |583|  ; [ORIG 16-BIT INS]
    4382 00000946 D1ED              BNE       ||$C$L70||            ; [DPU_3_PIPE] |583|  ; [ORIG 16-BIT INS]
    4383                            ; BRANCHCC OCCURS {||$C$L70||}   ; [] |583| 
    4384                    ;* --------------------------------------------------------------------------*
    4385 00000948           ||$C$L72||:    
    4386                            .dwpsn  file "../esp8266.c",line 590,column 3,is_stmt,isa 1
    4387                    ;----------------------------------------------------------------------
    4388                    ; 590 | return 0; // fail                                                      
    4389                    ;----------------------------------------------------------------------
    4390 00000948 2000              MOVS      A1, #0                ; [DPU_3_PIPE] |590|  ; [ORIG 16-BIT INS]
    4391                    ;* --------------------------------------------------------------------------*
    4392 0000094a           ||$C$L73||:    
    4393                            .dwpsn  file "../esp8266.c",line 591,column 1,is_stmt,isa 1
    4394                    $C$DW$194       .dwtag  DW_TAG_TI_branch
    4395                            .dwattr $C$DW$194, DW_AT_low_pc(0x00)
    4396                            .dwattr $C$DW$194, DW_AT_TI_return
    4397 0000094a BD08              POP       {A4, PC}              ; [DPU_3_PIPE]  ; [ORIG 16-BIT INS]
    4398                            .dwcfi  cfa_offset, 0
    4399                            ; BRANCH OCCURS                  ; [] 
    4400                            .dwattr $C$DW$189, DW_AT_TI_end_file("../esp8266.c")
    4401                            .dwattr $C$DW$189, DW_AT_TI_end_line(0x24f)
    4402                            .dwattr $C$DW$189, DW_AT_TI_end_column(0x01)
    4403                            .dwendentry
    4404                            .dwendtag $C$DW$189
    4405                    
    4406 0000094c                   .sect   ".text"
    4407                            .clink
    4408                            .thumbfunc ESP8266_SendTCP
    4409 0000094c                   .thumb
    4410                            .global ESP8266_SendTCP
    4411                    
    4412                    $C$DW$195       .dwtag  DW_TAG_subprogram, DW_AT_name("ESP8266_SendTCP")
    4413                            .dwattr $C$DW$195, DW_AT_low_pc(ESP8266_SendTCP)
    4414                            .dwattr $C$DW$195, DW_AT_high_pc(0x00)
    4415                            .dwattr $C$DW$195, DW_AT_TI_symbol_name("ESP8266_SendTCP")
    4416                            .dwattr $C$DW$195, DW_AT_external
    4417                            .dwattr $C$DW$195, DW_AT_type(*$C$DW$T$10)
    4418                            .dwattr $C$DW$195, DW_AT_TI_begin_file("../esp8266.c")
    4419                            .dwattr $C$DW$195, DW_AT_TI_begin_line(0x257)
    4420                            .dwattr $C$DW$195, DW_AT_TI_begin_column(0x05)
    4421                            .dwattr $C$DW$195, DW_AT_decl_file("../esp8266.c")
    4422                            .dwattr $C$DW$195, DW_AT_decl_line(0x257)
    4423                            .dwattr $C$DW$195, DW_AT_decl_column(0x05)
    4424                            .dwattr $C$DW$195, DW_AT_TI_max_frame_size(0x08)
    4425                            .dwpsn  file "../esp8266.c",line 599,column 26,is_stmt,address ESP8266_SendTCP,isa 1
TI ARM Assembler PC v5.2.4 Thu Sep 17 23:20:49 2015

Tools Copyright (c) 1996-2015 Texas Instruments Incorporated
esp8266.asm                                                          PAGE   91

    4426                    
    4427                            .dwfde $C$DW$CIE, ESP8266_SendTCP
    4428                    ;----------------------------------------------------------------------
    4429                    ; 599 | int ESP8266_SendTCP(void){                                             
    4430                    ;----------------------------------------------------------------------
    4431                    
    4432                    ;*****************************************************************************
    4433                    ;* FUNCTION NAME: ESP8266_SendTCP                                            *
    4434                    ;*                                                                           *
    4435                    ;*   Regs Modified     : A1,A2,A3,A4,V9,SP,LR,SR,D0,D0_hi,D1,D1_hi,D2,D2_hi, *
    4436                    ;*                           D3,D3_hi,D4,D4_hi,D5,D5_hi,D6,D6_hi,D7,D7_hi,   *
    4437                    ;*                           FPEXC,FPSCR                                     *
    4438                    ;*   Regs Used         : A1,A2,A3,A4,V9,SP,LR,SR,D0,D0_hi,D1,D1_hi,D2,D2_hi, *
    4439                    ;*                           D3,D3_hi,D4,D4_hi,D5,D5_hi,D6,D6_hi,D7,D7_hi,   *
    4440                    ;*                           FPEXC,FPSCR                                     *
    4441                    ;*   Local Frame Size  : 0 Args + 0 Auto + 4 Save = 4 byte                   *
    4442                    ;*****************************************************************************
    4443 0000094c           ESP8266_SendTCP:
    4444                    ;* --------------------------------------------------------------------------*
    4445                            .dwcfi  cfa_offset, 0
    4446 0000094c B508              PUSH      {A4, LR}              ; [DPU_3_PIPE]  ; [ORIG 16-BIT INS]
    4447                            .dwcfi  cfa_offset, 8
    4448                            .dwcfi  save_reg_to_mem, 14, -4
    4449                            .dwcfi  save_reg_to_mem, 3, -8
    4450                            .dwpsn  file "../esp8266.c",line 600,column 3,is_stmt,isa 1
    4451                    ;----------------------------------------------------------------------
    4452                    ; 600 | sprintf((char*)ESP8266_TXBuffer, "AT+CIPSEND=%d\r\n", strlen(Fetch));  
    4453                    ;----------------------------------------------------------------------
    4454 0000094e 4882              LDR       A1, $C$CON43          ; [DPU_3_PIPE] |600|  ; [ORIG 16-BIT INS]
    4455                    $C$DW$196       .dwtag  DW_TAG_TI_branch
    4456                            .dwattr $C$DW$196, DW_AT_low_pc(0x00)
    4457                            .dwattr $C$DW$196, DW_AT_name("strlen")
    4458                            .dwattr $C$DW$196, DW_AT_TI_call
    4459 00000950 FFFEF7FF!         BL        strlen                ; [DPU_3_PIPE] |600|  ; [KEEP 32-BIT INS]
    4460                            ; CALL OCCURS {strlen }          ; [] |600| 
    4461 00000954 4602              MOV       A3, A1                ; [DPU_3_PIPE] |600|  ; [ORIG 16-BIT INS]
    4462 00000956 4881              LDR       A1, $C$CON44          ; [DPU_3_PIPE] |600|  ; [ORIG 16-BIT INS]
    4463 00000958 A167              ADR       A2, $C$SL29           ; [DPU_3_PIPE] |600|  ; [ORIG 16-BIT INS]
    4464                    $C$DW$197       .dwtag  DW_TAG_TI_branch
    4465                            .dwattr $C$DW$197, DW_AT_low_pc(0x00)
    4466                            .dwattr $C$DW$197, DW_AT_name("sprintf")
    4467                            .dwattr $C$DW$197, DW_AT_TI_call
    4468 0000095a FFFEF7FF!         BL        sprintf               ; [DPU_3_PIPE] |600|  ; [KEEP 32-BIT INS]
    4469                            ; CALL OCCURS {sprintf }         ; [] |600| 
    4470                            .dwpsn  file "../esp8266.c",line 601,column 3,is_stmt,isa 1
    4471                    ;----------------------------------------------------------------------
    4472                    ; 601 | ESP8266SendCommand(ESP8266_TXBuffer);                                  
    4473                    ;----------------------------------------------------------------------
    4474 0000095e 487F              LDR       A1, $C$CON44          ; [DPU_3_PIPE] |601|  ; [ORIG 16-BIT INS]
    4475                    $C$DW$198       .dwtag  DW_TAG_TI_branch
    4476                            .dwattr $C$DW$198, DW_AT_low_pc(0x00)
    4477                            .dwattr $C$DW$198, DW_AT_name("ESP8266SendCommand")
    4478                            .dwattr $C$DW$198, DW_AT_TI_call
    4479 00000960 FC64F7FF          BL        ESP8266SendCommand    ; [DPU_3_PIPE] |601|  ; [KEEP 32-BIT INS]
    4480                            ; CALL OCCURS {ESP8266SendCommand }  ; [] |601| 
TI ARM Assembler PC v5.2.4 Thu Sep 17 23:20:49 2015

Tools Copyright (c) 1996-2015 Texas Instruments Incorporated
esp8266.asm                                                          PAGE   92

    4481                            .dwpsn  file "../esp8266.c",line 602,column 3,is_stmt,isa 1
    4482                    ;----------------------------------------------------------------------
    4483                    ; 602 | DelayMs(500);                                                          
    4484                    ;----------------------------------------------------------------------
    4485 00000964 70FAF44F          MOV       A1, #500              ; [DPU_3_PIPE] |602|  ; [KEEP 32-BIT INS]
    4486                    $C$DW$199       .dwtag  DW_TAG_TI_branch
    4487                            .dwattr $C$DW$199, DW_AT_low_pc(0x00)
    4488                            .dwattr $C$DW$199, DW_AT_name("DelayMs")
    4489                            .dwattr $C$DW$199, DW_AT_TI_call
    4490 00000968 FC78F7FF          BL        DelayMs               ; [DPU_3_PIPE] |602|  ; [KEEP 32-BIT INS]
    4491                            ; CALL OCCURS {DelayMs }         ; [] |602| 
    4492                            .dwpsn  file "../esp8266.c",line 603,column 3,is_stmt,isa 1
    4493                    ;----------------------------------------------------------------------
    4494                    ; 603 | ESP8266SendCommand(Fetch);                                             
    4495                    ;----------------------------------------------------------------------
    4496 0000096c 487A              LDR       A1, $C$CON43          ; [DPU_3_PIPE] |603|  ; [ORIG 16-BIT INS]
    4497                    $C$DW$200       .dwtag  DW_TAG_TI_branch
    4498                            .dwattr $C$DW$200, DW_AT_low_pc(0x00)
    4499                            .dwattr $C$DW$200, DW_AT_name("ESP8266SendCommand")
    4500                            .dwattr $C$DW$200, DW_AT_TI_call
    4501 0000096e FC5DF7FF          BL        ESP8266SendCommand    ; [DPU_3_PIPE] |603|  ; [KEEP 32-BIT INS]
    4502                            ; CALL OCCURS {ESP8266SendCommand }  ; [] |603| 
    4503                            .dwpsn  file "../esp8266.c",line 604,column 3,is_stmt,isa 1
    4504                    ;----------------------------------------------------------------------
    4505                    ; 604 | DelayMs(4000);                                                         
    4506                    ;----------------------------------------------------------------------
    4507 00000972 607AF44F          MOV       A1, #4000             ; [DPU_3_PIPE] |604|  ; [KEEP 32-BIT INS]
    4508                    $C$DW$201       .dwtag  DW_TAG_TI_branch
    4509                            .dwattr $C$DW$201, DW_AT_low_pc(0x00)
    4510                            .dwattr $C$DW$201, DW_AT_name("DelayMs")
    4511                            .dwattr $C$DW$201, DW_AT_TI_call
    4512 00000976 FC71F7FF          BL        DelayMs               ; [DPU_3_PIPE] |604|  ; [KEEP 32-BIT INS]
    4513                            ; CALL OCCURS {DelayMs }         ; [] |604| 
    4514                            .dwpsn  file "../esp8266.c",line 605,column 3,is_stmt,isa 1
    4515                    ;----------------------------------------------------------------------
    4516                    ; 605 | return 1; // success                                                   
    4517                    ;----------------------------------------------------------------------
    4518 0000097a 2001              MOVS      A1, #1                ; [DPU_3_PIPE] |605|  ; [ORIG 16-BIT INS]
    4519                            .dwpsn  file "../esp8266.c",line 606,column 1,is_stmt,isa 1
    4520                    $C$DW$202       .dwtag  DW_TAG_TI_branch
    4521                            .dwattr $C$DW$202, DW_AT_low_pc(0x00)
    4522                            .dwattr $C$DW$202, DW_AT_TI_return
    4523 0000097c BD08              POP       {A4, PC}              ; [DPU_3_PIPE]  ; [ORIG 16-BIT INS]
    4524                            .dwcfi  cfa_offset, 0
    4525                            ; BRANCH OCCURS                  ; [] 
    4526                            .dwattr $C$DW$195, DW_AT_TI_end_file("../esp8266.c")
    4527                            .dwattr $C$DW$195, DW_AT_TI_end_line(0x25e)
    4528                            .dwattr $C$DW$195, DW_AT_TI_end_column(0x01)
    4529                            .dwendentry
    4530                            .dwendtag $C$DW$195
    4531                    
    4532                    ;******************************************************************************
    4533                    ;* STRINGS                                                                    *
    4534                    ;******************************************************************************
    4535 0000097e                   .sect   ".text"
TI ARM Assembler PC v5.2.4 Thu Sep 17 23:20:49 2015

Tools Copyright (c) 1996-2015 Texas Instruments Incorporated
esp8266.asm                                                          PAGE   93

    4536                            .align  4
    4537 00000980 41        ||$C$SL22||:    .string "AT+CWLAP",13,10,0
         00000981 54       
         00000982 2B       
         00000983 43       
         00000984 57       
         00000985 4C       
         00000986 41       
         00000987 50       
         00000988 0D       
         00000989 0A       
         0000098a 00       
    4538                            .align  4
    4539 0000098c 41        ||$C$SL23||:    .string "AT+CWQAP",13,10,0
         0000098d 54       
         0000098e 2B       
         0000098f 43       
         00000990 57       
         00000991 51       
         00000992 41       
         00000993 50       
         00000994 0D       
         00000995 0A       
         00000996 00       
    4540 00000997                   .sect   ".text"
    4541                            .clink
    4542                            .thumbfunc ESP8266_CloseTCPConnection
    4543 00000998                   .thumb
    4544                            .global ESP8266_CloseTCPConnection
    4545                    
    4546                    $C$DW$203       .dwtag  DW_TAG_subprogram, DW_AT_name("ESP8266_CloseTCPConnection")
    4547                            .dwattr $C$DW$203, DW_AT_low_pc(ESP8266_CloseTCPConnection)
    4548                            .dwattr $C$DW$203, DW_AT_high_pc(0x00)
    4549                            .dwattr $C$DW$203, DW_AT_TI_symbol_name("ESP8266_CloseTCPConnection")
    4550                            .dwattr $C$DW$203, DW_AT_external
    4551                            .dwattr $C$DW$203, DW_AT_type(*$C$DW$T$10)
    4552                            .dwattr $C$DW$203, DW_AT_TI_begin_file("../esp8266.c")
    4553                            .dwattr $C$DW$203, DW_AT_TI_begin_line(0x264)
    4554                            .dwattr $C$DW$203, DW_AT_TI_begin_column(0x05)
    4555                            .dwattr $C$DW$203, DW_AT_decl_file("../esp8266.c")
    4556                            .dwattr $C$DW$203, DW_AT_decl_line(0x264)
    4557                            .dwattr $C$DW$203, DW_AT_decl_column(0x05)
    4558                            .dwattr $C$DW$203, DW_AT_TI_max_frame_size(0x08)
    4559                            .dwpsn  file "../esp8266.c",line 612,column 37,is_stmt,address ESP8266_CloseTCPConnection,isa 
    4560                    
    4561                            .dwfde $C$DW$CIE, ESP8266_CloseTCPConnection
    4562                    ;----------------------------------------------------------------------
    4563                    ; 612 | int ESP8266_CloseTCPConnection(void){                                  
    4564                    ;----------------------------------------------------------------------
    4565                    
    4566                    ;*****************************************************************************
    4567                    ;* FUNCTION NAME: ESP8266_CloseTCPConnection                                 *
    4568                    ;*                                                                           *
    4569                    ;*   Regs Modified     : A1,A2,A3,A4,V9,SP,LR,SR,D0,D0_hi,D1,D1_hi,D2,D2_hi, *
    4570                    ;*                           D3,D3_hi,D4,D4_hi,D5,D5_hi,D6,D6_hi,D7,D7_hi,   *
TI ARM Assembler PC v5.2.4 Thu Sep 17 23:20:49 2015

Tools Copyright (c) 1996-2015 Texas Instruments Incorporated
esp8266.asm                                                          PAGE   94

    4571                    ;*                           FPEXC,FPSCR                                     *
    4572                    ;*   Regs Used         : A1,A2,A3,A4,V9,SP,LR,SR,D0,D0_hi,D1,D1_hi,D2,D2_hi, *
    4573                    ;*                           D3,D3_hi,D4,D4_hi,D5,D5_hi,D6,D6_hi,D7,D7_hi,   *
    4574                    ;*                           FPEXC,FPSCR                                     *
    4575                    ;*   Local Frame Size  : 0 Args + 4 Auto + 4 Save = 8 byte                   *
    4576                    ;*****************************************************************************
    4577 00000998           ESP8266_CloseTCPConnection:
    4578                    ;* --------------------------------------------------------------------------*
    4579                            .dwcfi  cfa_offset, 0
    4580 00000998 B508              PUSH      {A4, LR}              ; [DPU_3_PIPE]  ; [ORIG 16-BIT INS]
    4581                            .dwcfi  cfa_offset, 8
    4582                            .dwcfi  save_reg_to_mem, 14, -4
    4583                            .dwcfi  save_reg_to_mem, 3, -8
    4584                    $C$DW$204       .dwtag  DW_TAG_variable, DW_AT_name("try")
    4585                            .dwattr $C$DW$204, DW_AT_TI_symbol_name("try")
    4586                            .dwattr $C$DW$204, DW_AT_type(*$C$DW$T$10)
    4587                            .dwattr $C$DW$204, DW_AT_location[DW_OP_breg13 0]
    4588                            .dwpsn  file "../esp8266.c",line 613,column 10,is_stmt,isa 1
    4589                    ;----------------------------------------------------------------------
    4590                    ; 613 | int try=MAXTRY;                                                        
    4591                    ;----------------------------------------------------------------------
    4592 0000099a 200A              MOVS      A1, #10               ; [DPU_3_PIPE] |613|  ; [ORIG 16-BIT INS]
    4593 0000099c 9000              STR       A1, [SP, #0]          ; [DPU_3_PIPE] |613|  ; [ORIG 16-BIT INS]
    4594                            .dwpsn  file "../esp8266.c",line 614,column 3,is_stmt,isa 1
    4595                    ;----------------------------------------------------------------------
    4596                    ; 614 | strcpy(SearchString, "OK");                                            
    4597                    ;----------------------------------------------------------------------
    4598 0000099e 486B              LDR       A1, $C$CON40          ; [DPU_3_PIPE] |614|  ; [ORIG 16-BIT INS]
    4599 000009a0 496B              LDR       A2, $C$CON41          ; [] |614|  ; [ORIG 16-BIT INS]
    4600                    $C$DW$205       .dwtag  DW_TAG_TI_branch
    4601                            .dwattr $C$DW$205, DW_AT_low_pc(0x00)
    4602                            .dwattr $C$DW$205, DW_AT_name("strcpy")
    4603                            .dwattr $C$DW$205, DW_AT_TI_call
    4604 000009a2 FFFEF7FF!         BL        strcpy                ; [DPU_3_PIPE] |614|  ; [KEEP 32-BIT INS]
    4605                            ; CALL OCCURS {strcpy }          ; [] |614| 
    4606                            .dwpsn  file "../esp8266.c",line 615,column 3,is_stmt,isa 1
    4607                    ;----------------------------------------------------------------------
    4608                    ; 615 | SearchLooking = true;                                                  
    4609                    ;----------------------------------------------------------------------
    4610 000009a6 490E              LDR       A2, $C$CON34          ; [DPU_3_PIPE] |615|  ; [ORIG 16-BIT INS]
    4611 000009a8 2001              MOVS      A1, #1                ; [DPU_3_PIPE] |615|  ; [ORIG 16-BIT INS]
    4612 000009aa 7008              STRB      A1, [A2, #0]          ; [DPU_3_PIPE] |615|  ; [ORIG 16-BIT INS]
    4613                            .dwpsn  file "../esp8266.c",line 616,column 3,is_stmt,isa 1
    4614                    ;----------------------------------------------------------------------
    4615                    ; 616 | SearchFound = false;                                                   
    4616                    ;----------------------------------------------------------------------
    4617 000009ac 4969              LDR       A2, $C$CON42          ; [DPU_3_PIPE] |616|  ; [ORIG 16-BIT INS]
    4618 000009ae 2000              MOVS      A1, #0                ; [DPU_3_PIPE] |616|  ; [ORIG 16-BIT INS]
    4619 000009b0 7008              STRB      A1, [A2, #0]          ; [DPU_3_PIPE] |616|  ; [ORIG 16-BIT INS]
    4620                            .dwpsn  file "../esp8266.c",line 617,column 3,is_stmt,isa 1
    4621                    ;----------------------------------------------------------------------
    4622                    ; 617 | while(try){                                                            
    4623                    ;----------------------------------------------------------------------
    4624 000009b2 9800              LDR       A1, [SP, #0]          ; [DPU_3_PIPE] |617|  ; [ORIG 16-BIT INS]
    4625 000009b4 B188              CBZ       A1, ||$C$L76||        ; []  ; [ORIG 16-BIT INS]
TI ARM Assembler PC v5.2.4 Thu Sep 17 23:20:49 2015

Tools Copyright (c) 1996-2015 Texas Instruments Incorporated
esp8266.asm                                                          PAGE   95

    4626                            ; BRANCHCC OCCURS {||$C$L76||}   ; [] |617| 
    4627                    ;* --------------------------------------------------------------------------*
    4628                    ;*   BEGIN LOOP ||$C$L74||
    4629                    ;*
    4630                    ;*   Loop source line                : 617
    4631                    ;*   Loop closing brace source line  : 622
    4632                    ;*   Known Minimum Trip Count        : 1
    4633                    ;*   Known Maximum Trip Count        : 4294967295
    4634                    ;*   Known Max Trip Count Factor     : 1
    4635                    ;* --------------------------------------------------------------------------*
    4636 000009b6           ||$C$L74||:    
    4637                            .dwpsn  file "../esp8266.c",line 618,column 5,is_stmt,isa 1
    4638                    ;----------------------------------------------------------------------
    4639                    ; 618 | ESP8266SendCommand("AT+CIPCLOSE\r\n");                                 
    4640                    ;----------------------------------------------------------------------
    4641 000009b6 A054              ADR       A1, $C$SL30           ; [DPU_3_PIPE] |618|  ; [ORIG 16-BIT INS]
    4642                    $C$DW$206       .dwtag  DW_TAG_TI_branch
    4643                            .dwattr $C$DW$206, DW_AT_low_pc(0x00)
    4644                            .dwattr $C$DW$206, DW_AT_name("ESP8266SendCommand")
    4645                            .dwattr $C$DW$206, DW_AT_TI_call
    4646 000009b8 FC38F7FF          BL        ESP8266SendCommand    ; [DPU_3_PIPE] |618|  ; [KEEP 32-BIT INS]
    4647                            ; CALL OCCURS {ESP8266SendCommand }  ; [] |618| 
    4648                            .dwpsn  file "../esp8266.c",line 619,column 5,is_stmt,isa 1
    4649                    ;----------------------------------------------------------------------
    4650                    ; 619 | DelayMsSearching(4000);                                                
    4651                    ;----------------------------------------------------------------------
    4652 000009bc 607AF44F          MOV       A1, #4000             ; [DPU_3_PIPE] |619|  ; [KEEP 32-BIT INS]
    4653                    $C$DW$207       .dwtag  DW_TAG_TI_branch
    4654                            .dwattr $C$DW$207, DW_AT_low_pc(0x00)
    4655                            .dwattr $C$DW$207, DW_AT_name("DelayMsSearching")
    4656                            .dwattr $C$DW$207, DW_AT_TI_call
    4657 000009c0 FC64F7FF          BL        DelayMsSearching      ; [DPU_3_PIPE] |619|  ; [KEEP 32-BIT INS]
    4658                            ; CALL OCCURS {DelayMsSearching }  ; [] |619| 
    4659                            .dwpsn  file "../esp8266.c",line 620,column 5,is_stmt,isa 1
    4660                    ;----------------------------------------------------------------------
    4661                    ; 620 | if(SearchFound) return 1; // success                                   
    4662                    ;----------------------------------------------------------------------
    4663 000009c4 4863              LDR       A1, $C$CON42          ; [DPU_3_PIPE] |620|  ; [ORIG 16-BIT INS]
    4664 000009c6 7800              LDRB      A1, [A1, #0]          ; [DPU_3_PIPE] |620|  ; [ORIG 16-BIT INS]
    4665 000009c8 B108              CBZ       A1, ||$C$L75||        ; []  ; [ORIG 16-BIT INS]
    4666                            ; BRANCHCC OCCURS {||$C$L75||}   ; [] |620| 
    4667                    ;* --------------------------------------------------------------------------*
    4668                            .dwpsn  file "../esp8266.c",line 620,column 21,is_stmt,isa 1
    4669 000009ca 2001              MOVS      A1, #1                ; [DPU_3_PIPE] |620|  ; [ORIG 16-BIT INS]
    4670 000009cc E006              B         ||$C$L77||            ; [DPU_3_PIPE] |620|  ; [ORIG 16-BIT INS]
    4671                            ; BRANCH OCCURS {||$C$L77||}     ; [] |620| 
    4672                    ;* --------------------------------------------------------------------------*
    4673 000009ce           ||$C$L75||:    
    4674                            .dwpsn  file "../esp8266.c",line 621,column 5,is_stmt,isa 1
    4675                    ;----------------------------------------------------------------------
    4676                    ; 621 | try--;                                                                 
    4677                    ;----------------------------------------------------------------------
    4678 000009ce 9800              LDR       A1, [SP, #0]          ; [DPU_3_PIPE] |621|  ; [ORIG 16-BIT INS]
    4679 000009d0 1E40              SUBS      A1, A1, #1            ; [DPU_3_PIPE] |621|  ; [ORIG 16-BIT INS]
    4680 000009d2 9000              STR       A1, [SP, #0]          ; [DPU_3_PIPE] |621|  ; [ORIG 16-BIT INS]
TI ARM Assembler PC v5.2.4 Thu Sep 17 23:20:49 2015

Tools Copyright (c) 1996-2015 Texas Instruments Incorporated
esp8266.asm                                                          PAGE   96

    4681                            .dwpsn  file "../esp8266.c",line 617,column 3,is_stmt,isa 1
    4682 000009d4 9800              LDR       A1, [SP, #0]          ; [DPU_3_PIPE] |617|  ; [ORIG 16-BIT INS]
    4683 000009d6 2800              CMP       A1, #0                ; [DPU_3_PIPE] |617|  ; [ORIG 16-BIT INS]
    4684 000009d8 D1ED              BNE       ||$C$L74||            ; [DPU_3_PIPE] |617|  ; [ORIG 16-BIT INS]
    4685                            ; BRANCHCC OCCURS {||$C$L74||}   ; [] |617| 
    4686                    ;* --------------------------------------------------------------------------*
    4687 000009da           ||$C$L76||:    
    4688                            .dwpsn  file "../esp8266.c",line 623,column 3,is_stmt,isa 1
    4689                    ;----------------------------------------------------------------------
    4690                    ; 623 | return 0; // fail                                                      
    4691                    ;----------------------------------------------------------------------
    4692 000009da 2000              MOVS      A1, #0                ; [DPU_3_PIPE] |623|  ; [ORIG 16-BIT INS]
    4693                    ;* --------------------------------------------------------------------------*
    4694 000009dc           ||$C$L77||:    
    4695                            .dwpsn  file "../esp8266.c",line 624,column 1,is_stmt,isa 1
    4696                    $C$DW$208       .dwtag  DW_TAG_TI_branch
    4697                            .dwattr $C$DW$208, DW_AT_low_pc(0x00)
    4698                            .dwattr $C$DW$208, DW_AT_TI_return
    4699 000009dc BD08              POP       {A4, PC}              ; [DPU_3_PIPE]  ; [ORIG 16-BIT INS]
    4700                            .dwcfi  cfa_offset, 0
    4701                            ; BRANCH OCCURS                  ; [] 
    4702                    ;******************************************************************************
    4703                    ;* CONSTANT TABLE                                                             *
    4704                    ;******************************************************************************
    4705 000009de                   .sect   ".text"
    4706                            .align  4
    4707 000009de 000046C0! ||$C$CON34||:   .bits   SearchLooking,32
         000009e2 00000000 
    4708                            .dwattr $C$DW$203, DW_AT_TI_end_file("../esp8266.c")
    4709                            .dwattr $C$DW$203, DW_AT_TI_end_line(0x270)
    4710                            .dwattr $C$DW$203, DW_AT_TI_end_column(0x01)
    4711                            .dwendentry
    4712                            .dwendtag $C$DW$203
    4713                    
    4714                    ;******************************************************************************
    4715                    ;* STRINGS                                                                    *
    4716                    ;******************************************************************************
    4717 000009e4                   .sect   ".text"
    4718                            .align  4
    4719 000009e4 41        ||$C$SL24||:    .string "AT+CWSAP=",34,"%s",34,",",34,"%s",34,",%d,%d",13,10,0
         000009e5 54       
         000009e6 2B       
         000009e7 43       
         000009e8 57       
         000009e9 53       
         000009ea 41       
         000009eb 50       
         000009ec 3D       
         000009ed 22       
         000009ee 25       
         000009ef 73       
         000009f0 22       
         000009f1 2C       
         000009f2 22       
         000009f3 25       
TI ARM Assembler PC v5.2.4 Thu Sep 17 23:20:49 2015

Tools Copyright (c) 1996-2015 Texas Instruments Incorporated
esp8266.asm                                                          PAGE   97

         000009f4 73       
         000009f5 22       
         000009f6 2C       
         000009f7 25       
         000009f8 64       
         000009f9 2C       
         000009fa 25       
         000009fb 64       
         000009fc 0D       
         000009fd 0A       
         000009fe 00       
    4720 000009ff                   .sect   ".text"
    4721                            .clink
    4722                            .thumbfunc ESP8266_SetDataTransmissionMode
    4723 00000a00                   .thumb
    4724                            .global ESP8266_SetDataTransmissionMode
    4725                    
    4726                    $C$DW$209       .dwtag  DW_TAG_subprogram, DW_AT_name("ESP8266_SetDataTransmissionMode")
    4727                            .dwattr $C$DW$209, DW_AT_low_pc(ESP8266_SetDataTransmissionMode)
    4728                            .dwattr $C$DW$209, DW_AT_high_pc(0x00)
    4729                            .dwattr $C$DW$209, DW_AT_TI_symbol_name("ESP8266_SetDataTransmissionMode")
    4730                            .dwattr $C$DW$209, DW_AT_external
    4731                            .dwattr $C$DW$209, DW_AT_type(*$C$DW$T$10)
    4732                            .dwattr $C$DW$209, DW_AT_TI_begin_file("../esp8266.c")
    4733                            .dwattr $C$DW$209, DW_AT_TI_begin_line(0x275)
    4734                            .dwattr $C$DW$209, DW_AT_TI_begin_column(0x05)
    4735                            .dwattr $C$DW$209, DW_AT_decl_file("../esp8266.c")
    4736                            .dwattr $C$DW$209, DW_AT_decl_line(0x275)
    4737                            .dwattr $C$DW$209, DW_AT_decl_column(0x05)
    4738                            .dwattr $C$DW$209, DW_AT_TI_max_frame_size(0x10)
    4739                            .dwpsn  file "../esp8266.c",line 629,column 50,is_stmt,address ESP8266_SetDataTransmissionMode
    4740                    
    4741                            .dwfde $C$DW$CIE, ESP8266_SetDataTransmissionMode
    4742                    $C$DW$210       .dwtag  DW_TAG_formal_parameter, DW_AT_name("mode")
    4743                            .dwattr $C$DW$210, DW_AT_TI_symbol_name("mode")
    4744                            .dwattr $C$DW$210, DW_AT_type(*$C$DW$T$48)
    4745                            .dwattr $C$DW$210, DW_AT_location[DW_OP_reg0]
    4746                    
    4747                    ;*****************************************************************************
    4748                    ;* FUNCTION NAME: ESP8266_SetDataTransmissionMode                            *
    4749                    ;*                                                                           *
    4750                    ;*   Regs Modified     : A1,A2,A3,A4,V9,SP,LR,SR,D0,D0_hi,D1,D1_hi,D2,D2_hi, *
    4751                    ;*                           D3,D3_hi,D4,D4_hi,D5,D5_hi,D6,D6_hi,D7,D7_hi,   *
    4752                    ;*                           FPEXC,FPSCR                                     *
    4753                    ;*   Regs Used         : A1,A2,A3,A4,V9,SP,LR,SR,D0,D0_hi,D1,D1_hi,D2,D2_hi, *
    4754                    ;*                           D3,D3_hi,D4,D4_hi,D5,D5_hi,D6,D6_hi,D7,D7_hi,   *
    4755                    ;*                           FPEXC,FPSCR                                     *
    4756                    ;*   Local Frame Size  : 0 Args + 8 Auto + 4 Save = 12 byte                  *
    4757                    ;*****************************************************************************
    4758 00000a00           ESP8266_SetDataTransmissionMode:
    4759                    ;* --------------------------------------------------------------------------*
    4760                            .dwcfi  cfa_offset, 0
    4761 00000a00 B50E              PUSH      {A2, A3, A4, LR}      ; [DPU_3_PIPE]  ; [ORIG 16-BIT INS]
    4762                            .dwcfi  cfa_offset, 16
    4763                            .dwcfi  save_reg_to_mem, 14, -4
TI ARM Assembler PC v5.2.4 Thu Sep 17 23:20:49 2015

Tools Copyright (c) 1996-2015 Texas Instruments Incorporated
esp8266.asm                                                          PAGE   98

    4764                            .dwcfi  save_reg_to_mem, 3, -8
    4765                            .dwcfi  save_reg_to_mem, 2, -12
    4766                            .dwcfi  save_reg_to_mem, 1, -16
    4767                    $C$DW$211       .dwtag  DW_TAG_variable, DW_AT_name("mode")
    4768                            .dwattr $C$DW$211, DW_AT_TI_symbol_name("mode")
    4769                            .dwattr $C$DW$211, DW_AT_type(*$C$DW$T$48)
    4770                            .dwattr $C$DW$211, DW_AT_location[DW_OP_breg13 0]
    4771                    $C$DW$212       .dwtag  DW_TAG_variable, DW_AT_name("try")
    4772                            .dwattr $C$DW$212, DW_AT_TI_symbol_name("try")
    4773                            .dwattr $C$DW$212, DW_AT_type(*$C$DW$T$10)
    4774                            .dwattr $C$DW$212, DW_AT_location[DW_OP_breg13 4]
    4775                    ;----------------------------------------------------------------------
    4776                    ; 629 | int ESP8266_SetDataTransmissionMode(uint8_t mode){                     
    4777                    ;----------------------------------------------------------------------
    4778 00000a02 0000F88D          STRB      A1, [SP, #0]          ; [DPU_3_PIPE] |629|  ; [KEEP 32-BIT INS]
    4779                            .dwpsn  file "../esp8266.c",line 630,column 10,is_stmt,isa 1
    4780                    ;----------------------------------------------------------------------
    4781                    ; 630 | int try=MAXTRY;                                                        
    4782                    ;----------------------------------------------------------------------
    4783 00000a06 200A              MOVS      A1, #10               ; [DPU_3_PIPE] |630|  ; [ORIG 16-BIT INS]
    4784 00000a08 9001              STR       A1, [SP, #4]          ; [DPU_3_PIPE] |630|  ; [ORIG 16-BIT INS]
    4785                            .dwpsn  file "../esp8266.c",line 631,column 3,is_stmt,isa 1
    4786                    ;----------------------------------------------------------------------
    4787                    ; 631 | strcpy(SearchString, "OK");                                            
    4788                    ;----------------------------------------------------------------------
    4789 00000a0a 4850              LDR       A1, $C$CON40          ; [DPU_3_PIPE] |631|  ; [ORIG 16-BIT INS]
    4790 00000a0c 4950              LDR       A2, $C$CON41          ; [] |631|  ; [ORIG 16-BIT INS]
    4791                    $C$DW$213       .dwtag  DW_TAG_TI_branch
    4792                            .dwattr $C$DW$213, DW_AT_low_pc(0x00)
    4793                            .dwattr $C$DW$213, DW_AT_name("strcpy")
    4794                            .dwattr $C$DW$213, DW_AT_TI_call
    4795 00000a0e FFFEF7FF!         BL        strcpy                ; [DPU_3_PIPE] |631|  ; [KEEP 32-BIT INS]
    4796                            ; CALL OCCURS {strcpy }          ; [] |631| 
    4797                            .dwpsn  file "../esp8266.c",line 632,column 3,is_stmt,isa 1
    4798                    ;----------------------------------------------------------------------
    4799                    ; 632 | SearchLooking = true;                                                  
    4800                    ;----------------------------------------------------------------------
    4801 00000a12 4953              LDR       A2, $C$CON45          ; [DPU_3_PIPE] |632|  ; [ORIG 16-BIT INS]
    4802 00000a14 2001              MOVS      A1, #1                ; [DPU_3_PIPE] |632|  ; [ORIG 16-BIT INS]
    4803 00000a16 7008              STRB      A1, [A2, #0]          ; [DPU_3_PIPE] |632|  ; [ORIG 16-BIT INS]
    4804                            .dwpsn  file "../esp8266.c",line 633,column 3,is_stmt,isa 1
    4805                    ;----------------------------------------------------------------------
    4806                    ; 633 | SearchFound = false;                                                   
    4807                    ;----------------------------------------------------------------------
    4808 00000a18 494E              LDR       A2, $C$CON42          ; [DPU_3_PIPE] |633|  ; [ORIG 16-BIT INS]
    4809 00000a1a 2000              MOVS      A1, #0                ; [DPU_3_PIPE] |633|  ; [ORIG 16-BIT INS]
    4810 00000a1c 7008              STRB      A1, [A2, #0]          ; [DPU_3_PIPE] |633|  ; [ORIG 16-BIT INS]
    4811                            .dwpsn  file "../esp8266.c",line 634,column 3,is_stmt,isa 1
    4812                    ;----------------------------------------------------------------------
    4813                    ; 634 | while(try){                                                            
    4814                    ;----------------------------------------------------------------------
    4815 00000a1e 9801              LDR       A1, [SP, #4]          ; [DPU_3_PIPE] |634|  ; [ORIG 16-BIT INS]
    4816 00000a20 B1B8              CBZ       A1, ||$C$L80||        ; []  ; [ORIG 16-BIT INS]
    4817                            ; BRANCHCC OCCURS {||$C$L80||}   ; [] |634| 
    4818                    ;* --------------------------------------------------------------------------*
TI ARM Assembler PC v5.2.4 Thu Sep 17 23:20:49 2015

Tools Copyright (c) 1996-2015 Texas Instruments Incorporated
esp8266.asm                                                          PAGE   99

    4819                    ;*   BEGIN LOOP ||$C$L78||
    4820                    ;*
    4821                    ;*   Loop source line                : 634
    4822                    ;*   Loop closing brace source line  : 640
    4823                    ;*   Known Minimum Trip Count        : 1
    4824                    ;*   Known Maximum Trip Count        : 4294967295
    4825                    ;*   Known Max Trip Count Factor     : 1
    4826                    ;* --------------------------------------------------------------------------*
    4827 00000a22           ||$C$L78||:    
    4828                            .dwpsn  file "../esp8266.c",line 635,column 5,is_stmt,isa 1
    4829                    ;----------------------------------------------------------------------
    4830                    ; 635 | sprintf((char*)ESP8266_TXBuffer, "AT+CIPMODE=%d\r\n", mode);           
    4831                    ;----------------------------------------------------------------------
    4832 00000a22 2000F89D          LDRB      A3, [SP, #0]          ; [DPU_3_PIPE] |635|  ; [KEEP 32-BIT INS]
    4833 00000a26 484D              LDR       A1, $C$CON44          ; [DPU_3_PIPE] |635|  ; [ORIG 16-BIT INS]
    4834 00000a28 A13B              ADR       A2, $C$SL31           ; [DPU_3_PIPE] |635|  ; [ORIG 16-BIT INS]
    4835                    $C$DW$214       .dwtag  DW_TAG_TI_branch
    4836                            .dwattr $C$DW$214, DW_AT_low_pc(0x00)
    4837                            .dwattr $C$DW$214, DW_AT_name("sprintf")
    4838                            .dwattr $C$DW$214, DW_AT_TI_call
    4839 00000a2a FFFEF7FF!         BL        sprintf               ; [DPU_3_PIPE] |635|  ; [KEEP 32-BIT INS]
    4840                            ; CALL OCCURS {sprintf }         ; [] |635| 
    4841                            .dwpsn  file "../esp8266.c",line 636,column 5,is_stmt,isa 1
    4842                    ;----------------------------------------------------------------------
    4843                    ; 636 | ESP8266SendCommand((const char*)ESP8266_TXBuffer);                     
    4844                    ;----------------------------------------------------------------------
    4845 00000a2e 484B              LDR       A1, $C$CON44          ; [DPU_3_PIPE] |636|  ; [ORIG 16-BIT INS]
    4846                    $C$DW$215       .dwtag  DW_TAG_TI_branch
    4847                            .dwattr $C$DW$215, DW_AT_low_pc(0x00)
    4848                            .dwattr $C$DW$215, DW_AT_name("ESP8266SendCommand")
    4849                            .dwattr $C$DW$215, DW_AT_TI_call
    4850 00000a30 FBFCF7FF          BL        ESP8266SendCommand    ; [DPU_3_PIPE] |636|  ; [KEEP 32-BIT INS]
    4851                            ; CALL OCCURS {ESP8266SendCommand }  ; [] |636| 
    4852                            .dwpsn  file "../esp8266.c",line 637,column 5,is_stmt,isa 1
    4853                    ;----------------------------------------------------------------------
    4854                    ; 637 | DelayMsSearching(5000);                                                
    4855                    ;----------------------------------------------------------------------
    4856 00000a34 3088F241          MOV       A1, #5000             ; [DPU_3_PIPE] |637|  ; [KEEP 32-BIT INS]
    4857                    $C$DW$216       .dwtag  DW_TAG_TI_branch
    4858                            .dwattr $C$DW$216, DW_AT_low_pc(0x00)
    4859                            .dwattr $C$DW$216, DW_AT_name("DelayMsSearching")
    4860                            .dwattr $C$DW$216, DW_AT_TI_call
    4861 00000a38 FC28F7FF          BL        DelayMsSearching      ; [DPU_3_PIPE] |637|  ; [KEEP 32-BIT INS]
    4862                            ; CALL OCCURS {DelayMsSearching }  ; [] |637| 
    4863                            .dwpsn  file "../esp8266.c",line 638,column 5,is_stmt,isa 1
    4864                    ;----------------------------------------------------------------------
    4865                    ; 638 | if(SearchFound) return 1; // success                                   
    4866                    ;----------------------------------------------------------------------
    4867 00000a3c 4845              LDR       A1, $C$CON42          ; [DPU_3_PIPE] |638|  ; [ORIG 16-BIT INS]
    4868 00000a3e 7800              LDRB      A1, [A1, #0]          ; [DPU_3_PIPE] |638|  ; [ORIG 16-BIT INS]
    4869 00000a40 B108              CBZ       A1, ||$C$L79||        ; []  ; [ORIG 16-BIT INS]
    4870                            ; BRANCHCC OCCURS {||$C$L79||}   ; [] |638| 
    4871                    ;* --------------------------------------------------------------------------*
    4872                            .dwpsn  file "../esp8266.c",line 638,column 21,is_stmt,isa 1
    4873 00000a42 2001              MOVS      A1, #1                ; [DPU_3_PIPE] |638|  ; [ORIG 16-BIT INS]
TI ARM Assembler PC v5.2.4 Thu Sep 17 23:20:49 2015

Tools Copyright (c) 1996-2015 Texas Instruments Incorporated
esp8266.asm                                                          PAGE  100

    4874 00000a44 E006              B         ||$C$L81||            ; [DPU_3_PIPE] |638|  ; [ORIG 16-BIT INS]
    4875                            ; BRANCH OCCURS {||$C$L81||}     ; [] |638| 
    4876                    ;* --------------------------------------------------------------------------*
    4877 00000a46           ||$C$L79||:    
    4878                            .dwpsn  file "../esp8266.c",line 639,column 5,is_stmt,isa 1
    4879                    ;----------------------------------------------------------------------
    4880                    ; 639 | try--;                                                                 
    4881                    ;----------------------------------------------------------------------
    4882 00000a46 9801              LDR       A1, [SP, #4]          ; [DPU_3_PIPE] |639|  ; [ORIG 16-BIT INS]
    4883 00000a48 1E40              SUBS      A1, A1, #1            ; [DPU_3_PIPE] |639|  ; [ORIG 16-BIT INS]
    4884 00000a4a 9001              STR       A1, [SP, #4]          ; [DPU_3_PIPE] |639|  ; [ORIG 16-BIT INS]
    4885                            .dwpsn  file "../esp8266.c",line 634,column 3,is_stmt,isa 1
    4886 00000a4c 9801              LDR       A1, [SP, #4]          ; [DPU_3_PIPE] |634|  ; [ORIG 16-BIT INS]
    4887 00000a4e 2800              CMP       A1, #0                ; [DPU_3_PIPE] |634|  ; [ORIG 16-BIT INS]
    4888 00000a50 D1E7              BNE       ||$C$L78||            ; [DPU_3_PIPE] |634|  ; [ORIG 16-BIT INS]
    4889                            ; BRANCHCC OCCURS {||$C$L78||}   ; [] |634| 
    4890                    ;* --------------------------------------------------------------------------*
    4891 00000a52           ||$C$L80||:    
    4892                            .dwpsn  file "../esp8266.c",line 641,column 3,is_stmt,isa 1
    4893                    ;----------------------------------------------------------------------
    4894                    ; 641 | return 0; // fail                                                      
    4895                    ;----------------------------------------------------------------------
    4896 00000a52 2000              MOVS      A1, #0                ; [DPU_3_PIPE] |641|  ; [ORIG 16-BIT INS]
    4897                    ;* --------------------------------------------------------------------------*
    4898 00000a54           ||$C$L81||:    
    4899                            .dwpsn  file "../esp8266.c",line 642,column 1,is_stmt,isa 1
    4900                    $C$DW$217       .dwtag  DW_TAG_TI_branch
    4901                            .dwattr $C$DW$217, DW_AT_low_pc(0x00)
    4902                            .dwattr $C$DW$217, DW_AT_TI_return
    4903 00000a54 BD0E              POP       {A2, A3, A4, PC}      ; [DPU_3_PIPE]  ; [ORIG 16-BIT INS]
    4904                            .dwcfi  cfa_offset, 0
    4905                            ; BRANCH OCCURS                  ; [] 
    4906                            .dwattr $C$DW$209, DW_AT_TI_end_file("../esp8266.c")
    4907                            .dwattr $C$DW$209, DW_AT_TI_end_line(0x282)
    4908                            .dwattr $C$DW$209, DW_AT_TI_end_column(0x01)
    4909                            .dwendentry
    4910                            .dwendtag $C$DW$209
    4911                    
    4912 00000a56                   .sect   ".text"
    4913                            .clink
    4914                            .thumbfunc ESP8266_GetStatus
    4915 00000a56                   .thumb
    4916                            .global ESP8266_GetStatus
    4917                    
    4918                    $C$DW$218       .dwtag  DW_TAG_subprogram, DW_AT_name("ESP8266_GetStatus")
    4919                            .dwattr $C$DW$218, DW_AT_low_pc(ESP8266_GetStatus)
    4920                            .dwattr $C$DW$218, DW_AT_high_pc(0x00)
    4921                            .dwattr $C$DW$218, DW_AT_TI_symbol_name("ESP8266_GetStatus")
    4922                            .dwattr $C$DW$218, DW_AT_external
    4923                            .dwattr $C$DW$218, DW_AT_type(*$C$DW$T$10)
    4924                            .dwattr $C$DW$218, DW_AT_TI_begin_file("../esp8266.c")
    4925                            .dwattr $C$DW$218, DW_AT_TI_begin_line(0x287)
    4926                            .dwattr $C$DW$218, DW_AT_TI_begin_column(0x05)
    4927                            .dwattr $C$DW$218, DW_AT_decl_file("../esp8266.c")
    4928                            .dwattr $C$DW$218, DW_AT_decl_line(0x287)
TI ARM Assembler PC v5.2.4 Thu Sep 17 23:20:49 2015

Tools Copyright (c) 1996-2015 Texas Instruments Incorporated
esp8266.asm                                                          PAGE  101

    4929                            .dwattr $C$DW$218, DW_AT_decl_column(0x05)
    4930                            .dwattr $C$DW$218, DW_AT_TI_max_frame_size(0x08)
    4931                            .dwpsn  file "../esp8266.c",line 647,column 28,is_stmt,address ESP8266_GetStatus,isa 1
    4932                    
    4933                            .dwfde $C$DW$CIE, ESP8266_GetStatus
    4934                    ;----------------------------------------------------------------------
    4935                    ; 647 | int ESP8266_GetStatus(void){                                           
    4936                    ;----------------------------------------------------------------------
    4937                    
    4938                    ;*****************************************************************************
    4939                    ;* FUNCTION NAME: ESP8266_GetStatus                                          *
    4940                    ;*                                                                           *
    4941                    ;*   Regs Modified     : A1,A2,A3,A4,V9,SP,LR,SR,D0,D0_hi,D1,D1_hi,D2,D2_hi, *
    4942                    ;*                           D3,D3_hi,D4,D4_hi,D5,D5_hi,D6,D6_hi,D7,D7_hi,   *
    4943                    ;*                           FPEXC,FPSCR                                     *
    4944                    ;*   Regs Used         : A1,A2,A3,A4,V9,SP,LR,SR,D0,D0_hi,D1,D1_hi,D2,D2_hi, *
    4945                    ;*                           D3,D3_hi,D4,D4_hi,D5,D5_hi,D6,D6_hi,D7,D7_hi,   *
    4946                    ;*                           FPEXC,FPSCR                                     *
    4947                    ;*   Local Frame Size  : 0 Args + 4 Auto + 4 Save = 8 byte                   *
    4948                    ;*****************************************************************************
    4949 00000a56           ESP8266_GetStatus:
    4950                    ;* --------------------------------------------------------------------------*
    4951                            .dwcfi  cfa_offset, 0
    4952 00000a56 B508              PUSH      {A4, LR}              ; [DPU_3_PIPE]  ; [ORIG 16-BIT INS]
    4953                            .dwcfi  cfa_offset, 8
    4954                            .dwcfi  save_reg_to_mem, 14, -4
    4955                            .dwcfi  save_reg_to_mem, 3, -8
    4956                    $C$DW$219       .dwtag  DW_TAG_variable, DW_AT_name("try")
    4957                            .dwattr $C$DW$219, DW_AT_TI_symbol_name("try")
    4958                            .dwattr $C$DW$219, DW_AT_type(*$C$DW$T$10)
    4959                            .dwattr $C$DW$219, DW_AT_location[DW_OP_breg13 0]
    4960                            .dwpsn  file "../esp8266.c",line 648,column 10,is_stmt,isa 1
    4961                    ;----------------------------------------------------------------------
    4962                    ; 648 | int try=MAXTRY;                                                        
    4963                    ;----------------------------------------------------------------------
    4964 00000a58 200A              MOVS      A1, #10               ; [DPU_3_PIPE] |648|  ; [ORIG 16-BIT INS]
    4965 00000a5a 9000              STR       A1, [SP, #0]          ; [DPU_3_PIPE] |648|  ; [ORIG 16-BIT INS]
    4966                            .dwpsn  file "../esp8266.c",line 649,column 3,is_stmt,isa 1
    4967                    ;----------------------------------------------------------------------
    4968                    ; 649 | strcpy(SearchString, "OK");                                            
    4969                    ;----------------------------------------------------------------------
    4970 00000a5c 483B              LDR       A1, $C$CON40          ; [DPU_3_PIPE] |649|  ; [ORIG 16-BIT INS]
    4971 00000a5e 493C              LDR       A2, $C$CON41          ; [] |649|  ; [ORIG 16-BIT INS]
    4972                    $C$DW$220       .dwtag  DW_TAG_TI_branch
    4973                            .dwattr $C$DW$220, DW_AT_low_pc(0x00)
    4974                            .dwattr $C$DW$220, DW_AT_name("strcpy")
    4975                            .dwattr $C$DW$220, DW_AT_TI_call
    4976 00000a60 FFFEF7FF!         BL        strcpy                ; [DPU_3_PIPE] |649|  ; [KEEP 32-BIT INS]
    4977                            ; CALL OCCURS {strcpy }          ; [] |649| 
    4978                            .dwpsn  file "../esp8266.c",line 650,column 3,is_stmt,isa 1
    4979                    ;----------------------------------------------------------------------
    4980                    ; 650 | SearchLooking = true;                                                  
    4981                    ;----------------------------------------------------------------------
    4982 00000a64 493E              LDR       A2, $C$CON45          ; [DPU_3_PIPE] |650|  ; [ORIG 16-BIT INS]
    4983 00000a66 2001              MOVS      A1, #1                ; [DPU_3_PIPE] |650|  ; [ORIG 16-BIT INS]
TI ARM Assembler PC v5.2.4 Thu Sep 17 23:20:49 2015

Tools Copyright (c) 1996-2015 Texas Instruments Incorporated
esp8266.asm                                                          PAGE  102

    4984 00000a68 7008              STRB      A1, [A2, #0]          ; [DPU_3_PIPE] |650|  ; [ORIG 16-BIT INS]
    4985                            .dwpsn  file "../esp8266.c",line 651,column 3,is_stmt,isa 1
    4986                    ;----------------------------------------------------------------------
    4987                    ; 651 | SearchFound = false;                                                   
    4988                    ;----------------------------------------------------------------------
    4989 00000a6a 493A              LDR       A2, $C$CON42          ; [DPU_3_PIPE] |651|  ; [ORIG 16-BIT INS]
    4990 00000a6c 2000              MOVS      A1, #0                ; [DPU_3_PIPE] |651|  ; [ORIG 16-BIT INS]
    4991 00000a6e 7008              STRB      A1, [A2, #0]          ; [DPU_3_PIPE] |651|  ; [ORIG 16-BIT INS]
    4992                            .dwpsn  file "../esp8266.c",line 652,column 3,is_stmt,isa 1
    4993                    ;----------------------------------------------------------------------
    4994                    ; 652 | while(try){                                                            
    4995                    ;----------------------------------------------------------------------
    4996 00000a70 9800              LDR       A1, [SP, #0]          ; [DPU_3_PIPE] |652|  ; [ORIG 16-BIT INS]
    4997 00000a72 B188              CBZ       A1, ||$C$L84||        ; []  ; [ORIG 16-BIT INS]
    4998                            ; BRANCHCC OCCURS {||$C$L84||}   ; [] |652| 
    4999                    ;* --------------------------------------------------------------------------*
    5000                    ;*   BEGIN LOOP ||$C$L82||
    5001                    ;*
    5002                    ;*   Loop source line                : 652
    5003                    ;*   Loop closing brace source line  : 657
    5004                    ;*   Known Minimum Trip Count        : 1
    5005                    ;*   Known Maximum Trip Count        : 4294967295
    5006                    ;*   Known Max Trip Count Factor     : 1
    5007                    ;* --------------------------------------------------------------------------*
    5008 00000a74           ||$C$L82||:    
    5009                            .dwpsn  file "../esp8266.c",line 653,column 5,is_stmt,isa 1
    5010                    ;----------------------------------------------------------------------
    5011                    ; 653 | ESP8266SendCommand("AT+CIPSTATUS\r\n");                                
    5012                    ;----------------------------------------------------------------------
    5013 00000a74 A02C              ADR       A1, $C$SL32           ; [DPU_3_PIPE] |653|  ; [ORIG 16-BIT INS]
    5014                    $C$DW$221       .dwtag  DW_TAG_TI_branch
    5015                            .dwattr $C$DW$221, DW_AT_low_pc(0x00)
    5016                            .dwattr $C$DW$221, DW_AT_name("ESP8266SendCommand")
    5017                            .dwattr $C$DW$221, DW_AT_TI_call
    5018 00000a76 FBD9F7FF          BL        ESP8266SendCommand    ; [DPU_3_PIPE] |653|  ; [KEEP 32-BIT INS]
    5019                            ; CALL OCCURS {ESP8266SendCommand }  ; [] |653| 
    5020                            .dwpsn  file "../esp8266.c",line 654,column 5,is_stmt,isa 1
    5021                    ;----------------------------------------------------------------------
    5022                    ; 654 | DelayMsSearching(5000);                                                
    5023                    ;----------------------------------------------------------------------
    5024 00000a7a 3088F241          MOV       A1, #5000             ; [DPU_3_PIPE] |654|  ; [KEEP 32-BIT INS]
    5025                    $C$DW$222       .dwtag  DW_TAG_TI_branch
    5026                            .dwattr $C$DW$222, DW_AT_low_pc(0x00)
    5027                            .dwattr $C$DW$222, DW_AT_name("DelayMsSearching")
    5028                            .dwattr $C$DW$222, DW_AT_TI_call
    5029 00000a7e FC05F7FF          BL        DelayMsSearching      ; [DPU_3_PIPE] |654|  ; [KEEP 32-BIT INS]
    5030                            ; CALL OCCURS {DelayMsSearching }  ; [] |654| 
    5031                            .dwpsn  file "../esp8266.c",line 655,column 5,is_stmt,isa 1
    5032                    ;----------------------------------------------------------------------
    5033                    ; 655 | if(SearchFound) return 1; // success                                   
    5034                    ;----------------------------------------------------------------------
    5035 00000a82 4834              LDR       A1, $C$CON42          ; [DPU_3_PIPE] |655|  ; [ORIG 16-BIT INS]
    5036 00000a84 7800              LDRB      A1, [A1, #0]          ; [DPU_3_PIPE] |655|  ; [ORIG 16-BIT INS]
    5037 00000a86 B108              CBZ       A1, ||$C$L83||        ; []  ; [ORIG 16-BIT INS]
    5038                            ; BRANCHCC OCCURS {||$C$L83||}   ; [] |655| 
TI ARM Assembler PC v5.2.4 Thu Sep 17 23:20:49 2015

Tools Copyright (c) 1996-2015 Texas Instruments Incorporated
esp8266.asm                                                          PAGE  103

    5039                    ;* --------------------------------------------------------------------------*
    5040                            .dwpsn  file "../esp8266.c",line 655,column 21,is_stmt,isa 1
    5041 00000a88 2001              MOVS      A1, #1                ; [DPU_3_PIPE] |655|  ; [ORIG 16-BIT INS]
    5042 00000a8a E006              B         ||$C$L85||            ; [DPU_3_PIPE] |655|  ; [ORIG 16-BIT INS]
    5043                            ; BRANCH OCCURS {||$C$L85||}     ; [] |655| 
    5044                    ;* --------------------------------------------------------------------------*
    5045 00000a8c           ||$C$L83||:    
    5046                            .dwpsn  file "../esp8266.c",line 656,column 5,is_stmt,isa 1
    5047                    ;----------------------------------------------------------------------
    5048                    ; 656 | try--;                                                                 
    5049                    ;----------------------------------------------------------------------
    5050 00000a8c 9800              LDR       A1, [SP, #0]          ; [DPU_3_PIPE] |656|  ; [ORIG 16-BIT INS]
    5051 00000a8e 1E40              SUBS      A1, A1, #1            ; [DPU_3_PIPE] |656|  ; [ORIG 16-BIT INS]
    5052 00000a90 9000              STR       A1, [SP, #0]          ; [DPU_3_PIPE] |656|  ; [ORIG 16-BIT INS]
    5053                            .dwpsn  file "../esp8266.c",line 652,column 3,is_stmt,isa 1
    5054 00000a92 9800              LDR       A1, [SP, #0]          ; [DPU_3_PIPE] |652|  ; [ORIG 16-BIT INS]
    5055 00000a94 2800              CMP       A1, #0                ; [DPU_3_PIPE] |652|  ; [ORIG 16-BIT INS]
    5056 00000a96 D1ED              BNE       ||$C$L82||            ; [DPU_3_PIPE] |652|  ; [ORIG 16-BIT INS]
    5057                            ; BRANCHCC OCCURS {||$C$L82||}   ; [] |652| 
    5058                    ;* --------------------------------------------------------------------------*
    5059 00000a98           ||$C$L84||:    
    5060                            .dwpsn  file "../esp8266.c",line 658,column 3,is_stmt,isa 1
    5061                    ;----------------------------------------------------------------------
    5062                    ; 658 | return 0; // fail                                                      
    5063                    ;----------------------------------------------------------------------
    5064 00000a98 2000              MOVS      A1, #0                ; [DPU_3_PIPE] |658|  ; [ORIG 16-BIT INS]
    5065                    ;* --------------------------------------------------------------------------*
    5066 00000a9a           ||$C$L85||:    
    5067                            .dwpsn  file "../esp8266.c",line 659,column 1,is_stmt,isa 1
    5068                    $C$DW$223       .dwtag  DW_TAG_TI_branch
    5069                            .dwattr $C$DW$223, DW_AT_low_pc(0x00)
    5070                            .dwattr $C$DW$223, DW_AT_TI_return
    5071 00000a9a BD08              POP       {A4, PC}              ; [DPU_3_PIPE]  ; [ORIG 16-BIT INS]
    5072                            .dwcfi  cfa_offset, 0
    5073                            ; BRANCH OCCURS                  ; [] 
    5074                            .dwattr $C$DW$218, DW_AT_TI_end_file("../esp8266.c")
    5075                            .dwattr $C$DW$218, DW_AT_TI_end_line(0x293)
    5076                            .dwattr $C$DW$218, DW_AT_TI_end_column(0x01)
    5077                            .dwendentry
    5078                            .dwendtag $C$DW$218
    5079                    
    5080                    ;******************************************************************************
    5081                    ;* STRINGS                                                                    *
    5082                    ;******************************************************************************
    5083 00000a9c                   .sect   ".text"
    5084                            .align  4
    5085 00000a9c 6D        ||$C$SL25||:    .string "message=",0
         00000a9d 65       
         00000a9e 73       
         00000a9f 73       
         00000aa0 61       
         00000aa1 67       
         00000aa2 65       
         00000aa3 3D       
         00000aa4 00       
TI ARM Assembler PC v5.2.4 Thu Sep 17 23:20:49 2015

Tools Copyright (c) 1996-2015 Texas Instruments Incorporated
esp8266.asm                                                          PAGE  104

    5086                            .align  4
    5087 00000aa8 4D        ||$C$SL26||:    .string "Message from ESP8266: %s",10,0
         00000aa9 65       
         00000aaa 73       
         00000aab 73       
         00000aac 61       
         00000aad 67       
         00000aae 65       
         00000aaf 20       
         00000ab0 66       
         00000ab1 72       
         00000ab2 6F       
         00000ab3 6D       
         00000ab4 20       
         00000ab5 45       
         00000ab6 53       
         00000ab7 50       
         00000ab8 38       
         00000ab9 32       
         00000aba 36       
         00000abb 36       
         00000abc 3A       
         00000abd 20       
         00000abe 25       
         00000abf 73       
         00000ac0 0A       
         00000ac1 00       
    5088                            .align  4
    5089 00000ac4 41        ||$C$SL27||:    .string "AT+CIFSR",13,10,0
         00000ac5 54       
         00000ac6 2B       
         00000ac7 43       
         00000ac8 49       
         00000ac9 46       
         00000aca 53       
         00000acb 52       
         00000acc 0D       
         00000acd 0A       
         00000ace 00       
    5090                            .align  4
    5091 00000ad0 41        ||$C$SL28||:    .string "AT+CIPSTART=",34,"TCP",34,",",34,"144.76.83.20",34,",80",13
         00000ad1 54       
         00000ad2 2B       
         00000ad3 43       
         00000ad4 49       
         00000ad5 50       
         00000ad6 53       
         00000ad7 54       
         00000ad8 41       
         00000ad9 52       
         00000ada 54       
         00000adb 3D       
         00000adc 22       
         00000add 54       
         00000ade 43       
TI ARM Assembler PC v5.2.4 Thu Sep 17 23:20:49 2015

Tools Copyright (c) 1996-2015 Texas Instruments Incorporated
esp8266.asm                                                          PAGE  105

         00000adf 50       
         00000ae0 22       
         00000ae1 2C       
         00000ae2 22       
         00000ae3 31       
         00000ae4 34       
         00000ae5 34       
         00000ae6 2E       
         00000ae7 37       
         00000ae8 36       
         00000ae9 2E       
         00000aea 38       
         00000aeb 33       
         00000aec 2E       
         00000aed 32       
         00000aee 30       
         00000aef 22       
         00000af0 2C       
         00000af1 38       
         00000af2 30       
         00000af3 0D       
    5092 00000af4 0A                .string 10,0
         00000af5 00       
    5093                            .align  4
    5094 00000af8 41        ||$C$SL29||:    .string "AT+CIPSEND=%d",13,10,0
         00000af9 54       
         00000afa 2B       
         00000afb 43       
         00000afc 49       
         00000afd 50       
         00000afe 53       
         00000aff 45       
         00000b00 4E       
         00000b01 44       
         00000b02 3D       
         00000b03 25       
         00000b04 64       
         00000b05 0D       
         00000b06 0A       
         00000b07 00       
    5095                            .align  4
    5096 00000b08 41        ||$C$SL30||:    .string "AT+CIPCLOSE",13,10,0
         00000b09 54       
         00000b0a 2B       
         00000b0b 43       
         00000b0c 49       
         00000b0d 50       
         00000b0e 43       
         00000b0f 4C       
         00000b10 4F       
         00000b11 53       
         00000b12 45       
         00000b13 0D       
         00000b14 0A       
         00000b15 00       
TI ARM Assembler PC v5.2.4 Thu Sep 17 23:20:49 2015

Tools Copyright (c) 1996-2015 Texas Instruments Incorporated
esp8266.asm                                                          PAGE  106

    5097                            .align  4
    5098 00000b18 41        ||$C$SL31||:    .string "AT+CIPMODE=%d",13,10,0
         00000b19 54       
         00000b1a 2B       
         00000b1b 43       
         00000b1c 49       
         00000b1d 50       
         00000b1e 4D       
         00000b1f 4F       
         00000b20 44       
         00000b21 45       
         00000b22 3D       
         00000b23 25       
         00000b24 64       
         00000b25 0D       
         00000b26 0A       
         00000b27 00       
    5099                            .align  4
    5100 00000b28 41        ||$C$SL32||:    .string "AT+CIPSTATUS",13,10,0
         00000b29 54       
         00000b2a 2B       
         00000b2b 43       
         00000b2c 49       
         00000b2d 50       
         00000b2e 53       
         00000b2f 54       
         00000b30 41       
         00000b31 54       
         00000b32 55       
         00000b33 53       
         00000b34 0D       
         00000b35 0A       
         00000b36 00       
    5101                    ;******************************************************************************
    5102                    ;* CONSTANT TABLE                                                             *
    5103                    ;******************************************************************************
    5104 00000b37                   .sect   ".text"
    5105                            .align  4
    5106 00000b38 00000000! ||$C$CON35||:   .bits   ESP8266_PageRequested,32
    5107                            .align  4
    5108 00000b3c E000E100  ||$C$CON36||:   .bits   -536813312,32
    5109                            .align  4
    5110 00000b40 E000E180  ||$C$CON37||:   .bits   -536813184,32
    5111                            .align  4
    5112 00000b44 4000D018  ||$C$CON38||:   .bits   1073795096,32
    5113                            .align  4
    5114 00000b48 4000D000  ||$C$CON39||:   .bits   1073795072,32
    5115                            .align  4
    5116 00000b4c 00000000! ||$C$CON40||:   .bits   SearchString,32
    5117                            .align  4
    5118 00000b50 00000000! ||$C$CON41||:   .bits   $C$SL16,32
    5119                            .align  4
    5120 00000b54 00000000! ||$C$CON42||:   .bits   SearchFound,32
    5121                            .align  4
    5122 00000b58 00000000! ||$C$CON43||:   .bits   Fetch,32
TI ARM Assembler PC v5.2.4 Thu Sep 17 23:20:49 2015

Tools Copyright (c) 1996-2015 Texas Instruments Incorporated
esp8266.asm                                                          PAGE  107

    5123                            .align  4
    5124 00000b5c 00000000! ||$C$CON44||:   .bits   ESP8266_TXBuffer,32
    5125                            .align  4
    5126 00000b60 00000000! ||$C$CON45||:   .bits   SearchLooking,32
    5127                    ;*****************************************************************************
    5128                    ;* UNDEFINED EXTERNAL REFERENCES                                             *
    5129                    ;*****************************************************************************
    5130                            .global printf
    5131                            .global sprintf
    5132                            .global strlen
    5133                            .global strcpy
    5134                            .global strstr
    5135                            .global UART_OutCharNonBlock
    5136                            .global EnableInterrupts
    5137                    
    5138                    ;******************************************************************************
    5139                    ;* BUILD ATTRIBUTES                                                           *
    5140                    ;******************************************************************************
    5141                            .battr "aeabi", Tag_File, 1, Tag_ABI_PCS_wchar_t(2)
    5142                            .battr "aeabi", Tag_File, 1, Tag_ABI_FP_rounding(0)
    5143                            .battr "aeabi", Tag_File, 1, Tag_ABI_FP_denormal(0)
    5144                            .battr "aeabi", Tag_File, 1, Tag_ABI_FP_exceptions(0)
    5145                            .battr "aeabi", Tag_File, 1, Tag_ABI_FP_number_model(1)
    5146                            .battr "aeabi", Tag_File, 1, Tag_ABI_enum_size(0)
    5147                            .battr "aeabi", Tag_File, 1, Tag_ABI_optimization_goals(5)
    5148                            .battr "aeabi", Tag_File, 1, Tag_ABI_FP_optimization_goals(0)
    5149                            .battr "TI", Tag_File, 1, Tag_Bitfield_layout(2)
    5150                            .battr "TI", Tag_File, 1, Tag_FP_interface(1)
    5151                    
    5152                    ;******************************************************************************
    5153                    ;* TYPE INFORMATION                                                           *
    5154                    ;******************************************************************************
    5155                    
    5156                    $C$DW$T$20      .dwtag  DW_TAG_structure_type
    5157                            .dwattr $C$DW$T$20, DW_AT_byte_size(0x18)
    5158                    $C$DW$224       .dwtag  DW_TAG_member
    5159                            .dwattr $C$DW$224, DW_AT_type(*$C$DW$T$10)
    5160                            .dwattr $C$DW$224, DW_AT_name("fd")
    5161                            .dwattr $C$DW$224, DW_AT_TI_symbol_name("fd")
    5162                            .dwattr $C$DW$224, DW_AT_data_member_location[DW_OP_plus_uconst 0x0]
    5163                            .dwattr $C$DW$224, DW_AT_accessibility(DW_ACCESS_public)
    5164                            .dwattr $C$DW$224, DW_AT_decl_file("C:/ti/ccsv6/tools/compiler/ti-cgt-arm_5.2.4/include/stdio.
    5165                            .dwattr $C$DW$224, DW_AT_decl_line(0x5c)
    5166                            .dwattr $C$DW$224, DW_AT_decl_column(0x0b)
    5167                    $C$DW$225       .dwtag  DW_TAG_member
    5168                            .dwattr $C$DW$225, DW_AT_type(*$C$DW$T$19)
    5169                            .dwattr $C$DW$225, DW_AT_name("buf")
    5170                            .dwattr $C$DW$225, DW_AT_TI_symbol_name("buf")
    5171                            .dwattr $C$DW$225, DW_AT_data_member_location[DW_OP_plus_uconst 0x4]
    5172                            .dwattr $C$DW$225, DW_AT_accessibility(DW_ACCESS_public)
    5173                            .dwattr $C$DW$225, DW_AT_decl_file("C:/ti/ccsv6/tools/compiler/ti-cgt-arm_5.2.4/include/stdio.
    5174                            .dwattr $C$DW$225, DW_AT_decl_line(0x5d)
    5175                            .dwattr $C$DW$225, DW_AT_decl_column(0x16)
    5176                    $C$DW$226       .dwtag  DW_TAG_member
    5177                            .dwattr $C$DW$226, DW_AT_type(*$C$DW$T$19)
TI ARM Assembler PC v5.2.4 Thu Sep 17 23:20:49 2015

Tools Copyright (c) 1996-2015 Texas Instruments Incorporated
esp8266.asm                                                          PAGE  108

    5178                            .dwattr $C$DW$226, DW_AT_name("pos")
    5179                            .dwattr $C$DW$226, DW_AT_TI_symbol_name("pos")
    5180                            .dwattr $C$DW$226, DW_AT_data_member_location[DW_OP_plus_uconst 0x8]
    5181                            .dwattr $C$DW$226, DW_AT_accessibility(DW_ACCESS_public)
    5182                            .dwattr $C$DW$226, DW_AT_decl_file("C:/ti/ccsv6/tools/compiler/ti-cgt-arm_5.2.4/include/stdio.
    5183                            .dwattr $C$DW$226, DW_AT_decl_line(0x5e)
    5184                            .dwattr $C$DW$226, DW_AT_decl_column(0x16)
    5185                    $C$DW$227       .dwtag  DW_TAG_member
    5186                            .dwattr $C$DW$227, DW_AT_type(*$C$DW$T$19)
    5187                            .dwattr $C$DW$227, DW_AT_name("bufend")
    5188                            .dwattr $C$DW$227, DW_AT_TI_symbol_name("bufend")
    5189                            .dwattr $C$DW$227, DW_AT_data_member_location[DW_OP_plus_uconst 0xc]
    5190                            .dwattr $C$DW$227, DW_AT_accessibility(DW_ACCESS_public)
    5191                            .dwattr $C$DW$227, DW_AT_decl_file("C:/ti/ccsv6/tools/compiler/ti-cgt-arm_5.2.4/include/stdio.
    5192                            .dwattr $C$DW$227, DW_AT_decl_line(0x5f)
    5193                            .dwattr $C$DW$227, DW_AT_decl_column(0x16)
    5194                    $C$DW$228       .dwtag  DW_TAG_member
    5195                            .dwattr $C$DW$228, DW_AT_type(*$C$DW$T$19)
    5196                            .dwattr $C$DW$228, DW_AT_name("buff_stop")
    5197                            .dwattr $C$DW$228, DW_AT_TI_symbol_name("buff_stop")
    5198                            .dwattr $C$DW$228, DW_AT_data_member_location[DW_OP_plus_uconst 0x10]
    5199                            .dwattr $C$DW$228, DW_AT_accessibility(DW_ACCESS_public)
    5200                            .dwattr $C$DW$228, DW_AT_decl_file("C:/ti/ccsv6/tools/compiler/ti-cgt-arm_5.2.4/include/stdio.
    5201                            .dwattr $C$DW$228, DW_AT_decl_line(0x60)
    5202                            .dwattr $C$DW$228, DW_AT_decl_column(0x16)
    5203                    $C$DW$229       .dwtag  DW_TAG_member
    5204                            .dwattr $C$DW$229, DW_AT_type(*$C$DW$T$11)
    5205                            .dwattr $C$DW$229, DW_AT_name("flags")
    5206                            .dwattr $C$DW$229, DW_AT_TI_symbol_name("flags")
    5207                            .dwattr $C$DW$229, DW_AT_data_member_location[DW_OP_plus_uconst 0x14]
    5208                            .dwattr $C$DW$229, DW_AT_accessibility(DW_ACCESS_public)
    5209                            .dwattr $C$DW$229, DW_AT_decl_file("C:/ti/ccsv6/tools/compiler/ti-cgt-arm_5.2.4/include/stdio.
    5210                            .dwattr $C$DW$229, DW_AT_decl_line(0x61)
    5211                            .dwattr $C$DW$229, DW_AT_decl_column(0x16)
    5212                            .dwendtag $C$DW$T$20
    5213                    
    5214                            .dwattr $C$DW$T$20, DW_AT_decl_file("C:/ti/ccsv6/tools/compiler/ti-cgt-arm_5.2.4/include/stdio
    5215                            .dwattr $C$DW$T$20, DW_AT_decl_line(0x5b)
    5216                            .dwattr $C$DW$T$20, DW_AT_decl_column(0x10)
    5217                    $C$DW$T$25      .dwtag  DW_TAG_typedef, DW_AT_name("FILE")
    5218                            .dwattr $C$DW$T$25, DW_AT_type(*$C$DW$T$20)
    5219                            .dwattr $C$DW$T$25, DW_AT_language(DW_LANG_C)
    5220                            .dwattr $C$DW$T$25, DW_AT_decl_file("C:/ti/ccsv6/tools/compiler/ti-cgt-arm_5.2.4/include/stdio
    5221                            .dwattr $C$DW$T$25, DW_AT_decl_line(0x62)
    5222                            .dwattr $C$DW$T$25, DW_AT_decl_column(0x03)
    5223                    
    5224                    $C$DW$T$21      .dwtag  DW_TAG_structure_type
    5225                            .dwattr $C$DW$T$21, DW_AT_byte_size(0x08)
    5226                    $C$DW$230       .dwtag  DW_TAG_member
    5227                            .dwattr $C$DW$230, DW_AT_type(*$C$DW$T$10)
    5228                            .dwattr $C$DW$230, DW_AT_name("quot")
    5229                            .dwattr $C$DW$230, DW_AT_TI_symbol_name("quot")
    5230                            .dwattr $C$DW$230, DW_AT_data_member_location[DW_OP_plus_uconst 0x0]
    5231                            .dwattr $C$DW$230, DW_AT_accessibility(DW_ACCESS_public)
    5232                            .dwattr $C$DW$230, DW_AT_decl_file("C:/ti/ccsv6/tools/compiler/ti-cgt-arm_5.2.4/include/stdlib
TI ARM Assembler PC v5.2.4 Thu Sep 17 23:20:49 2015

Tools Copyright (c) 1996-2015 Texas Instruments Incorporated
esp8266.asm                                                          PAGE  109

    5233                            .dwattr $C$DW$230, DW_AT_decl_line(0x59)
    5234                            .dwattr $C$DW$230, DW_AT_decl_column(0x16)
    5235                    $C$DW$231       .dwtag  DW_TAG_member
    5236                            .dwattr $C$DW$231, DW_AT_type(*$C$DW$T$10)
    5237                            .dwattr $C$DW$231, DW_AT_name("rem")
    5238                            .dwattr $C$DW$231, DW_AT_TI_symbol_name("rem")
    5239                            .dwattr $C$DW$231, DW_AT_data_member_location[DW_OP_plus_uconst 0x4]
    5240                            .dwattr $C$DW$231, DW_AT_accessibility(DW_ACCESS_public)
    5241                            .dwattr $C$DW$231, DW_AT_decl_file("C:/ti/ccsv6/tools/compiler/ti-cgt-arm_5.2.4/include/stdlib
    5242                            .dwattr $C$DW$231, DW_AT_decl_line(0x59)
    5243                            .dwattr $C$DW$231, DW_AT_decl_column(0x1c)
    5244                            .dwendtag $C$DW$T$21
    5245                    
    5246                            .dwattr $C$DW$T$21, DW_AT_decl_file("C:/ti/ccsv6/tools/compiler/ti-cgt-arm_5.2.4/include/stdli
    5247                            .dwattr $C$DW$T$21, DW_AT_decl_line(0x59)
    5248                            .dwattr $C$DW$T$21, DW_AT_decl_column(0x10)
    5249                    $C$DW$T$26      .dwtag  DW_TAG_typedef, DW_AT_name("div_t")
    5250                            .dwattr $C$DW$T$26, DW_AT_type(*$C$DW$T$21)
    5251                            .dwattr $C$DW$T$26, DW_AT_language(DW_LANG_C)
    5252                            .dwattr $C$DW$T$26, DW_AT_decl_file("C:/ti/ccsv6/tools/compiler/ti-cgt-arm_5.2.4/include/stdli
    5253                            .dwattr $C$DW$T$26, DW_AT_decl_line(0x59)
    5254                            .dwattr $C$DW$T$26, DW_AT_decl_column(0x23)
    5255                    
    5256                    $C$DW$T$22      .dwtag  DW_TAG_structure_type
    5257                            .dwattr $C$DW$T$22, DW_AT_byte_size(0x08)
    5258                    $C$DW$232       .dwtag  DW_TAG_member
    5259                            .dwattr $C$DW$232, DW_AT_type(*$C$DW$T$10)
    5260                            .dwattr $C$DW$232, DW_AT_name("quot")
    5261                            .dwattr $C$DW$232, DW_AT_TI_symbol_name("quot")
    5262                            .dwattr $C$DW$232, DW_AT_data_member_location[DW_OP_plus_uconst 0x0]
    5263                            .dwattr $C$DW$232, DW_AT_accessibility(DW_ACCESS_public)
    5264                            .dwattr $C$DW$232, DW_AT_decl_file("C:/ti/ccsv6/tools/compiler/ti-cgt-arm_5.2.4/include/stdlib
    5265                            .dwattr $C$DW$232, DW_AT_decl_line(0x5b)
    5266                            .dwattr $C$DW$232, DW_AT_decl_column(0x16)
    5267                    $C$DW$233       .dwtag  DW_TAG_member
    5268                            .dwattr $C$DW$233, DW_AT_type(*$C$DW$T$10)
    5269                            .dwattr $C$DW$233, DW_AT_name("rem")
    5270                            .dwattr $C$DW$233, DW_AT_TI_symbol_name("rem")
    5271                            .dwattr $C$DW$233, DW_AT_data_member_location[DW_OP_plus_uconst 0x4]
    5272                            .dwattr $C$DW$233, DW_AT_accessibility(DW_ACCESS_public)
    5273                            .dwattr $C$DW$233, DW_AT_decl_file("C:/ti/ccsv6/tools/compiler/ti-cgt-arm_5.2.4/include/stdlib
    5274                            .dwattr $C$DW$233, DW_AT_decl_line(0x5b)
    5275                            .dwattr $C$DW$233, DW_AT_decl_column(0x1c)
    5276                            .dwendtag $C$DW$T$22
    5277                    
    5278                            .dwattr $C$DW$T$22, DW_AT_decl_file("C:/ti/ccsv6/tools/compiler/ti-cgt-arm_5.2.4/include/stdli
    5279                            .dwattr $C$DW$T$22, DW_AT_decl_line(0x5b)
    5280                            .dwattr $C$DW$T$22, DW_AT_decl_column(0x10)
    5281                    $C$DW$T$27      .dwtag  DW_TAG_typedef, DW_AT_name("ldiv_t")
    5282                            .dwattr $C$DW$T$27, DW_AT_type(*$C$DW$T$22)
    5283                            .dwattr $C$DW$T$27, DW_AT_language(DW_LANG_C)
    5284                            .dwattr $C$DW$T$27, DW_AT_decl_file("C:/ti/ccsv6/tools/compiler/ti-cgt-arm_5.2.4/include/stdli
    5285                            .dwattr $C$DW$T$27, DW_AT_decl_line(0x5b)
    5286                            .dwattr $C$DW$T$27, DW_AT_decl_column(0x23)
    5287                    
TI ARM Assembler PC v5.2.4 Thu Sep 17 23:20:49 2015

Tools Copyright (c) 1996-2015 Texas Instruments Incorporated
esp8266.asm                                                          PAGE  110

    5288                    $C$DW$T$23      .dwtag  DW_TAG_structure_type
    5289                            .dwattr $C$DW$T$23, DW_AT_byte_size(0x10)
    5290                    $C$DW$234       .dwtag  DW_TAG_member
    5291                            .dwattr $C$DW$234, DW_AT_type(*$C$DW$T$14)
    5292                            .dwattr $C$DW$234, DW_AT_name("quot")
    5293                            .dwattr $C$DW$234, DW_AT_TI_symbol_name("quot")
    5294                            .dwattr $C$DW$234, DW_AT_data_member_location[DW_OP_plus_uconst 0x0]
    5295                            .dwattr $C$DW$234, DW_AT_accessibility(DW_ACCESS_public)
    5296                            .dwattr $C$DW$234, DW_AT_decl_file("C:/ti/ccsv6/tools/compiler/ti-cgt-arm_5.2.4/include/stdlib
    5297                            .dwattr $C$DW$234, DW_AT_decl_line(0x5e)
    5298                            .dwattr $C$DW$234, DW_AT_decl_column(0x1c)
    5299                    $C$DW$235       .dwtag  DW_TAG_member
    5300                            .dwattr $C$DW$235, DW_AT_type(*$C$DW$T$14)
    5301                            .dwattr $C$DW$235, DW_AT_name("rem")
    5302                            .dwattr $C$DW$235, DW_AT_TI_symbol_name("rem")
    5303                            .dwattr $C$DW$235, DW_AT_data_member_location[DW_OP_plus_uconst 0x8]
    5304                            .dwattr $C$DW$235, DW_AT_accessibility(DW_ACCESS_public)
    5305                            .dwattr $C$DW$235, DW_AT_decl_file("C:/ti/ccsv6/tools/compiler/ti-cgt-arm_5.2.4/include/stdlib
    5306                            .dwattr $C$DW$235, DW_AT_decl_line(0x5e)
    5307                            .dwattr $C$DW$235, DW_AT_decl_column(0x22)
    5308                            .dwendtag $C$DW$T$23
    5309                    
    5310                            .dwattr $C$DW$T$23, DW_AT_decl_file("C:/ti/ccsv6/tools/compiler/ti-cgt-arm_5.2.4/include/stdli
    5311                            .dwattr $C$DW$T$23, DW_AT_decl_line(0x5e)
    5312                            .dwattr $C$DW$T$23, DW_AT_decl_column(0x10)
    5313                    $C$DW$T$28      .dwtag  DW_TAG_typedef, DW_AT_name("lldiv_t")
    5314                            .dwattr $C$DW$T$28, DW_AT_type(*$C$DW$T$23)
    5315                            .dwattr $C$DW$T$28, DW_AT_language(DW_LANG_C)
    5316                            .dwattr $C$DW$T$28, DW_AT_decl_file("C:/ti/ccsv6/tools/compiler/ti-cgt-arm_5.2.4/include/stdli
    5317                            .dwattr $C$DW$T$28, DW_AT_decl_line(0x5e)
    5318                            .dwattr $C$DW$T$28, DW_AT_decl_column(0x29)
    5319                    $C$DW$T$2       .dwtag  DW_TAG_unspecified_type
    5320                            .dwattr $C$DW$T$2, DW_AT_name("void")
    5321                    $C$DW$T$3       .dwtag  DW_TAG_pointer_type
    5322                            .dwattr $C$DW$T$3, DW_AT_type(*$C$DW$T$2)
    5323                            .dwattr $C$DW$T$3, DW_AT_address_class(0x20)
    5324                    
    5325                    $C$DW$T$32      .dwtag  DW_TAG_subroutine_type
    5326                            .dwattr $C$DW$T$32, DW_AT_language(DW_LANG_C)
    5327                    $C$DW$T$33      .dwtag  DW_TAG_pointer_type
    5328                            .dwattr $C$DW$T$33, DW_AT_type(*$C$DW$T$32)
    5329                            .dwattr $C$DW$T$33, DW_AT_address_class(0x20)
    5330                    $C$DW$T$34      .dwtag  DW_TAG_typedef, DW_AT_name("__TI_atexit_fn")
    5331                            .dwattr $C$DW$T$34, DW_AT_type(*$C$DW$T$33)
    5332                            .dwattr $C$DW$T$34, DW_AT_language(DW_LANG_C)
    5333                            .dwattr $C$DW$T$34, DW_AT_decl_file("C:/ti/ccsv6/tools/compiler/ti-cgt-arm_5.2.4/include/stdli
    5334                            .dwattr $C$DW$T$34, DW_AT_decl_line(0xb2)
    5335                            .dwattr $C$DW$T$34, DW_AT_decl_column(0x14)
    5336                    $C$DW$T$44      .dwtag  DW_TAG_const_type
    5337                            .dwattr $C$DW$T$44, DW_AT_type(*$C$DW$T$2)
    5338                    $C$DW$T$45      .dwtag  DW_TAG_pointer_type
    5339                            .dwattr $C$DW$T$45, DW_AT_type(*$C$DW$T$44)
    5340                            .dwattr $C$DW$T$45, DW_AT_address_class(0x20)
    5341                    $C$DW$T$4       .dwtag  DW_TAG_base_type
    5342                            .dwattr $C$DW$T$4, DW_AT_encoding(DW_ATE_boolean)
TI ARM Assembler PC v5.2.4 Thu Sep 17 23:20:49 2015

Tools Copyright (c) 1996-2015 Texas Instruments Incorporated
esp8266.asm                                                          PAGE  111

    5343                            .dwattr $C$DW$T$4, DW_AT_name("bool")
    5344                            .dwattr $C$DW$T$4, DW_AT_byte_size(0x01)
    5345                    $C$DW$T$5       .dwtag  DW_TAG_base_type
    5346                            .dwattr $C$DW$T$5, DW_AT_encoding(DW_ATE_signed_char)
    5347                            .dwattr $C$DW$T$5, DW_AT_name("signed char")
    5348                            .dwattr $C$DW$T$5, DW_AT_byte_size(0x01)
    5349                    $C$DW$T$46      .dwtag  DW_TAG_typedef, DW_AT_name("int8_t")
    5350                            .dwattr $C$DW$T$46, DW_AT_type(*$C$DW$T$5)
    5351                            .dwattr $C$DW$T$46, DW_AT_language(DW_LANG_C)
    5352                            .dwattr $C$DW$T$46, DW_AT_decl_file("C:/ti/ccsv6/tools/compiler/ti-cgt-arm_5.2.4/include/stdin
    5353                            .dwattr $C$DW$T$46, DW_AT_decl_line(0x2a)
    5354                            .dwattr $C$DW$T$46, DW_AT_decl_column(0x1d)
    5355                    $C$DW$T$47      .dwtag  DW_TAG_typedef, DW_AT_name("int_least8_t")
    5356                            .dwattr $C$DW$T$47, DW_AT_type(*$C$DW$T$46)
    5357                            .dwattr $C$DW$T$47, DW_AT_language(DW_LANG_C)
    5358                            .dwattr $C$DW$T$47, DW_AT_decl_file("C:/ti/ccsv6/tools/compiler/ti-cgt-arm_5.2.4/include/stdin
    5359                            .dwattr $C$DW$T$47, DW_AT_decl_line(0x37)
    5360                            .dwattr $C$DW$T$47, DW_AT_decl_column(0x17)
    5361                    $C$DW$T$6       .dwtag  DW_TAG_base_type
    5362                            .dwattr $C$DW$T$6, DW_AT_encoding(DW_ATE_unsigned_char)
    5363                            .dwattr $C$DW$T$6, DW_AT_name("unsigned char")
    5364                            .dwattr $C$DW$T$6, DW_AT_byte_size(0x01)
    5365                    $C$DW$T$19      .dwtag  DW_TAG_pointer_type
    5366                            .dwattr $C$DW$T$19, DW_AT_type(*$C$DW$T$6)
    5367                            .dwattr $C$DW$T$19, DW_AT_address_class(0x20)
    5368                    $C$DW$T$48      .dwtag  DW_TAG_typedef, DW_AT_name("uint8_t")
    5369                            .dwattr $C$DW$T$48, DW_AT_type(*$C$DW$T$6)
    5370                            .dwattr $C$DW$T$48, DW_AT_language(DW_LANG_C)
    5371                            .dwattr $C$DW$T$48, DW_AT_decl_file("C:/ti/ccsv6/tools/compiler/ti-cgt-arm_5.2.4/include/stdin
    5372                            .dwattr $C$DW$T$48, DW_AT_decl_line(0x2b)
    5373                            .dwattr $C$DW$T$48, DW_AT_decl_column(0x1c)
    5374                    $C$DW$T$49      .dwtag  DW_TAG_typedef, DW_AT_name("uint_least8_t")
    5375                            .dwattr $C$DW$T$49, DW_AT_type(*$C$DW$T$48)
    5376                            .dwattr $C$DW$T$49, DW_AT_language(DW_LANG_C)
    5377                            .dwattr $C$DW$T$49, DW_AT_decl_file("C:/ti/ccsv6/tools/compiler/ti-cgt-arm_5.2.4/include/stdin
    5378                            .dwattr $C$DW$T$49, DW_AT_decl_line(0x38)
    5379                            .dwattr $C$DW$T$49, DW_AT_decl_column(0x16)
    5380                    $C$DW$T$7       .dwtag  DW_TAG_base_type
    5381                            .dwattr $C$DW$T$7, DW_AT_encoding(DW_ATE_signed_char)
    5382                            .dwattr $C$DW$T$7, DW_AT_name("wchar_t")
    5383                            .dwattr $C$DW$T$7, DW_AT_byte_size(0x02)
    5384                    $C$DW$T$8       .dwtag  DW_TAG_base_type
    5385                            .dwattr $C$DW$T$8, DW_AT_encoding(DW_ATE_signed)
    5386                            .dwattr $C$DW$T$8, DW_AT_name("short")
    5387                            .dwattr $C$DW$T$8, DW_AT_byte_size(0x02)
    5388                    $C$DW$T$50      .dwtag  DW_TAG_typedef, DW_AT_name("int16_t")
    5389                            .dwattr $C$DW$T$50, DW_AT_type(*$C$DW$T$8)
    5390                            .dwattr $C$DW$T$50, DW_AT_language(DW_LANG_C)
    5391                            .dwattr $C$DW$T$50, DW_AT_decl_file("C:/ti/ccsv6/tools/compiler/ti-cgt-arm_5.2.4/include/stdin
    5392                            .dwattr $C$DW$T$50, DW_AT_decl_line(0x2c)
    5393                            .dwattr $C$DW$T$50, DW_AT_decl_column(0x1d)
    5394                    $C$DW$T$51      .dwtag  DW_TAG_typedef, DW_AT_name("int_least16_t")
    5395                            .dwattr $C$DW$T$51, DW_AT_type(*$C$DW$T$50)
    5396                            .dwattr $C$DW$T$51, DW_AT_language(DW_LANG_C)
    5397                            .dwattr $C$DW$T$51, DW_AT_decl_file("C:/ti/ccsv6/tools/compiler/ti-cgt-arm_5.2.4/include/stdin
TI ARM Assembler PC v5.2.4 Thu Sep 17 23:20:49 2015

Tools Copyright (c) 1996-2015 Texas Instruments Incorporated
esp8266.asm                                                          PAGE  112

    5398                            .dwattr $C$DW$T$51, DW_AT_decl_line(0x3a)
    5399                            .dwattr $C$DW$T$51, DW_AT_decl_column(0x17)
    5400                    $C$DW$T$9       .dwtag  DW_TAG_base_type
    5401                            .dwattr $C$DW$T$9, DW_AT_encoding(DW_ATE_unsigned)
    5402                            .dwattr $C$DW$T$9, DW_AT_name("unsigned short")
    5403                            .dwattr $C$DW$T$9, DW_AT_byte_size(0x02)
    5404                    $C$DW$T$52      .dwtag  DW_TAG_typedef, DW_AT_name("_Wchart")
    5405                            .dwattr $C$DW$T$52, DW_AT_type(*$C$DW$T$9)
    5406                            .dwattr $C$DW$T$52, DW_AT_language(DW_LANG_C)
    5407                            .dwattr $C$DW$T$52, DW_AT_decl_file("C:/ti/ccsv6/tools/compiler/ti-cgt-arm_5.2.4/include/yvals
    5408                            .dwattr $C$DW$T$52, DW_AT_decl_line(0x1e5)
    5409                            .dwattr $C$DW$T$52, DW_AT_decl_column(0x21)
    5410                    $C$DW$T$53      .dwtag  DW_TAG_typedef, DW_AT_name("_Wintt")
    5411                            .dwattr $C$DW$T$53, DW_AT_type(*$C$DW$T$9)
    5412                            .dwattr $C$DW$T$53, DW_AT_language(DW_LANG_C)
    5413                            .dwattr $C$DW$T$53, DW_AT_decl_file("C:/ti/ccsv6/tools/compiler/ti-cgt-arm_5.2.4/include/yvals
    5414                            .dwattr $C$DW$T$53, DW_AT_decl_line(0x1e6)
    5415                            .dwattr $C$DW$T$53, DW_AT_decl_column(0x21)
    5416                    $C$DW$T$42      .dwtag  DW_TAG_typedef, DW_AT_name("uint16_t")
    5417                            .dwattr $C$DW$T$42, DW_AT_type(*$C$DW$T$9)
    5418                            .dwattr $C$DW$T$42, DW_AT_language(DW_LANG_C)
    5419                            .dwattr $C$DW$T$42, DW_AT_decl_file("C:/ti/ccsv6/tools/compiler/ti-cgt-arm_5.2.4/include/stdin
    5420                            .dwattr $C$DW$T$42, DW_AT_decl_line(0x2d)
    5421                            .dwattr $C$DW$T$42, DW_AT_decl_column(0x1c)
    5422                    $C$DW$T$54      .dwtag  DW_TAG_typedef, DW_AT_name("uint_least16_t")
    5423                            .dwattr $C$DW$T$54, DW_AT_type(*$C$DW$T$42)
    5424                            .dwattr $C$DW$T$54, DW_AT_language(DW_LANG_C)
    5425                            .dwattr $C$DW$T$54, DW_AT_decl_file("C:/ti/ccsv6/tools/compiler/ti-cgt-arm_5.2.4/include/stdin
    5426                            .dwattr $C$DW$T$54, DW_AT_decl_line(0x3b)
    5427                            .dwattr $C$DW$T$54, DW_AT_decl_column(0x16)
    5428                    $C$DW$T$55      .dwtag  DW_TAG_typedef, DW_AT_name("wchar_t")
    5429                            .dwattr $C$DW$T$55, DW_AT_type(*$C$DW$T$9)
    5430                            .dwattr $C$DW$T$55, DW_AT_language(DW_LANG_C)
    5431                            .dwattr $C$DW$T$55, DW_AT_decl_file("C:/ti/ccsv6/tools/compiler/ti-cgt-arm_5.2.4/include/stdli
    5432                            .dwattr $C$DW$T$55, DW_AT_decl_line(0x75)
    5433                            .dwattr $C$DW$T$55, DW_AT_decl_column(0x1a)
    5434                    $C$DW$T$10      .dwtag  DW_TAG_base_type
    5435                            .dwattr $C$DW$T$10, DW_AT_encoding(DW_ATE_signed)
    5436                            .dwattr $C$DW$T$10, DW_AT_name("int")
    5437                            .dwattr $C$DW$T$10, DW_AT_byte_size(0x04)
    5438                    $C$DW$T$56      .dwtag  DW_TAG_typedef, DW_AT_name("_Ptrdifft")
    5439                            .dwattr $C$DW$T$56, DW_AT_type(*$C$DW$T$10)
    5440                            .dwattr $C$DW$T$56, DW_AT_language(DW_LANG_C)
    5441                            .dwattr $C$DW$T$56, DW_AT_decl_file("C:/ti/ccsv6/tools/compiler/ti-cgt-arm_5.2.4/include/yvals
    5442                            .dwattr $C$DW$T$56, DW_AT_decl_line(0xa9)
    5443                            .dwattr $C$DW$T$56, DW_AT_decl_column(0x1e)
    5444                    $C$DW$T$69      .dwtag  DW_TAG_volatile_type
    5445                            .dwattr $C$DW$T$69, DW_AT_type(*$C$DW$T$10)
    5446                    
    5447                    $C$DW$T$70      .dwtag  DW_TAG_subroutine_type
    5448                            .dwattr $C$DW$T$70, DW_AT_type(*$C$DW$T$10)
    5449                            .dwattr $C$DW$T$70, DW_AT_language(DW_LANG_C)
    5450                    $C$DW$236       .dwtag  DW_TAG_formal_parameter
    5451                            .dwattr $C$DW$236, DW_AT_type(*$C$DW$T$45)
    5452                    $C$DW$237       .dwtag  DW_TAG_formal_parameter
TI ARM Assembler PC v5.2.4 Thu Sep 17 23:20:49 2015

Tools Copyright (c) 1996-2015 Texas Instruments Incorporated
esp8266.asm                                                          PAGE  113

    5453                            .dwattr $C$DW$237, DW_AT_type(*$C$DW$T$45)
    5454                            .dwendtag $C$DW$T$70
    5455                    
    5456                    $C$DW$T$71      .dwtag  DW_TAG_pointer_type
    5457                            .dwattr $C$DW$T$71, DW_AT_type(*$C$DW$T$70)
    5458                            .dwattr $C$DW$T$71, DW_AT_address_class(0x20)
    5459                    $C$DW$T$72      .dwtag  DW_TAG_typedef, DW_AT_name("__TI_compar_fn")
    5460                            .dwattr $C$DW$T$72, DW_AT_type(*$C$DW$T$71)
    5461                            .dwattr $C$DW$T$72, DW_AT_language(DW_LANG_C)
    5462                            .dwattr $C$DW$T$72, DW_AT_decl_file("C:/ti/ccsv6/tools/compiler/ti-cgt-arm_5.2.4/include/stdli
    5463                            .dwattr $C$DW$T$72, DW_AT_decl_line(0xb5)
    5464                            .dwattr $C$DW$T$72, DW_AT_decl_column(0x13)
    5465                    $C$DW$T$73      .dwtag  DW_TAG_typedef, DW_AT_name("int32_t")
    5466                            .dwattr $C$DW$T$73, DW_AT_type(*$C$DW$T$10)
    5467                            .dwattr $C$DW$T$73, DW_AT_language(DW_LANG_C)
    5468                            .dwattr $C$DW$T$73, DW_AT_decl_file("C:/ti/ccsv6/tools/compiler/ti-cgt-arm_5.2.4/include/stdin
    5469                            .dwattr $C$DW$T$73, DW_AT_decl_line(0x2e)
    5470                            .dwattr $C$DW$T$73, DW_AT_decl_column(0x1d)
    5471                    $C$DW$T$74      .dwtag  DW_TAG_typedef, DW_AT_name("int_fast16_t")
    5472                            .dwattr $C$DW$T$74, DW_AT_type(*$C$DW$T$73)
    5473                            .dwattr $C$DW$T$74, DW_AT_language(DW_LANG_C)
    5474                            .dwattr $C$DW$T$74, DW_AT_decl_file("C:/ti/ccsv6/tools/compiler/ti-cgt-arm_5.2.4/include/stdin
    5475                            .dwattr $C$DW$T$74, DW_AT_decl_line(0x47)
    5476                            .dwattr $C$DW$T$74, DW_AT_decl_column(0x17)
    5477                    $C$DW$T$75      .dwtag  DW_TAG_typedef, DW_AT_name("int_fast32_t")
    5478                            .dwattr $C$DW$T$75, DW_AT_type(*$C$DW$T$73)
    5479                            .dwattr $C$DW$T$75, DW_AT_language(DW_LANG_C)
    5480                            .dwattr $C$DW$T$75, DW_AT_decl_file("C:/ti/ccsv6/tools/compiler/ti-cgt-arm_5.2.4/include/stdin
    5481                            .dwattr $C$DW$T$75, DW_AT_decl_line(0x4a)
    5482                            .dwattr $C$DW$T$75, DW_AT_decl_column(0x17)
    5483                    $C$DW$T$76      .dwtag  DW_TAG_typedef, DW_AT_name("int_fast8_t")
    5484                            .dwattr $C$DW$T$76, DW_AT_type(*$C$DW$T$73)
    5485                            .dwattr $C$DW$T$76, DW_AT_language(DW_LANG_C)
    5486                            .dwattr $C$DW$T$76, DW_AT_decl_file("C:/ti/ccsv6/tools/compiler/ti-cgt-arm_5.2.4/include/stdin
    5487                            .dwattr $C$DW$T$76, DW_AT_decl_line(0x45)
    5488                            .dwattr $C$DW$T$76, DW_AT_decl_column(0x17)
    5489                    $C$DW$T$77      .dwtag  DW_TAG_typedef, DW_AT_name("int_least32_t")
    5490                            .dwattr $C$DW$T$77, DW_AT_type(*$C$DW$T$73)
    5491                            .dwattr $C$DW$T$77, DW_AT_language(DW_LANG_C)
    5492                            .dwattr $C$DW$T$77, DW_AT_decl_file("C:/ti/ccsv6/tools/compiler/ti-cgt-arm_5.2.4/include/stdin
    5493                            .dwattr $C$DW$T$77, DW_AT_decl_line(0x3c)
    5494                            .dwattr $C$DW$T$77, DW_AT_decl_column(0x17)
    5495                    $C$DW$T$78      .dwtag  DW_TAG_typedef, DW_AT_name("intptr_t")
    5496                            .dwattr $C$DW$T$78, DW_AT_type(*$C$DW$T$10)
    5497                            .dwattr $C$DW$T$78, DW_AT_language(DW_LANG_C)
    5498                            .dwattr $C$DW$T$78, DW_AT_decl_file("C:/ti/ccsv6/tools/compiler/ti-cgt-arm_5.2.4/include/stdin
    5499                            .dwattr $C$DW$T$78, DW_AT_decl_line(0x52)
    5500                            .dwattr $C$DW$T$78, DW_AT_decl_column(0x1a)
    5501                    $C$DW$T$11      .dwtag  DW_TAG_base_type
    5502                            .dwattr $C$DW$T$11, DW_AT_encoding(DW_ATE_unsigned)
    5503                            .dwattr $C$DW$T$11, DW_AT_name("unsigned int")
    5504                            .dwattr $C$DW$T$11, DW_AT_byte_size(0x04)
    5505                    $C$DW$T$79      .dwtag  DW_TAG_typedef, DW_AT_name("_Sizet")
    5506                            .dwattr $C$DW$T$79, DW_AT_type(*$C$DW$T$11)
    5507                            .dwattr $C$DW$T$79, DW_AT_language(DW_LANG_C)
TI ARM Assembler PC v5.2.4 Thu Sep 17 23:20:49 2015

Tools Copyright (c) 1996-2015 Texas Instruments Incorporated
esp8266.asm                                                          PAGE  114

    5508                            .dwattr $C$DW$T$79, DW_AT_decl_file("C:/ti/ccsv6/tools/compiler/ti-cgt-arm_5.2.4/include/yvals
    5509                            .dwattr $C$DW$T$79, DW_AT_decl_line(0xab)
    5510                            .dwattr $C$DW$T$79, DW_AT_decl_column(0x1a)
    5511                    $C$DW$T$81      .dwtag  DW_TAG_typedef, DW_AT_name("size_t")
    5512                            .dwattr $C$DW$T$81, DW_AT_type(*$C$DW$T$11)
    5513                            .dwattr $C$DW$T$81, DW_AT_language(DW_LANG_C)
    5514                            .dwattr $C$DW$T$81, DW_AT_decl_file("C:/ti/ccsv6/tools/compiler/ti-cgt-arm_5.2.4/include/stdio
    5515                            .dwattr $C$DW$T$81, DW_AT_decl_line(0x58)
    5516                            .dwattr $C$DW$T$81, DW_AT_decl_column(0x19)
    5517                    $C$DW$T$39      .dwtag  DW_TAG_typedef, DW_AT_name("uint32_t")
    5518                            .dwattr $C$DW$T$39, DW_AT_type(*$C$DW$T$11)
    5519                            .dwattr $C$DW$T$39, DW_AT_language(DW_LANG_C)
    5520                            .dwattr $C$DW$T$39, DW_AT_decl_file("C:/ti/ccsv6/tools/compiler/ti-cgt-arm_5.2.4/include/stdin
    5521                            .dwattr $C$DW$T$39, DW_AT_decl_line(0x2f)
    5522                            .dwattr $C$DW$T$39, DW_AT_decl_column(0x1c)
    5523                    $C$DW$T$84      .dwtag  DW_TAG_volatile_type
    5524                            .dwattr $C$DW$T$84, DW_AT_type(*$C$DW$T$39)
    5525                    $C$DW$T$86      .dwtag  DW_TAG_typedef, DW_AT_name("uint_fast16_t")
    5526                            .dwattr $C$DW$T$86, DW_AT_type(*$C$DW$T$39)
    5527                            .dwattr $C$DW$T$86, DW_AT_language(DW_LANG_C)
    5528                            .dwattr $C$DW$T$86, DW_AT_decl_file("C:/ti/ccsv6/tools/compiler/ti-cgt-arm_5.2.4/include/stdin
    5529                            .dwattr $C$DW$T$86, DW_AT_decl_line(0x48)
    5530                            .dwattr $C$DW$T$86, DW_AT_decl_column(0x16)
    5531                    $C$DW$T$87      .dwtag  DW_TAG_typedef, DW_AT_name("uint_fast32_t")
    5532                            .dwattr $C$DW$T$87, DW_AT_type(*$C$DW$T$39)
    5533                            .dwattr $C$DW$T$87, DW_AT_language(DW_LANG_C)
    5534                            .dwattr $C$DW$T$87, DW_AT_decl_file("C:/ti/ccsv6/tools/compiler/ti-cgt-arm_5.2.4/include/stdin
    5535                            .dwattr $C$DW$T$87, DW_AT_decl_line(0x4b)
    5536                            .dwattr $C$DW$T$87, DW_AT_decl_column(0x16)
    5537                    $C$DW$T$88      .dwtag  DW_TAG_typedef, DW_AT_name("uint_fast8_t")
    5538                            .dwattr $C$DW$T$88, DW_AT_type(*$C$DW$T$39)
    5539                            .dwattr $C$DW$T$88, DW_AT_language(DW_LANG_C)
    5540                            .dwattr $C$DW$T$88, DW_AT_decl_file("C:/ti/ccsv6/tools/compiler/ti-cgt-arm_5.2.4/include/stdin
    5541                            .dwattr $C$DW$T$88, DW_AT_decl_line(0x46)
    5542                            .dwattr $C$DW$T$88, DW_AT_decl_column(0x16)
    5543                    $C$DW$T$89      .dwtag  DW_TAG_typedef, DW_AT_name("uint_least32_t")
    5544                            .dwattr $C$DW$T$89, DW_AT_type(*$C$DW$T$39)
    5545                            .dwattr $C$DW$T$89, DW_AT_language(DW_LANG_C)
    5546                            .dwattr $C$DW$T$89, DW_AT_decl_file("C:/ti/ccsv6/tools/compiler/ti-cgt-arm_5.2.4/include/stdin
    5547                            .dwattr $C$DW$T$89, DW_AT_decl_line(0x3d)
    5548                            .dwattr $C$DW$T$89, DW_AT_decl_column(0x16)
    5549                    $C$DW$T$90      .dwtag  DW_TAG_typedef, DW_AT_name("uintptr_t")
    5550                            .dwattr $C$DW$T$90, DW_AT_type(*$C$DW$T$11)
    5551                            .dwattr $C$DW$T$90, DW_AT_language(DW_LANG_C)
    5552                            .dwattr $C$DW$T$90, DW_AT_decl_file("C:/ti/ccsv6/tools/compiler/ti-cgt-arm_5.2.4/include/stdin
    5553                            .dwattr $C$DW$T$90, DW_AT_decl_line(0x53)
    5554                            .dwattr $C$DW$T$90, DW_AT_decl_column(0x1a)
    5555                    $C$DW$T$12      .dwtag  DW_TAG_base_type
    5556                            .dwattr $C$DW$T$12, DW_AT_encoding(DW_ATE_signed)
    5557                            .dwattr $C$DW$T$12, DW_AT_name("long")
    5558                            .dwattr $C$DW$T$12, DW_AT_byte_size(0x04)
    5559                    $C$DW$T$91      .dwtag  DW_TAG_typedef, DW_AT_name("_Int32t")
    5560                            .dwattr $C$DW$T$91, DW_AT_type(*$C$DW$T$12)
    5561                            .dwattr $C$DW$T$91, DW_AT_language(DW_LANG_C)
    5562                            .dwattr $C$DW$T$91, DW_AT_decl_file("C:/ti/ccsv6/tools/compiler/ti-cgt-arm_5.2.4/include/yvals
TI ARM Assembler PC v5.2.4 Thu Sep 17 23:20:49 2015

Tools Copyright (c) 1996-2015 Texas Instruments Incorporated
esp8266.asm                                                          PAGE  115

    5563                            .dwattr $C$DW$T$91, DW_AT_decl_line(0xa6)
    5564                            .dwattr $C$DW$T$91, DW_AT_decl_column(0x0e)
    5565                    $C$DW$T$92      .dwtag  DW_TAG_typedef, DW_AT_name("fpos_t")
    5566                            .dwattr $C$DW$T$92, DW_AT_type(*$C$DW$T$12)
    5567                            .dwattr $C$DW$T$92, DW_AT_language(DW_LANG_C)
    5568                            .dwattr $C$DW$T$92, DW_AT_decl_file("C:/ti/ccsv6/tools/compiler/ti-cgt-arm_5.2.4/include/stdio
    5569                            .dwattr $C$DW$T$92, DW_AT_decl_line(0x6e)
    5570                            .dwattr $C$DW$T$92, DW_AT_decl_column(0x0e)
    5571                    $C$DW$T$13      .dwtag  DW_TAG_base_type
    5572                            .dwattr $C$DW$T$13, DW_AT_encoding(DW_ATE_unsigned)
    5573                            .dwattr $C$DW$T$13, DW_AT_name("unsigned long")
    5574                            .dwattr $C$DW$T$13, DW_AT_byte_size(0x04)
    5575                    $C$DW$T$93      .dwtag  DW_TAG_typedef, DW_AT_name("_Uint32t")
    5576                            .dwattr $C$DW$T$93, DW_AT_type(*$C$DW$T$13)
    5577                            .dwattr $C$DW$T$93, DW_AT_language(DW_LANG_C)
    5578                            .dwattr $C$DW$T$93, DW_AT_decl_file("C:/ti/ccsv6/tools/compiler/ti-cgt-arm_5.2.4/include/yvals
    5579                            .dwattr $C$DW$T$93, DW_AT_decl_line(0xa7)
    5580                            .dwattr $C$DW$T$93, DW_AT_decl_column(0x17)
    5581                    $C$DW$T$14      .dwtag  DW_TAG_base_type
    5582                            .dwattr $C$DW$T$14, DW_AT_encoding(DW_ATE_signed)
    5583                            .dwattr $C$DW$T$14, DW_AT_name("long long")
    5584                            .dwattr $C$DW$T$14, DW_AT_byte_size(0x08)
    5585                    $C$DW$T$94      .dwtag  DW_TAG_typedef, DW_AT_name("_Longlong")
    5586                            .dwattr $C$DW$T$94, DW_AT_type(*$C$DW$T$14)
    5587                            .dwattr $C$DW$T$94, DW_AT_language(DW_LANG_C)
    5588                            .dwattr $C$DW$T$94, DW_AT_decl_file("C:/ti/ccsv6/tools/compiler/ti-cgt-arm_5.2.4/include/yvals
    5589                            .dwattr $C$DW$T$94, DW_AT_decl_line(0x1b5)
    5590                            .dwattr $C$DW$T$94, DW_AT_decl_column(0x13)
    5591                    $C$DW$T$95      .dwtag  DW_TAG_typedef, DW_AT_name("int64_t")
    5592                            .dwattr $C$DW$T$95, DW_AT_type(*$C$DW$T$14)
    5593                            .dwattr $C$DW$T$95, DW_AT_language(DW_LANG_C)
    5594                            .dwattr $C$DW$T$95, DW_AT_decl_file("C:/ti/ccsv6/tools/compiler/ti-cgt-arm_5.2.4/include/stdin
    5595                            .dwattr $C$DW$T$95, DW_AT_decl_line(0x32)
    5596                            .dwattr $C$DW$T$95, DW_AT_decl_column(0x21)
    5597                    $C$DW$T$96      .dwtag  DW_TAG_typedef, DW_AT_name("int_fast64_t")
    5598                            .dwattr $C$DW$T$96, DW_AT_type(*$C$DW$T$95)
    5599                            .dwattr $C$DW$T$96, DW_AT_language(DW_LANG_C)
    5600                            .dwattr $C$DW$T$96, DW_AT_decl_file("C:/ti/ccsv6/tools/compiler/ti-cgt-arm_5.2.4/include/stdin
    5601                            .dwattr $C$DW$T$96, DW_AT_decl_line(0x4e)
    5602                            .dwattr $C$DW$T$96, DW_AT_decl_column(0x17)
    5603                    $C$DW$T$97      .dwtag  DW_TAG_typedef, DW_AT_name("int_least64_t")
    5604                            .dwattr $C$DW$T$97, DW_AT_type(*$C$DW$T$95)
    5605                            .dwattr $C$DW$T$97, DW_AT_language(DW_LANG_C)
    5606                            .dwattr $C$DW$T$97, DW_AT_decl_file("C:/ti/ccsv6/tools/compiler/ti-cgt-arm_5.2.4/include/stdin
    5607                            .dwattr $C$DW$T$97, DW_AT_decl_line(0x40)
    5608                            .dwattr $C$DW$T$97, DW_AT_decl_column(0x17)
    5609                    $C$DW$T$98      .dwtag  DW_TAG_typedef, DW_AT_name("intmax_t")
    5610                            .dwattr $C$DW$T$98, DW_AT_type(*$C$DW$T$14)
    5611                            .dwattr $C$DW$T$98, DW_AT_language(DW_LANG_C)
    5612                            .dwattr $C$DW$T$98, DW_AT_decl_file("C:/ti/ccsv6/tools/compiler/ti-cgt-arm_5.2.4/include/stdin
    5613                            .dwattr $C$DW$T$98, DW_AT_decl_line(0x56)
    5614                            .dwattr $C$DW$T$98, DW_AT_decl_column(0x20)
    5615                    $C$DW$T$15      .dwtag  DW_TAG_base_type
    5616                            .dwattr $C$DW$T$15, DW_AT_encoding(DW_ATE_unsigned)
    5617                            .dwattr $C$DW$T$15, DW_AT_name("unsigned long long")
TI ARM Assembler PC v5.2.4 Thu Sep 17 23:20:49 2015

Tools Copyright (c) 1996-2015 Texas Instruments Incorporated
esp8266.asm                                                          PAGE  116

    5618                            .dwattr $C$DW$T$15, DW_AT_byte_size(0x08)
    5619                    $C$DW$T$99      .dwtag  DW_TAG_typedef, DW_AT_name("_ULonglong")
    5620                            .dwattr $C$DW$T$99, DW_AT_type(*$C$DW$T$15)
    5621                            .dwattr $C$DW$T$99, DW_AT_language(DW_LANG_C)
    5622                            .dwattr $C$DW$T$99, DW_AT_decl_file("C:/ti/ccsv6/tools/compiler/ti-cgt-arm_5.2.4/include/yvals
    5623                            .dwattr $C$DW$T$99, DW_AT_decl_line(0x1b6)
    5624                            .dwattr $C$DW$T$99, DW_AT_decl_column(0x14)
    5625                    $C$DW$T$100     .dwtag  DW_TAG_typedef, DW_AT_name("uint64_t")
    5626                            .dwattr $C$DW$T$100, DW_AT_type(*$C$DW$T$15)
    5627                            .dwattr $C$DW$T$100, DW_AT_language(DW_LANG_C)
    5628                            .dwattr $C$DW$T$100, DW_AT_decl_file("C:/ti/ccsv6/tools/compiler/ti-cgt-arm_5.2.4/include/stdi
    5629                            .dwattr $C$DW$T$100, DW_AT_decl_line(0x33)
    5630                            .dwattr $C$DW$T$100, DW_AT_decl_column(0x20)
    5631                    $C$DW$T$101     .dwtag  DW_TAG_typedef, DW_AT_name("uint_fast64_t")
    5632                            .dwattr $C$DW$T$101, DW_AT_type(*$C$DW$T$100)
    5633                            .dwattr $C$DW$T$101, DW_AT_language(DW_LANG_C)
    5634                            .dwattr $C$DW$T$101, DW_AT_decl_file("C:/ti/ccsv6/tools/compiler/ti-cgt-arm_5.2.4/include/stdi
    5635                            .dwattr $C$DW$T$101, DW_AT_decl_line(0x4f)
    5636                            .dwattr $C$DW$T$101, DW_AT_decl_column(0x16)
    5637                    $C$DW$T$102     .dwtag  DW_TAG_typedef, DW_AT_name("uint_least64_t")
    5638                            .dwattr $C$DW$T$102, DW_AT_type(*$C$DW$T$100)
    5639                            .dwattr $C$DW$T$102, DW_AT_language(DW_LANG_C)
    5640                            .dwattr $C$DW$T$102, DW_AT_decl_file("C:/ti/ccsv6/tools/compiler/ti-cgt-arm_5.2.4/include/stdi
    5641                            .dwattr $C$DW$T$102, DW_AT_decl_line(0x41)
    5642                            .dwattr $C$DW$T$102, DW_AT_decl_column(0x16)
    5643                    $C$DW$T$103     .dwtag  DW_TAG_typedef, DW_AT_name("uintmax_t")
    5644                            .dwattr $C$DW$T$103, DW_AT_type(*$C$DW$T$15)
    5645                            .dwattr $C$DW$T$103, DW_AT_language(DW_LANG_C)
    5646                            .dwattr $C$DW$T$103, DW_AT_decl_file("C:/ti/ccsv6/tools/compiler/ti-cgt-arm_5.2.4/include/stdi
    5647                            .dwattr $C$DW$T$103, DW_AT_decl_line(0x57)
    5648                            .dwattr $C$DW$T$103, DW_AT_decl_column(0x20)
    5649                    $C$DW$T$16      .dwtag  DW_TAG_base_type
    5650                            .dwattr $C$DW$T$16, DW_AT_encoding(DW_ATE_float)
    5651                            .dwattr $C$DW$T$16, DW_AT_name("float")
    5652                            .dwattr $C$DW$T$16, DW_AT_byte_size(0x04)
    5653                    $C$DW$T$17      .dwtag  DW_TAG_base_type
    5654                            .dwattr $C$DW$T$17, DW_AT_encoding(DW_ATE_float)
    5655                            .dwattr $C$DW$T$17, DW_AT_name("double")
    5656                            .dwattr $C$DW$T$17, DW_AT_byte_size(0x08)
    5657                    $C$DW$T$18      .dwtag  DW_TAG_base_type
    5658                            .dwattr $C$DW$T$18, DW_AT_encoding(DW_ATE_float)
    5659                            .dwattr $C$DW$T$18, DW_AT_name("long double")
    5660                            .dwattr $C$DW$T$18, DW_AT_byte_size(0x08)
    5661                    $C$DW$T$104     .dwtag  DW_TAG_typedef, DW_AT_name("_Sysch_t")
    5662                            .dwattr $C$DW$T$104, DW_AT_type(*$C$DW$T$6)
    5663                            .dwattr $C$DW$T$104, DW_AT_language(DW_LANG_C)
    5664                            .dwattr $C$DW$T$104, DW_AT_decl_file("C:/ti/ccsv6/tools/compiler/ti-cgt-arm_5.2.4/include/yval
    5665                            .dwattr $C$DW$T$104, DW_AT_decl_line(0x218)
    5666                            .dwattr $C$DW$T$104, DW_AT_decl_column(0x0e)
    5667                    $C$DW$T$35      .dwtag  DW_TAG_const_type
    5668                            .dwattr $C$DW$T$35, DW_AT_type(*$C$DW$T$6)
    5669                    $C$DW$T$36      .dwtag  DW_TAG_pointer_type
    5670                            .dwattr $C$DW$T$36, DW_AT_type(*$C$DW$T$35)
    5671                            .dwattr $C$DW$T$36, DW_AT_address_class(0x20)
    5672                    $C$DW$T$59      .dwtag  DW_TAG_pointer_type
TI ARM Assembler PC v5.2.4 Thu Sep 17 23:20:49 2015

Tools Copyright (c) 1996-2015 Texas Instruments Incorporated
esp8266.asm                                                          PAGE  117

    5673                            .dwattr $C$DW$T$59, DW_AT_type(*$C$DW$T$6)
    5674                            .dwattr $C$DW$T$59, DW_AT_address_class(0x20)
    5675                    $C$DW$T$109     .dwtag  DW_TAG_typedef, DW_AT_name("__builtin_va_list")
    5676                            .dwattr $C$DW$T$109, DW_AT_type(*$C$DW$T$59)
    5677                            .dwattr $C$DW$T$109, DW_AT_language(DW_LANG_C)
    5678                            .dwattr $C$DW$T$109, DW_AT_decl_file("../esp8266.c")
    5679                            .dwattr $C$DW$T$109, DW_AT_decl_line(0x293)
    5680                            .dwattr $C$DW$T$109, DW_AT_decl_column(0x01)
    5681                    
    5682                    $C$DW$T$110     .dwtag  DW_TAG_array_type
    5683                            .dwattr $C$DW$T$110, DW_AT_type(*$C$DW$T$6)
    5684                            .dwattr $C$DW$T$110, DW_AT_language(DW_LANG_C)
    5685                            .dwattr $C$DW$T$110, DW_AT_byte_size(0x400)
    5686                    $C$DW$238       .dwtag  DW_TAG_subrange_type
    5687                            .dwattr $C$DW$238, DW_AT_upper_bound(0x3ff)
    5688                            .dwendtag $C$DW$T$110
    5689                    
    5690                    
    5691                    $C$DW$T$112     .dwtag  DW_TAG_array_type
    5692                            .dwattr $C$DW$T$112, DW_AT_type(*$C$DW$T$6)
    5693                            .dwattr $C$DW$T$112, DW_AT_language(DW_LANG_C)
    5694                            .dwattr $C$DW$T$112, DW_AT_byte_size(0x20)
    5695                    $C$DW$239       .dwtag  DW_TAG_subrange_type
    5696                            .dwattr $C$DW$239, DW_AT_upper_bound(0x1f)
    5697                            .dwendtag $C$DW$T$112
    5698                    
    5699                    
    5700                    $C$DW$T$114     .dwtag  DW_TAG_array_type
    5701                            .dwattr $C$DW$T$114, DW_AT_type(*$C$DW$T$6)
    5702                            .dwattr $C$DW$T$114, DW_AT_language(DW_LANG_C)
    5703                            .dwattr $C$DW$T$114, DW_AT_byte_size(0x51)
    5704                    $C$DW$240       .dwtag  DW_TAG_subrange_type
    5705                            .dwattr $C$DW$240, DW_AT_upper_bound(0x50)
    5706                            .dwendtag $C$DW$T$114
    5707                    
    5708                    $C$DW$T$160     .dwtag  DW_TAG_base_type
    5709                            .dwattr $C$DW$T$160, DW_AT_encoding(DW_ATE_unsigned_char)
    5710                            .dwattr $C$DW$T$160, DW_AT_name("unsigned char")
    5711                            .dwattr $C$DW$T$160, DW_AT_byte_size(0x01)
    5712                    $C$DW$T$161     .dwtag  DW_TAG_volatile_type
    5713                            .dwattr $C$DW$T$161, DW_AT_type(*$C$DW$T$160)
    5714                    
    5715                    $C$DW$T$24      .dwtag  DW_TAG_structure_type
    5716                            .dwattr $C$DW$T$24, DW_AT_name("__va_list")
    5717                            .dwattr $C$DW$T$24, DW_AT_byte_size(0x04)
    5718                    $C$DW$241       .dwtag  DW_TAG_member
    5719                            .dwattr $C$DW$241, DW_AT_type(*$C$DW$T$3)
    5720                            .dwattr $C$DW$241, DW_AT_name("__ap")
    5721                            .dwattr $C$DW$241, DW_AT_TI_symbol_name("__ap")
    5722                            .dwattr $C$DW$241, DW_AT_data_member_location[DW_OP_plus_uconst 0x0]
    5723                            .dwattr $C$DW$241, DW_AT_accessibility(DW_ACCESS_public)
    5724                            .dwattr $C$DW$241, DW_AT_decl_file("C:/ti/ccsv6/tools/compiler/ti-cgt-arm_5.2.4/include/stdarg
    5725                            .dwattr $C$DW$241, DW_AT_decl_line(0x36)
    5726                            .dwattr $C$DW$241, DW_AT_decl_column(0x0c)
    5727                            .dwendtag $C$DW$T$24
TI ARM Assembler PC v5.2.4 Thu Sep 17 23:20:49 2015

Tools Copyright (c) 1996-2015 Texas Instruments Incorporated
esp8266.asm                                                          PAGE  118

    5728                    
    5729                            .dwattr $C$DW$T$24, DW_AT_decl_file("C:/ti/ccsv6/tools/compiler/ti-cgt-arm_5.2.4/include/stdar
    5730                            .dwattr $C$DW$T$24, DW_AT_decl_line(0x35)
    5731                            .dwattr $C$DW$T$24, DW_AT_decl_column(0x10)
    5732                    $C$DW$T$162     .dwtag  DW_TAG_typedef, DW_AT_name("va_list")
    5733                            .dwattr $C$DW$T$162, DW_AT_type(*$C$DW$T$24)
    5734                            .dwattr $C$DW$T$162, DW_AT_language(DW_LANG_C)
    5735                            .dwattr $C$DW$T$162, DW_AT_decl_file("C:/ti/ccsv6/tools/compiler/ti-cgt-arm_5.2.4/include/stda
    5736                            .dwattr $C$DW$T$162, DW_AT_decl_line(0x37)
    5737                            .dwattr $C$DW$T$162, DW_AT_decl_column(0x03)
    5738                    $C$DW$T$163     .dwtag  DW_TAG_typedef, DW_AT_name("_Va_list")
    5739                            .dwattr $C$DW$T$163, DW_AT_type(*$C$DW$T$162)
    5740                            .dwattr $C$DW$T$163, DW_AT_language(DW_LANG_C)
    5741                            .dwattr $C$DW$T$163, DW_AT_decl_file("C:/ti/ccsv6/tools/compiler/ti-cgt-arm_5.2.4/include/yval
    5742                            .dwattr $C$DW$T$163, DW_AT_decl_line(0x1f6)
    5743                            .dwattr $C$DW$T$163, DW_AT_decl_column(0x17)
    5744                            .dwattr $C$DW$CU, DW_AT_language(DW_LANG_C)
    5745                    
    5746                    ;***************************************************************
    5747                    ;* DWARF CIE ENTRIES                                           *
    5748                    ;***************************************************************
    5749                    
    5750                    $C$DW$CIE       .dwcie 14
    5751                            .dwcfi  cfa_register, 13
    5752                            .dwcfi  cfa_offset, 0
    5753                            .dwcfi  undefined, 0
    5754                            .dwcfi  undefined, 1
    5755                            .dwcfi  undefined, 2
    5756                            .dwcfi  undefined, 3
    5757                            .dwcfi  same_value, 4
    5758                            .dwcfi  same_value, 5
    5759                            .dwcfi  same_value, 6
    5760                            .dwcfi  same_value, 7
    5761                            .dwcfi  same_value, 8
    5762                            .dwcfi  same_value, 9
    5763                            .dwcfi  same_value, 10
    5764                            .dwcfi  same_value, 11
    5765                            .dwcfi  undefined, 12
    5766                            .dwcfi  undefined, 13
    5767                            .dwcfi  undefined, 14
    5768                            .dwcfi  undefined, 14
    5769                            .dwcfi  undefined, 7
    5770                            .dwcfi  undefined, 64
    5771                            .dwcfi  undefined, 65
    5772                            .dwcfi  undefined, 66
    5773                            .dwcfi  undefined, 67
    5774                            .dwcfi  undefined, 68
    5775                            .dwcfi  undefined, 69
    5776                            .dwcfi  undefined, 70
    5777                            .dwcfi  undefined, 71
    5778                            .dwcfi  undefined, 72
    5779                            .dwcfi  undefined, 73
    5780                            .dwcfi  undefined, 74
    5781                            .dwcfi  undefined, 75
    5782                            .dwcfi  undefined, 76
TI ARM Assembler PC v5.2.4 Thu Sep 17 23:20:49 2015

Tools Copyright (c) 1996-2015 Texas Instruments Incorporated
esp8266.asm                                                          PAGE  119

    5783                            .dwcfi  undefined, 77
    5784                            .dwcfi  undefined, 78
    5785                            .dwcfi  undefined, 79
    5786                            .dwcfi  same_value, 80
    5787                            .dwcfi  same_value, 81
    5788                            .dwcfi  same_value, 82
    5789                            .dwcfi  same_value, 83
    5790                            .dwcfi  same_value, 84
    5791                            .dwcfi  same_value, 85
    5792                            .dwcfi  same_value, 86
    5793                            .dwcfi  same_value, 87
    5794                            .dwcfi  same_value, 88
    5795                            .dwcfi  same_value, 89
    5796                            .dwcfi  same_value, 90
    5797                            .dwcfi  same_value, 91
    5798                            .dwcfi  same_value, 92
    5799                            .dwcfi  same_value, 93
    5800                            .dwcfi  same_value, 94
    5801                            .dwcfi  same_value, 95
    5802                            .dwendentry
    5803                            .dwendtag $C$DW$CU
    5804                    

--------------------------
Thumb2 Statistics
--------------------------
Number of Thumb2 ins converted to Thumb = 0 (0%)
Number of Thumb ins in input = 732 (84%)
Number of Thumb2 ins encoded as Thumb2 = 137 (100%)
Number of Thumb2 ins converted to 2 OPND Thumb = 12


No Assembly Errors, No Assembly Warnings
