TI ARM Assembler PC v5.2.4 Thu Sep 17 23:20:49 2015

Tools Copyright (c) 1996-2015 Texas Instruments Incorporated
esp8266.asm                                                          PAGE    1

       1                    ;******************************************************************************
       2                    ;* TI ARM C/C++ Codegen                                             PC v5.2.4 *
       3                    ;* Date/Time created: Thu Sep 17 23:20:49 2015                                *
       4                    ;******************************************************************************
       5                            .compiler_opts --abi=eabi --arm_vmrs_si_workaround=off --code_state=16 --diag_wrap=off --disab
       6 00000000                   .thumb
       7                    
       8                    $C$DW$CU        .dwtag  DW_TAG_compile_unit
       9                            .dwattr $C$DW$CU, DW_AT_name("../esp8266.c")
      10                            .dwattr $C$DW$CU, DW_AT_producer("TI TI ARM C/C++ Codegen PC v5.2.4 Copyright (c) 1996-2015 Te
      11                            .dwattr $C$DW$CU, DW_AT_TI_version(0x01)
      12                            .dwattr $C$DW$CU, DW_AT_comp_dir("C:\Dropbox\ArmBook\LaunchPad\ValvanoWareTM4C123\ESP8266_4C12
      13                    
      14                    $C$DW$1 .dwtag  DW_TAG_subprogram, DW_AT_name("__builtin_strlen")
      15                            .dwattr $C$DW$1, DW_AT_TI_symbol_name("__builtin_strlen")
      16                            .dwattr $C$DW$1, DW_AT_type(*$C$DW$T$11)
      17                            .dwattr $C$DW$1, DW_AT_declaration
      18                            .dwattr $C$DW$1, DW_AT_external
      19                    $C$DW$2 .dwtag  DW_TAG_formal_parameter
      20                            .dwattr $C$DW$2, DW_AT_type(*$C$DW$T$36)
      21                            .dwendtag $C$DW$1
      22                    
      23                    
      24                    $C$DW$3 .dwtag  DW_TAG_subprogram, DW_AT_name("printf")
      25                            .dwattr $C$DW$3, DW_AT_TI_symbol_name("printf")
      26                            .dwattr $C$DW$3, DW_AT_type(*$C$DW$T$10)
      27                            .dwattr $C$DW$3, DW_AT_declaration
      28                            .dwattr $C$DW$3, DW_AT_external
      29                            .dwattr $C$DW$3, DW_AT_decl_file("C:/ti/ccsv6/tools/compiler/ti-cgt-arm_5.2.4/include/stdio.h"
      30                            .dwattr $C$DW$3, DW_AT_decl_line(0xf5)
      31                            .dwattr $C$DW$3, DW_AT_decl_column(0x19)
      32                    $C$DW$4 .dwtag  DW_TAG_formal_parameter
      33                            .dwattr $C$DW$4, DW_AT_type(*$C$DW$T$36)
      34                    $C$DW$5 .dwtag  DW_TAG_unspecified_parameters
      35                            .dwendtag $C$DW$3
      36                    
      37                    
      38                    $C$DW$6 .dwtag  DW_TAG_subprogram, DW_AT_name("sprintf")
      39                            .dwattr $C$DW$6, DW_AT_TI_symbol_name("sprintf")
      40                            .dwattr $C$DW$6, DW_AT_type(*$C$DW$T$10)
      41                            .dwattr $C$DW$6, DW_AT_declaration
      42                            .dwattr $C$DW$6, DW_AT_external
      43                            .dwattr $C$DW$6, DW_AT_decl_file("C:/ti/ccsv6/tools/compiler/ti-cgt-arm_5.2.4/include/stdio.h"
      44                            .dwattr $C$DW$6, DW_AT_decl_line(0xf9)
      45                            .dwattr $C$DW$6, DW_AT_decl_column(0x19)
      46                    $C$DW$7 .dwtag  DW_TAG_formal_parameter
      47                            .dwattr $C$DW$7, DW_AT_type(*$C$DW$T$59)
      48                    $C$DW$8 .dwtag  DW_TAG_formal_parameter
      49                            .dwattr $C$DW$8, DW_AT_type(*$C$DW$T$36)
      50                    $C$DW$9 .dwtag  DW_TAG_unspecified_parameters
      51                            .dwendtag $C$DW$6
      52                    
      53                    
      54                    $C$DW$10        .dwtag  DW_TAG_subprogram, DW_AT_name("strlen")
      55                            .dwattr $C$DW$10, DW_AT_TI_symbol_name("strlen")
TI ARM Assembler PC v5.2.4 Thu Sep 17 23:20:49 2015

Tools Copyright (c) 1996-2015 Texas Instruments Incorporated
esp8266.asm                                                          PAGE    2

      56                            .dwattr $C$DW$10, DW_AT_type(*$C$DW$T$81)
      57                            .dwattr $C$DW$10, DW_AT_declaration
      58                            .dwattr $C$DW$10, DW_AT_external
      59                            .dwattr $C$DW$10, DW_AT_decl_file("C:/ti/ccsv6/tools/compiler/ti-cgt-arm_5.2.4/include/string.
      60                            .dwattr $C$DW$10, DW_AT_decl_line(0x4f)
      61                            .dwattr $C$DW$10, DW_AT_decl_column(0x14)
      62                    $C$DW$11        .dwtag  DW_TAG_formal_parameter
      63                            .dwattr $C$DW$11, DW_AT_type(*$C$DW$T$36)
      64                            .dwendtag $C$DW$10
      65                    
      66                    
      67                    $C$DW$12        .dwtag  DW_TAG_subprogram, DW_AT_name("strcpy")
      68                            .dwattr $C$DW$12, DW_AT_TI_symbol_name("strcpy")
      69                            .dwattr $C$DW$12, DW_AT_type(*$C$DW$T$59)
      70                            .dwattr $C$DW$12, DW_AT_declaration
      71                            .dwattr $C$DW$12, DW_AT_external
      72                            .dwattr $C$DW$12, DW_AT_decl_file("C:/ti/ccsv6/tools/compiler/ti-cgt-arm_5.2.4/include/string.
      73                            .dwattr $C$DW$12, DW_AT_decl_line(0x51)
      74                            .dwattr $C$DW$12, DW_AT_decl_column(0x12)
      75                    $C$DW$13        .dwtag  DW_TAG_formal_parameter
      76                            .dwattr $C$DW$13, DW_AT_type(*$C$DW$T$59)
      77                    $C$DW$14        .dwtag  DW_TAG_formal_parameter
      78                            .dwattr $C$DW$14, DW_AT_type(*$C$DW$T$36)
      79                            .dwendtag $C$DW$12
      80                    
      81                    
      82                    $C$DW$15        .dwtag  DW_TAG_subprogram, DW_AT_name("strstr")
      83                            .dwattr $C$DW$15, DW_AT_TI_symbol_name("strstr")
      84                            .dwattr $C$DW$15, DW_AT_type(*$C$DW$T$59)
      85                            .dwattr $C$DW$15, DW_AT_declaration
      86                            .dwattr $C$DW$15, DW_AT_external
      87                            .dwattr $C$DW$15, DW_AT_decl_file("C:/ti/ccsv6/tools/compiler/ti-cgt-arm_5.2.4/include/string.
      88                            .dwattr $C$DW$15, DW_AT_decl_line(0x60)
      89                            .dwattr $C$DW$15, DW_AT_decl_column(0x16)
      90                    $C$DW$16        .dwtag  DW_TAG_formal_parameter
      91                            .dwattr $C$DW$16, DW_AT_type(*$C$DW$T$36)
      92                    $C$DW$17        .dwtag  DW_TAG_formal_parameter
      93                            .dwattr $C$DW$17, DW_AT_type(*$C$DW$T$36)
      94                            .dwendtag $C$DW$15
      95                    
      96                    
      97                    $C$DW$18        .dwtag  DW_TAG_subprogram, DW_AT_name("UART_OutCharNonBlock")
      98                            .dwattr $C$DW$18, DW_AT_TI_symbol_name("UART_OutCharNonBlock")
      99                            .dwattr $C$DW$18, DW_AT_declaration
     100                            .dwattr $C$DW$18, DW_AT_external
     101                            .dwattr $C$DW$18, DW_AT_decl_file("..\UART.h")
     102                            .dwattr $C$DW$18, DW_AT_decl_line(0x3e)
     103                            .dwattr $C$DW$18, DW_AT_decl_column(0x06)
     104                    $C$DW$19        .dwtag  DW_TAG_formal_parameter
     105                            .dwattr $C$DW$19, DW_AT_type(*$C$DW$T$6)
     106                            .dwendtag $C$DW$18
     107                    
     108                    
     109                    $C$DW$20        .dwtag  DW_TAG_subprogram, DW_AT_name("EnableInterrupts")
     110                            .dwattr $C$DW$20, DW_AT_TI_symbol_name("EnableInterrupts")
TI ARM Assembler PC v5.2.4 Thu Sep 17 23:20:49 2015

Tools Copyright (c) 1996-2015 Texas Instruments Incorporated
esp8266.asm                                                          PAGE    3

     111                            .dwattr $C$DW$20, DW_AT_declaration
     112                            .dwattr $C$DW$20, DW_AT_external
     113                            .dwattr $C$DW$20, DW_AT_decl_file("../esp8266.c")
     114                            .dwattr $C$DW$20, DW_AT_decl_line(0x3f)
     115                            .dwattr $C$DW$20, DW_AT_decl_column(0x06)
     116                            .global ESP8266_RXBufferIndex
     117 00000000                   .data
     118                            .align  4
     119                            .elfsym ESP8266_RXBufferIndex,SYM_SIZE(4)
     120 00000000           ESP8266_RXBufferIndex:
     121 00000000 00000000          .bits   0,32                    ; ESP8266_RXBufferIndex @ 0
     122                    
     123                    $C$DW$21        .dwtag  DW_TAG_variable, DW_AT_name("ESP8266_RXBufferIndex")
     124                            .dwattr $C$DW$21, DW_AT_TI_symbol_name("ESP8266_RXBufferIndex")
     125                            .dwattr $C$DW$21, DW_AT_location[DW_OP_addr ESP8266_RXBufferIndex]
     126                            .dwattr $C$DW$21, DW_AT_type(*$C$DW$T$39)
     127                            .dwattr $C$DW$21, DW_AT_external
     128                            .dwattr $C$DW$21, DW_AT_decl_file("../esp8266.c")
     129                            .dwattr $C$DW$21, DW_AT_decl_line(0x57)
     130                            .dwattr $C$DW$21, DW_AT_decl_column(0x0a)
     131                            .global ESP8266_RXBuffer
     132 00000000           ESP8266_RXBuffer:       .usect  ".bss:ESP8266_RXBuffer",1024,1
     133                    $C$DW$22        .dwtag  DW_TAG_variable, DW_AT_name("ESP8266_RXBuffer")
     134                            .dwattr $C$DW$22, DW_AT_TI_symbol_name("ESP8266_RXBuffer")
     135                            .dwattr $C$DW$22, DW_AT_location[DW_OP_addr ESP8266_RXBuffer]
     136                            .dwattr $C$DW$22, DW_AT_type(*$C$DW$T$110)
     137                            .dwattr $C$DW$22, DW_AT_external
     138                            .dwattr $C$DW$22, DW_AT_decl_file("../esp8266.c")
     139                            .dwattr $C$DW$22, DW_AT_decl_line(0x58)
     140                            .dwattr $C$DW$22, DW_AT_decl_column(0x06)
     141                            .global ESP8266_TXBuffer
     142 00000000           ESP8266_TXBuffer:       .usect  ".bss:ESP8266_TXBuffer",1024,1
     143                    $C$DW$23        .dwtag  DW_TAG_variable, DW_AT_name("ESP8266_TXBuffer")
     144                            .dwattr $C$DW$23, DW_AT_TI_symbol_name("ESP8266_TXBuffer")
     145                            .dwattr $C$DW$23, DW_AT_location[DW_OP_addr ESP8266_TXBuffer]
     146                            .dwattr $C$DW$23, DW_AT_type(*$C$DW$T$110)
     147                            .dwattr $C$DW$23, DW_AT_external
     148                            .dwattr $C$DW$23, DW_AT_decl_file("../esp8266.c")
     149                            .dwattr $C$DW$23, DW_AT_decl_line(0x59)
     150                            .dwattr $C$DW$23, DW_AT_decl_column(0x06)
     151                            .global ESP8266_ProcessBuffer
     152 00000004                   .data
     153                            .align  1
     154                            .elfsym ESP8266_ProcessBuffer,SYM_SIZE(1)
     155 00000004           ESP8266_ProcessBuffer:
     156 00000004 00000000          .bits   0,8                     ; ESP8266_ProcessBuffer @ 0
     157                    
     158                    $C$DW$24        .dwtag  DW_TAG_variable, DW_AT_name("ESP8266_ProcessBuffer")
     159                            .dwattr $C$DW$24, DW_AT_TI_symbol_name("ESP8266_ProcessBuffer")
     160                            .dwattr $C$DW$24, DW_AT_location[DW_OP_addr ESP8266_ProcessBuffer]
     161                            .dwattr $C$DW$24, DW_AT_type(*$C$DW$T$161)
     162                            .dwattr $C$DW$24, DW_AT_external
     163                            .dwattr $C$DW$24, DW_AT_decl_file("../esp8266.c")
     164                            .dwattr $C$DW$24, DW_AT_decl_line(0x5b)
     165                            .dwattr $C$DW$24, DW_AT_decl_column(0x0f)
TI ARM Assembler PC v5.2.4 Thu Sep 17 23:20:49 2015

Tools Copyright (c) 1996-2015 Texas Instruments Incorporated
esp8266.asm                                                          PAGE    4

     166                            .global ESP8266_EchoResponse
     167 00000005                   .data
     168                            .align  1
     169                            .elfsym ESP8266_EchoResponse,SYM_SIZE(1)
     170 00000005           ESP8266_EchoResponse:
     171 00000004 00000000          .bits   0,8                     ; ESP8266_EchoResponse @ 0
     172                    
     173                    $C$DW$25        .dwtag  DW_TAG_variable, DW_AT_name("ESP8266_EchoResponse")
     174                            .dwattr $C$DW$25, DW_AT_TI_symbol_name("ESP8266_EchoResponse")
     175                            .dwattr $C$DW$25, DW_AT_location[DW_OP_addr ESP8266_EchoResponse]
     176                            .dwattr $C$DW$25, DW_AT_type(*$C$DW$T$161)
     177                            .dwattr $C$DW$25, DW_AT_external
     178                            .dwattr $C$DW$25, DW_AT_decl_file("../esp8266.c")
     179                            .dwattr $C$DW$25, DW_AT_decl_line(0x5c)
     180                            .dwattr $C$DW$25, DW_AT_decl_column(0x0f)
     181                            .global ESP8266_ResponseComplete
     182 00000006                   .data
     183                            .align  1
     184                            .elfsym ESP8266_ResponseComplete,SYM_SIZE(1)
     185 00000006           ESP8266_ResponseComplete:
     186 00000004 00000000          .bits   0,8                     ; ESP8266_ResponseComplete @ 0
     187                    
     188                    $C$DW$26        .dwtag  DW_TAG_variable, DW_AT_name("ESP8266_ResponseComplete")
     189                            .dwattr $C$DW$26, DW_AT_TI_symbol_name("ESP8266_ResponseComplete")
     190                            .dwattr $C$DW$26, DW_AT_location[DW_OP_addr ESP8266_ResponseComplete]
     191                            .dwattr $C$DW$26, DW_AT_type(*$C$DW$T$161)
     192                            .dwattr $C$DW$26, DW_AT_external
     193                            .dwattr $C$DW$26, DW_AT_decl_file("../esp8266.c")
     194                            .dwattr $C$DW$26, DW_AT_decl_line(0x5d)
     195                            .dwattr $C$DW$26, DW_AT_decl_column(0x0f)
     196                            .global ESP8266_APEnabled
     197 00000007                   .data
     198                            .align  1
     199                            .elfsym ESP8266_APEnabled,SYM_SIZE(1)
     200 00000007           ESP8266_APEnabled:
     201 00000004 00000000          .bits   0,8                     ; ESP8266_APEnabled @ 0
     202                    
     203                    $C$DW$27        .dwtag  DW_TAG_variable, DW_AT_name("ESP8266_APEnabled")
     204                            .dwattr $C$DW$27, DW_AT_TI_symbol_name("ESP8266_APEnabled")
     205                            .dwattr $C$DW$27, DW_AT_location[DW_OP_addr ESP8266_APEnabled]
     206                            .dwattr $C$DW$27, DW_AT_type(*$C$DW$T$161)
     207                            .dwattr $C$DW$27, DW_AT_external
     208                            .dwattr $C$DW$27, DW_AT_decl_file("../esp8266.c")
     209                            .dwattr $C$DW$27, DW_AT_decl_line(0x5e)
     210                            .dwattr $C$DW$27, DW_AT_decl_column(0x0f)
     211                            .global ESP8266_ClientEnabled
     212 00000008                   .data
     213                            .align  1
     214                            .elfsym ESP8266_ClientEnabled,SYM_SIZE(1)
     215 00000008           ESP8266_ClientEnabled:
     216 00000008 00000000          .bits   0,8                     ; ESP8266_ClientEnabled @ 0
     217                    
     218                    $C$DW$28        .dwtag  DW_TAG_variable, DW_AT_name("ESP8266_ClientEnabled")
     219                            .dwattr $C$DW$28, DW_AT_TI_symbol_name("ESP8266_ClientEnabled")
     220                            .dwattr $C$DW$28, DW_AT_location[DW_OP_addr ESP8266_ClientEnabled]
TI ARM Assembler PC v5.2.4 Thu Sep 17 23:20:49 2015

Tools Copyright (c) 1996-2015 Texas Instruments Incorporated
esp8266.asm                                                          PAGE    5

     221                            .dwattr $C$DW$28, DW_AT_type(*$C$DW$T$161)
     222                            .dwattr $C$DW$28, DW_AT_external
     223                            .dwattr $C$DW$28, DW_AT_decl_file("../esp8266.c")
     224                            .dwattr $C$DW$28, DW_AT_decl_line(0x5f)
     225                            .dwattr $C$DW$28, DW_AT_decl_column(0x0f)
     226                            .global ESP8266_ServerEnabled
     227 00000009                   .data
     228                            .align  1
     229                            .elfsym ESP8266_ServerEnabled,SYM_SIZE(1)
     230 00000009           ESP8266_ServerEnabled:
     231 00000008 00000000          .bits   0,8                     ; ESP8266_ServerEnabled @ 0
     232                    
     233                    $C$DW$29        .dwtag  DW_TAG_variable, DW_AT_name("ESP8266_ServerEnabled")
     234                            .dwattr $C$DW$29, DW_AT_TI_symbol_name("ESP8266_ServerEnabled")
     235                            .dwattr $C$DW$29, DW_AT_location[DW_OP_addr ESP8266_ServerEnabled]
     236                            .dwattr $C$DW$29, DW_AT_type(*$C$DW$T$161)
     237                            .dwattr $C$DW$29, DW_AT_external
     238                            .dwattr $C$DW$29, DW_AT_decl_file("../esp8266.c")
     239                            .dwattr $C$DW$29, DW_AT_decl_line(0x60)
     240                            .dwattr $C$DW$29, DW_AT_decl_column(0x0f)
     241                            .global ESP8266_InputProcessingEnabled
     242 0000000a                   .data
     243                            .align  1
     244                            .elfsym ESP8266_InputProcessingEnabled,SYM_SIZE(1)
     245 0000000a           ESP8266_InputProcessingEnabled:
     246 00000008 00000000          .bits   0,8                     ; ESP8266_InputProcessingEnabled @ 0
     247                    
     248                    $C$DW$30        .dwtag  DW_TAG_variable, DW_AT_name("ESP8266_InputProcessingEnabled")
     249                            .dwattr $C$DW$30, DW_AT_TI_symbol_name("ESP8266_InputProcessingEnabled")
     250                            .dwattr $C$DW$30, DW_AT_location[DW_OP_addr ESP8266_InputProcessingEnabled]
     251                            .dwattr $C$DW$30, DW_AT_type(*$C$DW$T$161)
     252                            .dwattr $C$DW$30, DW_AT_external
     253                            .dwattr $C$DW$30, DW_AT_decl_file("../esp8266.c")
     254                            .dwattr $C$DW$30, DW_AT_decl_line(0x61)
     255                            .dwattr $C$DW$30, DW_AT_decl_column(0x0f)
     256                            .global ESP8266_PageRequested
     257 0000000b                   .data
     258                            .align  1
     259                            .elfsym ESP8266_PageRequested,SYM_SIZE(1)
     260 0000000b           ESP8266_PageRequested:
     261 00000008 00000000          .bits   0,8                     ; ESP8266_PageRequested @ 0
     262                    
     263                    $C$DW$31        .dwtag  DW_TAG_variable, DW_AT_name("ESP8266_PageRequested")
     264                            .dwattr $C$DW$31, DW_AT_TI_symbol_name("ESP8266_PageRequested")
     265                            .dwattr $C$DW$31, DW_AT_location[DW_OP_addr ESP8266_PageRequested]
     266                            .dwattr $C$DW$31, DW_AT_type(*$C$DW$T$161)
     267                            .dwattr $C$DW$31, DW_AT_external
     268                            .dwattr $C$DW$31, DW_AT_decl_file("../esp8266.c")
     269                            .dwattr $C$DW$31, DW_AT_decl_line(0x62)
     270                            .dwattr $C$DW$31, DW_AT_decl_column(0x0f)
     271                            .global ESP8266_ServerPort
     272 0000000c                   .data
     273                            .align  2
     274                            .elfsym ESP8266_ServerPort,SYM_SIZE(2)
     275 0000000c           ESP8266_ServerPort:
TI ARM Assembler PC v5.2.4 Thu Sep 17 23:20:49 2015

Tools Copyright (c) 1996-2015 Texas Instruments Incorporated
esp8266.asm                                                          PAGE    6

     276 0000000c 00000050          .bits   80,16                   ; ESP8266_ServerPort @ 0
     277                    
     278                    $C$DW$32        .dwtag  DW_TAG_variable, DW_AT_name("ESP8266_ServerPort")
     279                            .dwattr $C$DW$32, DW_AT_TI_symbol_name("ESP8266_ServerPort")
     280                            .dwattr $C$DW$32, DW_AT_location[DW_OP_addr ESP8266_ServerPort]
     281                            .dwattr $C$DW$32, DW_AT_type(*$C$DW$T$42)
     282                            .dwattr $C$DW$32, DW_AT_external
     283                            .dwattr $C$DW$32, DW_AT_decl_file("../esp8266.c")
     284                            .dwattr $C$DW$32, DW_AT_decl_line(0x64)
     285                            .dwattr $C$DW$32, DW_AT_decl_column(0x0a)
     286                            .global ESP8266_ServerTimeout
     287 0000000e                   .data
     288                            .align  2
     289                            .elfsym ESP8266_ServerTimeout,SYM_SIZE(2)
     290 0000000e           ESP8266_ServerTimeout:
     291 0000000c 70800050          .bits   28800,16                        ; ESP8266_ServerTimeout @ 0
     292                    
     293                    $C$DW$33        .dwtag  DW_TAG_variable, DW_AT_name("ESP8266_ServerTimeout")
     294                            .dwattr $C$DW$33, DW_AT_TI_symbol_name("ESP8266_ServerTimeout")
     295                            .dwattr $C$DW$33, DW_AT_location[DW_OP_addr ESP8266_ServerTimeout]
     296                            .dwattr $C$DW$33, DW_AT_type(*$C$DW$T$42)
     297                            .dwattr $C$DW$33, DW_AT_external
     298                            .dwattr $C$DW$33, DW_AT_decl_file("../esp8266.c")
     299                            .dwattr $C$DW$33, DW_AT_decl_line(0x65)
     300                            .dwattr $C$DW$33, DW_AT_decl_column(0x0a)
     301                            .global SearchString
     302                            .common SearchString,32,1
     303                    $C$DW$34        .dwtag  DW_TAG_variable, DW_AT_name("SearchString")
     304                            .dwattr $C$DW$34, DW_AT_TI_symbol_name("SearchString")
     305                            .dwattr $C$DW$34, DW_AT_location[DW_OP_addr SearchString]
     306                            .dwattr $C$DW$34, DW_AT_type(*$C$DW$T$112)
     307                            .dwattr $C$DW$34, DW_AT_external
     308                            .dwattr $C$DW$34, DW_AT_decl_file("../esp8266.c")
     309                            .dwattr $C$DW$34, DW_AT_decl_line(0x68)
     310                            .dwattr $C$DW$34, DW_AT_decl_column(0x06)
     311                            .global SearchLooking
     312 00000010                   .data
     313                            .align  1
     314                            .elfsym SearchLooking,SYM_SIZE(1)
     315 00000010           SearchLooking:
     316 00000010 00000000          .bits   0,8                     ; SearchLooking @ 0
     317                    
     318                    $C$DW$35        .dwtag  DW_TAG_variable, DW_AT_name("SearchLooking")
     319                            .dwattr $C$DW$35, DW_AT_TI_symbol_name("SearchLooking")
     320                            .dwattr $C$DW$35, DW_AT_location[DW_OP_addr SearchLooking]
     321                            .dwattr $C$DW$35, DW_AT_type(*$C$DW$T$161)
     322                            .dwattr $C$DW$35, DW_AT_external
     323                            .dwattr $C$DW$35, DW_AT_decl_file("../esp8266.c")
     324                            .dwattr $C$DW$35, DW_AT_decl_line(0x69)
     325                            .dwattr $C$DW$35, DW_AT_decl_column(0x0f)
     326                            .global SearchFound
     327 00000011                   .data
     328                            .align  1
     329                            .elfsym SearchFound,SYM_SIZE(1)
     330 00000011           SearchFound:
TI ARM Assembler PC v5.2.4 Thu Sep 17 23:20:49 2015

Tools Copyright (c) 1996-2015 Texas Instruments Incorporated
esp8266.asm                                                          PAGE    7

     331 00000010 00000000          .bits   0,8                     ; SearchFound @ 0
     332                    
     333                    $C$DW$36        .dwtag  DW_TAG_variable, DW_AT_name("SearchFound")
     334                            .dwattr $C$DW$36, DW_AT_TI_symbol_name("SearchFound")
     335                            .dwattr $C$DW$36, DW_AT_location[DW_OP_addr SearchFound]
     336                            .dwattr $C$DW$36, DW_AT_type(*$C$DW$T$161)
     337                            .dwattr $C$DW$36, DW_AT_external
     338                            .dwattr $C$DW$36, DW_AT_decl_file("../esp8266.c")
     339                            .dwattr $C$DW$36, DW_AT_decl_line(0x6a)
     340                            .dwattr $C$DW$36, DW_AT_decl_column(0x0f)
     341                            .global Fetch
     342 00000000                   .sect   ".data:Fetch", RW
     343                            .clink
     344                            .align  1
     345                            .elfsym Fetch,SYM_SIZE(84)
     346 00000000           Fetch:
     347 00000000 00000047          .bits   71,8                    ; Fetch[0] @ 0
     348 00000000 00004547          .bits   69,8                    ; Fetch[1] @ 8
     349 00000000 00544547          .bits   84,8                    ; Fetch[2] @ 16
     350 00000000 20544547          .bits   32,8                    ; Fetch[3] @ 24
     351 00000004 0000002F          .bits   47,8                    ; Fetch[4] @ 32
     352 00000004 0000642F          .bits   100,8                   ; Fetch[5] @ 40
     353 00000004 0061642F          .bits   97,8                    ; Fetch[6] @ 48
     354 00000004 7461642F          .bits   116,8                   ; Fetch[7] @ 56
     355 00000008 00000061          .bits   97,8                    ; Fetch[8] @ 64
     356 00000008 00002F61          .bits   47,8                    ; Fetch[9] @ 72
     357 00000008 00322F61          .bits   50,8                    ; Fetch[10] @ 80
     358 00000008 2E322F61          .bits   46,8                    ; Fetch[11] @ 88
     359 0000000c 00000035          .bits   53,8                    ; Fetch[12] @ 96
     360 0000000c 00002F35          .bits   47,8                    ; Fetch[13] @ 104
     361 0000000c 00772F35          .bits   119,8                   ; Fetch[14] @ 112
     362 0000000c 65772F35          .bits   101,8                   ; Fetch[15] @ 120
     363 00000010 00000061          .bits   97,8                    ; Fetch[16] @ 128
     364 00000010 00007461          .bits   116,8                   ; Fetch[17] @ 136
     365 00000010 00687461          .bits   104,8                   ; Fetch[18] @ 144
     366 00000010 65687461          .bits   101,8                   ; Fetch[19] @ 152
     367 00000014 00000072          .bits   114,8                   ; Fetch[20] @ 160
     368 00000014 00003F72          .bits   63,8                    ; Fetch[21] @ 168
     369 00000014 00713F72          .bits   113,8                   ; Fetch[22] @ 176
     370 00000014 3D713F72          .bits   61,8                    ; Fetch[23] @ 184
     371 00000018 00000041          .bits   65,8                    ; Fetch[24] @ 192
     372 00000018 00007541          .bits   117,8                   ; Fetch[25] @ 200
     373 00000018 00737541          .bits   115,8                   ; Fetch[26] @ 208
     374 00000018 74737541          .bits   116,8                   ; Fetch[27] @ 216
     375 0000001c 00000069          .bits   105,8                   ; Fetch[28] @ 224
     376 0000001c 00006E69          .bits   110,8                   ; Fetch[29] @ 232
     377 0000001c 00256E69          .bits   37,8                    ; Fetch[30] @ 240
     378 0000001c 32256E69          .bits   50,8                    ; Fetch[31] @ 248
     379 00000020 00000030          .bits   48,8                    ; Fetch[32] @ 256
     380 00000020 00005430          .bits   84,8                    ; Fetch[33] @ 264
     381 00000020 00655430          .bits   101,8                   ; Fetch[34] @ 272
     382 00000020 78655430          .bits   120,8                   ; Fetch[35] @ 280
     383 00000024 00000061          .bits   97,8                    ; Fetch[36] @ 288
     384 00000024 00007361          .bits   115,8                   ; Fetch[37] @ 296
     385 00000024 00207361          .bits   32,8                    ; Fetch[38] @ 304
TI ARM Assembler PC v5.2.4 Thu Sep 17 23:20:49 2015

Tools Copyright (c) 1996-2015 Texas Instruments Incorporated
esp8266.asm                                                          PAGE    8

     386 00000024 48207361          .bits   72,8                    ; Fetch[39] @ 312
     387 00000028 00000054          .bits   84,8                    ; Fetch[40] @ 320
     388 00000028 00005454          .bits   84,8                    ; Fetch[41] @ 328
     389 00000028 00505454          .bits   80,8                    ; Fetch[42] @ 336
     390 00000028 2F505454          .bits   47,8                    ; Fetch[43] @ 344
     391 0000002c 00000031          .bits   49,8                    ; Fetch[44] @ 352
     392 0000002c 00002E31          .bits   46,8                    ; Fetch[45] @ 360
     393 0000002c 00312E31          .bits   49,8                    ; Fetch[46] @ 368
     394 0000002c 0D312E31          .bits   13,8                    ; Fetch[47] @ 376
     395 00000030 0000000A          .bits   10,8                    ; Fetch[48] @ 384
     396 00000030 0000480A          .bits   72,8                    ; Fetch[49] @ 392
     397 00000030 006F480A          .bits   111,8                   ; Fetch[50] @ 400
     398 00000030 736F480A          .bits   115,8                   ; Fetch[51] @ 408
     399 00000034 00000074          .bits   116,8                   ; Fetch[52] @ 416
     400 00000034 00003A74          .bits   58,8                    ; Fetch[53] @ 424
     401 00000034 00613A74          .bits   97,8                    ; Fetch[54] @ 432
     402 00000034 70613A74          .bits   112,8                   ; Fetch[55] @ 440
     403 00000038 00000069          .bits   105,8                   ; Fetch[56] @ 448
     404 00000038 00002E69          .bits   46,8                    ; Fetch[57] @ 456
     405 00000038 006F2E69          .bits   111,8                   ; Fetch[58] @ 464
     406 00000038 706F2E69          .bits   112,8                   ; Fetch[59] @ 472
     407 0000003c 00000065          .bits   101,8                   ; Fetch[60] @ 480
     408 0000003c 00006E65          .bits   110,8                   ; Fetch[61] @ 488
     409 0000003c 00776E65          .bits   119,8                   ; Fetch[62] @ 496
     410 0000003c 65776E65          .bits   101,8                   ; Fetch[63] @ 504
     411 00000040 00000061          .bits   97,8                    ; Fetch[64] @ 512
     412 00000040 00007461          .bits   116,8                   ; Fetch[65] @ 520
     413 00000040 00687461          .bits   104,8                   ; Fetch[66] @ 528
     414 00000040 65687461          .bits   101,8                   ; Fetch[67] @ 536
     415 00000044 00000072          .bits   114,8                   ; Fetch[68] @ 544
     416 00000044 00006D72          .bits   109,8                   ; Fetch[69] @ 552
     417 00000044 00616D72          .bits   97,8                    ; Fetch[70] @ 560
     418 00000044 70616D72          .bits   112,8                   ; Fetch[71] @ 568
     419 00000048 0000002E          .bits   46,8                    ; Fetch[72] @ 576
     420 00000048 00006F2E          .bits   111,8                   ; Fetch[73] @ 584
     421 00000048 00726F2E          .bits   114,8                   ; Fetch[74] @ 592
     422 00000048 67726F2E          .bits   103,8                   ; Fetch[75] @ 600
     423 0000004c 0000000D          .bits   13,8                    ; Fetch[76] @ 608
     424 0000004c 00000A0D          .bits   10,8                    ; Fetch[77] @ 616
     425 0000004c 000D0A0D          .bits   13,8                    ; Fetch[78] @ 624
     426 0000004c 0A0D0A0D          .bits   10,8                    ; Fetch[79] @ 632
     427 00000050 00000000          .bits   0,8                     ; Fetch[80] @ 640
     428                    
     429                    $C$DW$37        .dwtag  DW_TAG_variable, DW_AT_name("Fetch")
     430                            .dwattr $C$DW$37, DW_AT_TI_symbol_name("Fetch")
     431                            .dwattr $C$DW$37, DW_AT_location[DW_OP_addr Fetch]
     432                            .dwattr $C$DW$37, DW_AT_type(*$C$DW$T$114)
     433                            .dwattr $C$DW$37, DW_AT_external
     434                            .dwattr $C$DW$37, DW_AT_decl_file("../esp8266.c")
     435                            .dwattr $C$DW$37, DW_AT_decl_line(0x251)
     436                            .dwattr $C$DW$37, DW_AT_decl_column(0x06)
     437                    ;       C:\ti\ccsv6\tools\compiler\ti-cgt-arm_5.2.4\bin\armacpia.exe -@C:\\Users\\VALVAN~1\\AppData\\L
     438 00000000                   .sect   ".text"
     439                            .clink
     440                            .thumbfunc ESP8266InitUART
TI ARM Assembler PC v5.2.4 Thu Sep 17 23:20:49 2015

Tools Copyright (c) 1996-2015 Texas Instruments Incorporated
esp8266.asm                                                          PAGE    9

     441 00000000                   .thumb
     442                            .global ESP8266InitUART
     443                    
     444                    $C$DW$38        .dwtag  DW_TAG_subprogram, DW_AT_name("ESP8266InitUART")
     445                            .dwattr $C$DW$38, DW_AT_low_pc(ESP8266InitUART)
     446                            .dwattr $C$DW$38, DW_AT_high_pc(0x00)
     447                            .dwattr $C$DW$38, DW_AT_TI_symbol_name("ESP8266InitUART")
     448                            .dwattr $C$DW$38, DW_AT_external
     449                            .dwattr $C$DW$38, DW_AT_TI_begin_file("../esp8266.c")
     450                            .dwattr $C$DW$38, DW_AT_TI_begin_line(0x78)
     451                            .dwattr $C$DW$38, DW_AT_TI_begin_column(0x06)
     452                            .dwattr $C$DW$38, DW_AT_decl_file("../esp8266.c")
     453                            .dwattr $C$DW$38, DW_AT_decl_line(0x78)
     454                            .dwattr $C$DW$38, DW_AT_decl_column(0x06)
     455                            .dwattr $C$DW$38, DW_AT_TI_max_frame_size(0x08)
     456                            .dwpsn  file "../esp8266.c",line 120,column 27,is_stmt,address ESP8266InitUART,isa 1
     457                    
     458                            .dwfde $C$DW$CIE, ESP8266InitUART
     459                    ;----------------------------------------------------------------------
     460                    ; 120 | void ESP8266InitUART(void){                                            
     461                    ; 121 | volatile int delay;                                                    
     462                    ; 123 |   // Enable UART1                                                      
     463                    ;----------------------------------------------------------------------
     464                    
     465                    ;*****************************************************************************
     466                    ;* FUNCTION NAME: ESP8266InitUART                                            *
     467                    ;*                                                                           *
     468                    ;*   Regs Modified     : A1,A2,A3,SP,SR                                      *
     469                    ;*   Regs Used         : A1,A2,A3,SP,LR,SR                                   *
     470                    ;*   Local Frame Size  : 0 Args + 4 Auto + 0 Save = 4 byte                   *
     471                    ;*****************************************************************************
     472 00000000           ESP8266InitUART:
     473                    ;* --------------------------------------------------------------------------*
     474                            .dwcfi  cfa_offset, 0
     475 00000000 0D08F1AD          SUB       SP, SP, #8            ; [DPU_3_PIPE]  ; [KEEP 32-BIT INS]
     476                            .dwcfi  cfa_offset, 8
     477                    $C$DW$39        .dwtag  DW_TAG_variable, DW_AT_name("delay")
     478                            .dwattr $C$DW$39, DW_AT_TI_symbol_name("delay")
     479                            .dwattr $C$DW$39, DW_AT_type(*$C$DW$T$69)
     480                            .dwattr $C$DW$39, DW_AT_location[DW_OP_breg13 0]
     481                            .dwpsn  file "../esp8266.c",line 124,column 3,is_stmt,isa 1
     482                    ;----------------------------------------------------------------------
     483                    ; 124 | SYSCTL_RCGCUART_R |= 0x02;                                             
     484                    ;----------------------------------------------------------------------
     485 00000004 495B              LDR       A2, $C$CON1           ; [DPU_3_PIPE] |124|  ; [ORIG 16-BIT INS]
     486 00000006 6808              LDR       A1, [A2, #0]          ; [DPU_3_PIPE] |124|  ; [ORIG 16-BIT INS]
     487 00000008 0002F040          ORR       A1, A1, #2            ; [DPU_3_PIPE] |124|  ; [KEEP 32-BIT INS]
     488 0000000c 6008              STR       A1, [A2, #0]          ; [DPU_3_PIPE] |124|  ; [ORIG 16-BIT INS]
     489                            .dwpsn  file "../esp8266.c",line 125,column 3,is_stmt,isa 1
     490                    ;----------------------------------------------------------------------
     491                    ; 125 | delay++; delay++;                                                      
     492                    ;----------------------------------------------------------------------
     493 0000000e 9800              LDR       A1, [SP, #0]          ; [DPU_3_PIPE] |125|  ; [ORIG 16-BIT INS]
     494 00000010 1C40              ADDS      A1, A1, #1            ; [DPU_3_PIPE] |125|  ; [ORIG 16-BIT INS]
     495 00000012 9000              STR       A1, [SP, #0]          ; [DPU_3_PIPE] |125|  ; [ORIG 16-BIT INS]
TI ARM Assembler PC v5.2.4 Thu Sep 17 23:20:49 2015

Tools Copyright (c) 1996-2015 Texas Instruments Incorporated
esp8266.asm                                                          PAGE   10

     496                            .dwpsn  file "../esp8266.c",line 125,column 12,is_stmt,isa 1
     497                    ;----------------------------------------------------------------------
     498                    ; 127 | // Enable PORT B clock gating                                          
     499                    ;----------------------------------------------------------------------
     500 00000014 9800              LDR       A1, [SP, #0]          ; [DPU_3_PIPE] |125|  ; [ORIG 16-BIT INS]
     501 00000016 1C40              ADDS      A1, A1, #1            ; [DPU_3_PIPE] |125|  ; [ORIG 16-BIT INS]
     502 00000018 9000              STR       A1, [SP, #0]          ; [DPU_3_PIPE] |125|  ; [ORIG 16-BIT INS]
     503                            .dwpsn  file "../esp8266.c",line 128,column 3,is_stmt,isa 1
     504                    ;----------------------------------------------------------------------
     505                    ; 128 | SYSCTL_RCGCGPIO_R |= 0x02;                                             
     506                    ;----------------------------------------------------------------------
     507 0000001a 4957              LDR       A2, $C$CON2           ; [DPU_3_PIPE] |128|  ; [ORIG 16-BIT INS]
     508 0000001c 6808              LDR       A1, [A2, #0]          ; [DPU_3_PIPE] |128|  ; [ORIG 16-BIT INS]
     509 0000001e 0002F040          ORR       A1, A1, #2            ; [DPU_3_PIPE] |128|  ; [KEEP 32-BIT INS]
     510 00000022 6008              STR       A1, [A2, #0]          ; [DPU_3_PIPE] |128|  ; [ORIG 16-BIT INS]
     511                            .dwpsn  file "../esp8266.c",line 129,column 3,is_stmt,isa 1
     512                    ;----------------------------------------------------------------------
     513                    ; 129 | delay++; delay++;                                                      
     514                    ;----------------------------------------------------------------------
     515 00000024 9800              LDR       A1, [SP, #0]          ; [DPU_3_PIPE] |129|  ; [ORIG 16-BIT INS]
     516 00000026 1C40              ADDS      A1, A1, #1            ; [DPU_3_PIPE] |129|  ; [ORIG 16-BIT INS]
     517 00000028 9000              STR       A1, [SP, #0]          ; [DPU_3_PIPE] |129|  ; [ORIG 16-BIT INS]
     518                            .dwpsn  file "../esp8266.c",line 129,column 12,is_stmt,isa 1
     519                    ;----------------------------------------------------------------------
     520                    ; 130 | // Enable UART1                                                        
     521                    ;----------------------------------------------------------------------
     522 0000002a 9800              LDR       A1, [SP, #0]          ; [DPU_3_PIPE] |129|  ; [ORIG 16-BIT INS]
     523 0000002c 1C40              ADDS      A1, A1, #1            ; [DPU_3_PIPE] |129|  ; [ORIG 16-BIT INS]
     524 0000002e 9000              STR       A1, [SP, #0]          ; [DPU_3_PIPE] |129|  ; [ORIG 16-BIT INS]
     525                            .dwpsn  file "../esp8266.c",line 131,column 3,is_stmt,isa 1
     526                    ;----------------------------------------------------------------------
     527                    ; 131 | GPIO_PORTB_AFSEL_R |= 0x03;                                            
     528                    ;----------------------------------------------------------------------
     529 00000030 4952              LDR       A2, $C$CON3           ; [DPU_3_PIPE] |131|  ; [ORIG 16-BIT INS]
     530 00000032 6808              LDR       A1, [A2, #0]          ; [DPU_3_PIPE] |131|  ; [ORIG 16-BIT INS]
     531 00000034 0003F040          ORR       A1, A1, #3            ; [DPU_3_PIPE] |131|  ; [KEEP 32-BIT INS]
     532 00000038 6008              STR       A1, [A2, #0]          ; [DPU_3_PIPE] |131|  ; [ORIG 16-BIT INS]
     533                            .dwpsn  file "../esp8266.c",line 132,column 3,is_stmt,isa 1
     534                    ;----------------------------------------------------------------------
     535                    ; 132 | GPIO_PORTB_DIR_R |= 0x20; // PB5 output to reset                       
     536                    ;----------------------------------------------------------------------
     537 0000003a 4951              LDR       A2, $C$CON4           ; [DPU_3_PIPE] |132|  ; [ORIG 16-BIT INS]
     538 0000003c 6808              LDR       A1, [A2, #0]          ; [DPU_3_PIPE] |132|  ; [ORIG 16-BIT INS]
     539 0000003e 0020F040          ORR       A1, A1, #32           ; [DPU_3_PIPE] |132|  ; [KEEP 32-BIT INS]
     540 00000042 6008              STR       A1, [A2, #0]          ; [DPU_3_PIPE] |132|  ; [ORIG 16-BIT INS]
     541                            .dwpsn  file "../esp8266.c",line 133,column 3,is_stmt,isa 1
     542                    ;----------------------------------------------------------------------
     543                    ; 133 | GPIO_PORTB_PCTL_R =(GPIO_PORTB_PCTL_R&0xFF0FFF00)|0x00000011;          
     544                    ;----------------------------------------------------------------------
     545 00000044 494F              LDR       A2, $C$CON5           ; [DPU_3_PIPE] |133|  ; [ORIG 16-BIT INS]
     546 00000046 4850              LDR       A1, $C$CON6           ; [DPU_3_PIPE] |133|  ; [ORIG 16-BIT INS]
     547 00000048 680A              LDR       A3, [A2, #0]          ; [DPU_3_PIPE] |133|  ; [ORIG 16-BIT INS]
     548 0000004a 494E              LDR       A2, $C$CON5           ; [DPU_3_PIPE] |133|  ; [ORIG 16-BIT INS]
     549 0000004c 4010              ANDS      A1, A1, A3            ; [DPU_3_PIPE] |133|  ; [ORIG 16-BIT INS]
     550 0000004e 0011F040          ORR       A1, A1, #17           ; [DPU_3_PIPE] |133|  ; [KEEP 32-BIT INS]
TI ARM Assembler PC v5.2.4 Thu Sep 17 23:20:49 2015

Tools Copyright (c) 1996-2015 Texas Instruments Incorporated
esp8266.asm                                                          PAGE   11

     551 00000052 6008              STR       A1, [A2, #0]          ; [DPU_3_PIPE] |133|  ; [ORIG 16-BIT INS]
     552                            .dwpsn  file "../esp8266.c",line 134,column 3,is_stmt,isa 1
     553                    ;----------------------------------------------------------------------
     554                    ; 134 | GPIO_PORTB_DEN_R   |= 0x23; //23                                       
     555                    ;----------------------------------------------------------------------
     556 00000054 496D              LDR       A2, $C$CON7           ; [DPU_3_PIPE] |134|  ; [ORIG 16-BIT INS]
     557 00000056 6808              LDR       A1, [A2, #0]          ; [DPU_3_PIPE] |134|  ; [ORIG 16-BIT INS]
     558 00000058 0023F040          ORR       A1, A1, #35           ; [DPU_3_PIPE] |134|  ; [KEEP 32-BIT INS]
     559 0000005c 6008              STR       A1, [A2, #0]          ; [DPU_3_PIPE] |134|  ; [ORIG 16-BIT INS]
     560                            .dwpsn  file "../esp8266.c",line 135,column 3,is_stmt,isa 1
     561                    ;----------------------------------------------------------------------
     562                    ; 135 | GPIO_PORTB_DATA_R |= 0x20; // reset high                               
     563                    ; 136 |   // Configure UART1 for 115200bps operation                           
     564                    ;----------------------------------------------------------------------
     565 0000005e 496C              LDR       A2, $C$CON8           ; [DPU_3_PIPE] |135|  ; [ORIG 16-BIT INS]
     566 00000060 6808              LDR       A1, [A2, #0]          ; [DPU_3_PIPE] |135|  ; [ORIG 16-BIT INS]
     567 00000062 0020F040          ORR       A1, A1, #32           ; [DPU_3_PIPE] |135|  ; [KEEP 32-BIT INS]
     568 00000066 6008              STR       A1, [A2, #0]          ; [DPU_3_PIPE] |135|  ; [ORIG 16-BIT INS]
     569                            .dwpsn  file "../esp8266.c",line 137,column 3,is_stmt,isa 1
     570                    ;----------------------------------------------------------------------
     571                    ; 137 | UART1_CTL_R &= ~UART_CTL_UARTEN;                  // Clear UART1 enable
     572                    ;     |  bit during config                                                     
     573                    ; 138 | //  UART1_IBRD_R = 27;                                // Set integer po
     574                    ;     | rtion of BRD                                                           
     575                    ; 139 | //  UART1_FBRD_R =  8;                                // Set fraction p
     576                    ;     | ortion of BRD                                                          
     577                    ;----------------------------------------------------------------------
     578 00000068 496A              LDR       A2, $C$CON9           ; [DPU_3_PIPE] |137|  ; [ORIG 16-BIT INS]
     579 0000006a 6808              LDR       A1, [A2, #0]          ; [DPU_3_PIPE] |137|  ; [ORIG 16-BIT INS]
     580 0000006c 0001F020          BIC       A1, A1, #1            ; [DPU_3_PIPE] |137|  ; [KEEP 32-BIT INS]
     581 00000070 6008              STR       A1, [A2, #0]          ; [DPU_3_PIPE] |137|  ; [ORIG 16-BIT INS]
     582                            .dwpsn  file "../esp8266.c",line 140,column 3,is_stmt,isa 1
     583                    ;----------------------------------------------------------------------
     584                    ; 140 | UART1_IBRD_R = 43;                    // IBRD = int(80,000,000 / (16 *
     585                    ;     | 115,200)) = int(43.403)                                                
     586                    ;----------------------------------------------------------------------
     587 00000072 4969              LDR       A2, $C$CON10          ; [DPU_3_PIPE] |140|  ; [ORIG 16-BIT INS]
     588 00000074 202B              MOVS      A1, #43               ; [DPU_3_PIPE] |140|  ; [ORIG 16-BIT INS]
     589 00000076 6008              STR       A1, [A2, #0]          ; [DPU_3_PIPE] |140|  ; [ORIG 16-BIT INS]
     590                            .dwpsn  file "../esp8266.c",line 141,column 3,is_stmt,isa 1
     591                    ;----------------------------------------------------------------------
     592                    ; 141 | UART1_FBRD_R = 26;                    // FBRD = round(0.4028 * 64 ) = 2
     593                    ;     | 6                                                                      
     594                    ;----------------------------------------------------------------------
     595 00000078 4968              LDR       A2, $C$CON11          ; [DPU_3_PIPE] |141|  ; [ORIG 16-BIT INS]
     596 0000007a 201A              MOVS      A1, #26               ; [DPU_3_PIPE] |141|  ; [ORIG 16-BIT INS]
     597 0000007c 6008              STR       A1, [A2, #0]          ; [DPU_3_PIPE] |141|  ; [ORIG 16-BIT INS]
     598                            .dwpsn  file "../esp8266.c",line 142,column 3,is_stmt,isa 1
     599                    ;----------------------------------------------------------------------
     600                    ; 142 | UART1_LCRH_R = (UART_LCRH_WLEN_8|UART_LCRH_FEN);  // 8 bit word length,
     601                    ;     |  1 stop, no parity, FIFOs enabled                                      
     602                    ;----------------------------------------------------------------------
     603 0000007e 4968              LDR       A2, $C$CON12          ; [DPU_3_PIPE] |142|  ; [ORIG 16-BIT INS]
     604 00000080 2070              MOVS      A1, #112              ; [DPU_3_PIPE] |142|  ; [ORIG 16-BIT INS]
     605 00000082 6008              STR       A1, [A2, #0]          ; [DPU_3_PIPE] |142|  ; [ORIG 16-BIT INS]
TI ARM Assembler PC v5.2.4 Thu Sep 17 23:20:49 2015

Tools Copyright (c) 1996-2015 Texas Instruments Incorporated
esp8266.asm                                                          PAGE   12

     606                            .dwpsn  file "../esp8266.c",line 143,column 3,is_stmt,isa 1
     607                    ;----------------------------------------------------------------------
     608                    ; 143 | UART1_IFLS_R &= ~0x3F;                            // Clear TX and RX in
     609                    ;     | terrupt FIFO level fields                                              
     610                    ;----------------------------------------------------------------------
     611 00000084 4967              LDR       A2, $C$CON13          ; [DPU_3_PIPE] |143|  ; [ORIG 16-BIT INS]
     612 00000086 6808              LDR       A1, [A2, #0]          ; [DPU_3_PIPE] |143|  ; [ORIG 16-BIT INS]
     613 00000088 003FF020          BIC       A1, A1, #63           ; [DPU_3_PIPE] |143|  ; [KEEP 32-BIT INS]
     614 0000008c 6008              STR       A1, [A2, #0]          ; [DPU_3_PIPE] |143|  ; [ORIG 16-BIT INS]
     615                            .dwpsn  file "../esp8266.c",line 144,column 3,is_stmt,isa 1
     616                    ;----------------------------------------------------------------------
     617                    ; 144 | UART1_IFLS_R += UART_IFLS_RX1_8 ;                 // RX FIFO interrupt
     618                    ;     | threshold >= 1/8th full                                                
     619                    ;----------------------------------------------------------------------
     620 0000008e 4965              LDR       A2, $C$CON13          ; [DPU_3_PIPE] |144|  ; [ORIG 16-BIT INS]
     621 00000090 6808              LDR       A1, [A2, #0]          ; [DPU_3_PIPE] |144|  ; [ORIG 16-BIT INS]
     622 00000092 6008              STR       A1, [A2, #0]          ; [DPU_3_PIPE] |144|  ; [ORIG 16-BIT INS]
     623                            .dwpsn  file "../esp8266.c",line 145,column 3,is_stmt,isa 1
     624                    ;----------------------------------------------------------------------
     625                    ; 145 | UART1_IM_R  |= UART_IM_RXIM | UART_IM_RTIM;       // Enable interupt on
     626                    ;     |  RX and RX transmission end                                            
     627                    ;----------------------------------------------------------------------
     628 00000094 4964              LDR       A2, $C$CON14          ; [DPU_3_PIPE] |145|  ; [ORIG 16-BIT INS]
     629 00000096 6808              LDR       A1, [A2, #0]          ; [DPU_3_PIPE] |145|  ; [ORIG 16-BIT INS]
     630 00000098 0050F040          ORR       A1, A1, #80           ; [DPU_3_PIPE] |145|  ; [KEEP 32-BIT INS]
     631 0000009c 6008              STR       A1, [A2, #0]          ; [DPU_3_PIPE] |145|  ; [ORIG 16-BIT INS]
     632                            .dwpsn  file "../esp8266.c",line 146,column 3,is_stmt,isa 1
     633                    ;----------------------------------------------------------------------
     634                    ; 146 | UART1_CTL_R |= UART_CTL_UARTEN;                   // Set UART1 enable b
     635                    ;     | it                                                                     
     636                    ;----------------------------------------------------------------------
     637 0000009e 495D              LDR       A2, $C$CON9           ; [DPU_3_PIPE] |146|  ; [ORIG 16-BIT INS]
     638 000000a0 6808              LDR       A1, [A2, #0]          ; [DPU_3_PIPE] |146|  ; [ORIG 16-BIT INS]
     639 000000a2 0001F040          ORR       A1, A1, #1            ; [DPU_3_PIPE] |146|  ; [KEEP 32-BIT INS]
     640 000000a6 6008              STR       A1, [A2, #0]          ; [DPU_3_PIPE] |146|  ; [ORIG 16-BIT INS]
     641                            .dwpsn  file "../esp8266.c",line 147,column 1,is_stmt,isa 1
     642 000000a8 B002              ADD       SP, SP, #8            ; [DPU_3_PIPE]  ; [ORIG 16-BIT INS]
     643                            .dwcfi  cfa_offset, 0
     644                    $C$DW$40        .dwtag  DW_TAG_TI_branch
     645                            .dwattr $C$DW$40, DW_AT_low_pc(0x00)
     646                            .dwattr $C$DW$40, DW_AT_TI_return
     647 000000aa 4770              BX        LR                    ; [DPU_3_PIPE]  ; [ORIG 16-BIT INS]
     648                            ; BRANCH OCCURS                  ; [] 
     649                            .dwattr $C$DW$38, DW_AT_TI_end_file("../esp8266.c")
     650                            .dwattr $C$DW$38, DW_AT_TI_end_line(0x93)
     651                            .dwattr $C$DW$38, DW_AT_TI_end_column(0x01)
     652                            .dwendentry
     653                            .dwendtag $C$DW$38
     654                    
     655 000000ac                   .sect   ".text"
     656                            .clink
     657                            .thumbfunc ESP8266_Init
     658 000000ac                   .thumb
     659                            .global ESP8266_Init
     660                    
TI ARM Assembler PC v5.2.4 Thu Sep 17 23:20:49 2015

Tools Copyright (c) 1996-2015 Texas Instruments Incorporated
esp8266.asm                                                          PAGE   13

     661                    $C$DW$41        .dwtag  DW_TAG_subprogram, DW_AT_name("ESP8266_Init")
     662                            .dwattr $C$DW$41, DW_AT_low_pc(ESP8266_Init)
     663                            .dwattr $C$DW$41, DW_AT_high_pc(0x00)
     664                            .dwattr $C$DW$41, DW_AT_TI_symbol_name("ESP8266_Init")
     665                            .dwattr $C$DW$41, DW_AT_external
     666                            .dwattr $C$DW$41, DW_AT_TI_begin_file("../esp8266.c")
     667                            .dwattr $C$DW$41, DW_AT_TI_begin_line(0x9c)
     668                            .dwattr $C$DW$41, DW_AT_TI_begin_column(0x06)
     669                            .dwattr $C$DW$41, DW_AT_decl_file("../esp8266.c")
     670                            .dwattr $C$DW$41, DW_AT_decl_line(0x9c)
     671                            .dwattr $C$DW$41, DW_AT_decl_column(0x06)
     672                            .dwattr $C$DW$41, DW_AT_TI_max_frame_size(0x08)
     673                            .dwpsn  file "../esp8266.c",line 156,column 24,is_stmt,address ESP8266_Init,isa 1
     674                    
     675                            .dwfde $C$DW$CIE, ESP8266_Init
     676                    ;----------------------------------------------------------------------
     677                    ; 156 | void ESP8266_Init(void){                                               
     678                    ;----------------------------------------------------------------------
     679                    
     680                    ;*****************************************************************************
     681                    ;* FUNCTION NAME: ESP8266_Init                                               *
     682                    ;*                                                                           *
     683                    ;*   Regs Modified     : A1,A2,A3,A4,V9,SP,LR,SR,D0,D0_hi,D1,D1_hi,D2,D2_hi, *
     684                    ;*                           D3,D3_hi,D4,D4_hi,D5,D5_hi,D6,D6_hi,D7,D7_hi,   *
     685                    ;*                           FPEXC,FPSCR                                     *
     686                    ;*   Regs Used         : A1,A2,A3,A4,V9,SP,LR,SR,D0,D0_hi,D1,D1_hi,D2,D2_hi, *
     687                    ;*                           D3,D3_hi,D4,D4_hi,D5,D5_hi,D6,D6_hi,D7,D7_hi,   *
     688                    ;*                           FPEXC,FPSCR                                     *
     689                    ;*   Local Frame Size  : 0 Args + 0 Auto + 4 Save = 4 byte                   *
     690                    ;*****************************************************************************
     691 000000ac           ESP8266_Init:
     692                    ;* --------------------------------------------------------------------------*
     693                            .dwcfi  cfa_offset, 0
     694 000000ac B508              PUSH      {A4, LR}              ; [DPU_3_PIPE]  ; [ORIG 16-BIT INS]
     695                            .dwcfi  cfa_offset, 8
     696                            .dwcfi  save_reg_to_mem, 14, -4
     697                            .dwcfi  save_reg_to_mem, 3, -8
     698                            .dwpsn  file "../esp8266.c",line 157,column 3,is_stmt,isa 1
     699                    ;----------------------------------------------------------------------
     700                    ; 157 | ESP8266InitUART();                                                     
     701                    ;----------------------------------------------------------------------
     702                    $C$DW$42        .dwtag  DW_TAG_TI_branch
     703                            .dwattr $C$DW$42, DW_AT_low_pc(0x00)
     704                            .dwattr $C$DW$42, DW_AT_name("ESP8266InitUART")
     705                            .dwattr $C$DW$42, DW_AT_TI_call
     706 000000ae FFA7F7FF          BL        ESP8266InitUART       ; [DPU_3_PIPE] |157|  ; [KEEP 32-BIT INS]
     707                            ; CALL OCCURS {ESP8266InitUART }  ; [] |157| 
     708                            .dwpsn  file "../esp8266.c",line 158,column 3,is_stmt,isa 1
     709                    ;----------------------------------------------------------------------
     710                    ; 158 | ESP8266EnableRXInterrupt();                                            
     711                    ;----------------------------------------------------------------------
     712                    $C$DW$43        .dwtag  DW_TAG_TI_branch
     713                            .dwattr $C$DW$43, DW_AT_low_pc(0x00)
     714                            .dwattr $C$DW$43, DW_AT_name("ESP8266EnableRXInterrupt")
     715                            .dwattr $C$DW$43, DW_AT_TI_call
TI ARM Assembler PC v5.2.4 Thu Sep 17 23:20:49 2015

Tools Copyright (c) 1996-2015 Texas Instruments Incorporated
esp8266.asm                                                          PAGE   14

     716 000000b2 FBC6F000          BL        ESP8266EnableRXInterrupt ; [DPU_3_PIPE] |158|  ; [KEEP 32-BIT INS]
     717                            ; CALL OCCURS {ESP8266EnableRXInterrupt }  ; [] |158| 
     718                            .dwpsn  file "../esp8266.c",line 159,column 3,is_stmt,isa 1
     719                    ;----------------------------------------------------------------------
     720                    ; 159 | SearchLooking = false;                                                 
     721                    ;----------------------------------------------------------------------
     722 000000b6 4966              LDR       A2, $C$CON15          ; [DPU_3_PIPE] |159|  ; [ORIG 16-BIT INS]
     723 000000b8 2000              MOVS      A1, #0                ; [DPU_3_PIPE] |159|  ; [ORIG 16-BIT INS]
     724 000000ba 7008              STRB      A1, [A2, #0]          ; [DPU_3_PIPE] |159|  ; [ORIG 16-BIT INS]
     725                            .dwpsn  file "../esp8266.c",line 160,column 3,is_stmt,isa 1
     726                    ;----------------------------------------------------------------------
     727                    ; 160 | SearchFound = false;                                                   
     728                    ;----------------------------------------------------------------------
     729 000000bc 4965              LDR       A2, $C$CON16          ; [DPU_3_PIPE] |160|  ; [ORIG 16-BIT INS]
     730 000000be 2000              MOVS      A1, #0                ; [DPU_3_PIPE] |160|  ; [ORIG 16-BIT INS]
     731 000000c0 7008              STRB      A1, [A2, #0]          ; [DPU_3_PIPE] |160|  ; [ORIG 16-BIT INS]
     732                            .dwpsn  file "../esp8266.c",line 161,column 3,is_stmt,isa 1
     733                    ;----------------------------------------------------------------------
     734                    ; 161 | EnableInterrupts();                                                    
     735                    ; 162 | // step 1: reset module                                                
     736                    ;----------------------------------------------------------------------
     737                    $C$DW$44        .dwtag  DW_TAG_TI_branch
     738                            .dwattr $C$DW$44, DW_AT_low_pc(0x00)
     739                            .dwattr $C$DW$44, DW_AT_name("EnableInterrupts")
     740                            .dwattr $C$DW$44, DW_AT_TI_call
     741 000000c2 FFFEF7FF!         BL        EnableInterrupts      ; [DPU_3_PIPE] |161|  ; [KEEP 32-BIT INS]
     742                            ; CALL OCCURS {EnableInterrupts }  ; [] |161| 
     743                            .dwpsn  file "../esp8266.c",line 163,column 3,is_stmt,isa 1
     744                    ;----------------------------------------------------------------------
     745                    ; 163 | printf("ESP8266 Initialization:\n\r");                                 
     746                    ;----------------------------------------------------------------------
     747 000000c6 A07F              ADR       A1, $C$SL1            ; [DPU_3_PIPE] |163|  ; [ORIG 16-BIT INS]
     748                    $C$DW$45        .dwtag  DW_TAG_TI_branch
     749                            .dwattr $C$DW$45, DW_AT_low_pc(0x00)
     750                            .dwattr $C$DW$45, DW_AT_name("printf")
     751                            .dwattr $C$DW$45, DW_AT_TI_call
     752 000000c8 FFFEF7FF!         BL        printf                ; [DPU_3_PIPE] |163|  ; [KEEP 32-BIT INS]
     753                            ; CALL OCCURS {printf }          ; [] |163| 
     754                            .dwpsn  file "../esp8266.c",line 164,column 3,is_stmt,isa 1
     755                    ;----------------------------------------------------------------------
     756                    ; 164 | printf("Reset module... ");                                            
     757                    ;----------------------------------------------------------------------
     758 000000cc A084              ADR       A1, $C$SL2            ; [DPU_3_PIPE] |164|  ; [ORIG 16-BIT INS]
     759                    $C$DW$46        .dwtag  DW_TAG_TI_branch
     760                            .dwattr $C$DW$46, DW_AT_low_pc(0x00)
     761                            .dwattr $C$DW$46, DW_AT_name("printf")
     762                            .dwattr $C$DW$46, DW_AT_TI_call
     763 000000ce FFFEF7FF!         BL        printf                ; [DPU_3_PIPE] |164|  ; [KEEP 32-BIT INS]
     764                            ; CALL OCCURS {printf }          ; [] |164| 
     765                            .dwpsn  file "../esp8266.c",line 165,column 3,is_stmt,isa 1
     766                    ;----------------------------------------------------------------------
     767                    ; 165 | ESP8266_EchoResponse = true; // debugging                              
     768                    ;----------------------------------------------------------------------
     769 000000d2 4961              LDR       A2, $C$CON17          ; [DPU_3_PIPE] |165|  ; [ORIG 16-BIT INS]
     770 000000d4 2001              MOVS      A1, #1                ; [DPU_3_PIPE] |165|  ; [ORIG 16-BIT INS]
TI ARM Assembler PC v5.2.4 Thu Sep 17 23:20:49 2015

Tools Copyright (c) 1996-2015 Texas Instruments Incorporated
esp8266.asm                                                          PAGE   15

     771 000000d6 7008              STRB      A1, [A2, #0]          ; [DPU_3_PIPE] |165|  ; [ORIG 16-BIT INS]
     772                            .dwpsn  file "../esp8266.c",line 166,column 3,is_stmt,isa 1
     773                    ;----------------------------------------------------------------------
     774                    ; 166 | if(ESP8266_Reset()==0){                                                
     775                    ;----------------------------------------------------------------------
     776                    $C$DW$47        .dwtag  DW_TAG_TI_branch
     777                            .dwattr $C$DW$47, DW_AT_low_pc(0x00)
     778                            .dwattr $C$DW$47, DW_AT_name("ESP8266_Reset")
     779                            .dwattr $C$DW$47, DW_AT_TI_call
     780 000000d8 F9D0F000          BL        ESP8266_Reset         ; [DPU_3_PIPE] |166|  ; [KEEP 32-BIT INS]
     781                            ; CALL OCCURS {ESP8266_Reset }   ; [] |166| 
     782 000000dc B918              CBNZ      A1, ||$C$L2||         ; []  ; [ORIG 16-BIT INS]
     783                            ; BRANCHCC OCCURS {||$C$L2||}    ; [] |166| 
     784                    ;* --------------------------------------------------------------------------*
     785                            .dwpsn  file "../esp8266.c",line 167,column 5,is_stmt,isa 1
     786                    ;----------------------------------------------------------------------
     787                    ; 167 | printf("Reset failure, could not reset\n\r");                          
     788                    ;----------------------------------------------------------------------
     789 000000de A085              ADR       A1, $C$SL3            ; [DPU_3_PIPE] |167|  ; [ORIG 16-BIT INS]
     790                    $C$DW$48        .dwtag  DW_TAG_TI_branch
     791                            .dwattr $C$DW$48, DW_AT_low_pc(0x00)
     792                            .dwattr $C$DW$48, DW_AT_name("printf")
     793                            .dwattr $C$DW$48, DW_AT_TI_call
     794 000000e0 FFFEF7FF!         BL        printf                ; [DPU_3_PIPE] |167|  ; [KEEP 32-BIT INS]
     795                            ; CALL OCCURS {printf }          ; [] |167| 
     796                            .dwpsn  file "../esp8266.c",line 168,column 11,is_stmt,isa 1
     797                    ;----------------------------------------------------------------------
     798                    ; 168 | while(1){};                                                            
     799                    ;----------------------------------------------------------------------
     800                    ;* --------------------------------------------------------------------------*
     801                    ;*   BEGIN LOOP ||$C$L1||
     802                    ;*
     803                    ;*   Loop source line                : 168
     804                    ;*   Loop closing brace source line  : 168
     805                    ;*   Known Minimum Trip Count        : 1
     806                    ;*   Known Maximum Trip Count        : 4294967295
     807                    ;*   Known Max Trip Count Factor     : 1
     808                    ;* --------------------------------------------------------------------------*
     809 000000e4           ||$C$L1||:    
     810 000000e4 E7FE              B         ||$C$L1||             ; [DPU_3_PIPE] |168|  ; [ORIG 16-BIT INS]
     811                            ; BRANCH OCCURS {||$C$L1||}      ; [] |168| 
     812                    ;* --------------------------------------------------------------------------*
     813 000000e6           ||$C$L2||:    
     814                            .dwpsn  file "../esp8266.c",line 171,column 3,is_stmt,isa 1
     815                    ;----------------------------------------------------------------------
     816                    ; 171 | if(ESP8266_SetWifiMode(ESP8266_WIFI_MODE_AP_AND_CLIENT)==0){           
     817                    ;----------------------------------------------------------------------
     818 000000e6 2003              MOVS      A1, #3                ; [DPU_3_PIPE] |171|  ; [ORIG 16-BIT INS]
     819                    $C$DW$49        .dwtag  DW_TAG_TI_branch
     820                            .dwattr $C$DW$49, DW_AT_low_pc(0x00)
     821                            .dwattr $C$DW$49, DW_AT_name("ESP8266_SetWifiMode")
     822                            .dwattr $C$DW$49, DW_AT_TI_call
     823 000000e8 F9FAF000          BL        ESP8266_SetWifiMode   ; [DPU_3_PIPE] |171|  ; [KEEP 32-BIT INS]
     824                            ; CALL OCCURS {ESP8266_SetWifiMode }  ; [] |171| 
     825 000000ec B918              CBNZ      A1, ||$C$L4||         ; []  ; [ORIG 16-BIT INS]
TI ARM Assembler PC v5.2.4 Thu Sep 17 23:20:49 2015

Tools Copyright (c) 1996-2015 Texas Instruments Incorporated
esp8266.asm                                                          PAGE   16

     826                            ; BRANCHCC OCCURS {||$C$L4||}    ; [] |171| 
     827                    ;* --------------------------------------------------------------------------*
     828                            .dwpsn  file "../esp8266.c",line 172,column 5,is_stmt,isa 1
     829                    ;----------------------------------------------------------------------
     830                    ; 172 | printf("SetWifiMode, could not set mode\n\r");                         
     831                    ;----------------------------------------------------------------------
     832 000000ee A08A              ADR       A1, $C$SL4            ; [DPU_3_PIPE] |172|  ; [ORIG 16-BIT INS]
     833                    $C$DW$50        .dwtag  DW_TAG_TI_branch
     834                            .dwattr $C$DW$50, DW_AT_low_pc(0x00)
     835                            .dwattr $C$DW$50, DW_AT_name("printf")
     836                            .dwattr $C$DW$50, DW_AT_TI_call
     837 000000f0 FFFEF7FF!         BL        printf                ; [DPU_3_PIPE] |172|  ; [KEEP 32-BIT INS]
     838                            ; CALL OCCURS {printf }          ; [] |172| 
     839                            .dwpsn  file "../esp8266.c",line 173,column 11,is_stmt,isa 1
     840                    ;----------------------------------------------------------------------
     841                    ; 173 | while(1){};                                                            
     842                    ; 177 | //  if(ESP8266_ConfigureAccessPoint(SSID_NAME,PASSKEY,1,SEC_TYPE)==0){ 
     843                    ; 178 | //    printf("ConfigureAccessPoint error, could not configure AP\n\r");
     844                    ; 179 | //    while(1){};                                                      
     845                    ; 180 | //  }                                                                  
     846                    ;----------------------------------------------------------------------
     847                    ;* --------------------------------------------------------------------------*
     848                    ;*   BEGIN LOOP ||$C$L3||
     849                    ;*
     850                    ;*   Loop source line                : 173
     851                    ;*   Loop closing brace source line  : 173
     852                    ;*   Known Minimum Trip Count        : 1
     853                    ;*   Known Maximum Trip Count        : 4294967295
     854                    ;*   Known Max Trip Count Factor     : 1
     855                    ;* --------------------------------------------------------------------------*
     856 000000f4           ||$C$L3||:    
     857 000000f4 E7FE              B         ||$C$L3||             ; [DPU_3_PIPE] |173|  ; [ORIG 16-BIT INS]
     858                            ; BRANCH OCCURS {||$C$L3||}      ; [] |173| 
     859                    ;* --------------------------------------------------------------------------*
     860 000000f6           ||$C$L4||:    
     861                            .dwpsn  file "../esp8266.c",line 182,column 3,is_stmt,isa 1
     862                    ;----------------------------------------------------------------------
     863                    ; 182 | if(ESP8266_JoinAccessPoint(SSID_NAME,PASSKEY)==0){                     
     864                    ;----------------------------------------------------------------------
     865 000000f6 A091              ADR       A1, $C$SL5            ; [DPU_3_PIPE] |182|  ; [ORIG 16-BIT INS]
     866 000000f8 A196              ADR       A2, $C$SL6            ; [DPU_3_PIPE] |182|  ; [ORIG 16-BIT INS]
     867                    $C$DW$51        .dwtag  DW_TAG_TI_branch
     868                            .dwattr $C$DW$51, DW_AT_low_pc(0x00)
     869                            .dwattr $C$DW$51, DW_AT_name("ESP8266_JoinAccessPoint")
     870                            .dwattr $C$DW$51, DW_AT_TI_call
     871 000000fa FA9EF000          BL        ESP8266_JoinAccessPoint ; [DPU_3_PIPE] |182|  ; [KEEP 32-BIT INS]
     872                            ; CALL OCCURS {ESP8266_JoinAccessPoint }  ; [] |182| 
     873 000000fe B918              CBNZ      A1, ||$C$L6||         ; []  ; [ORIG 16-BIT INS]
     874                            ; BRANCHCC OCCURS {||$C$L6||}    ; [] |182| 
     875                    ;* --------------------------------------------------------------------------*
     876                            .dwpsn  file "../esp8266.c",line 183,column 5,is_stmt,isa 1
     877                    ;----------------------------------------------------------------------
     878                    ; 183 | printf("JoinAccessPoint error, could not join AP\n\r");                
     879                    ;----------------------------------------------------------------------
     880 00000100 A098              ADR       A1, $C$SL7            ; [DPU_3_PIPE] |183|  ; [ORIG 16-BIT INS]
TI ARM Assembler PC v5.2.4 Thu Sep 17 23:20:49 2015

Tools Copyright (c) 1996-2015 Texas Instruments Incorporated
esp8266.asm                                                          PAGE   17

     881                    $C$DW$52        .dwtag  DW_TAG_TI_branch
     882                            .dwattr $C$DW$52, DW_AT_low_pc(0x00)
     883                            .dwattr $C$DW$52, DW_AT_name("printf")
     884                            .dwattr $C$DW$52, DW_AT_TI_call
     885 00000102 FFFEF7FF!         BL        printf                ; [DPU_3_PIPE] |183|  ; [KEEP 32-BIT INS]
     886                            ; CALL OCCURS {printf }          ; [] |183| 
     887                            .dwpsn  file "../esp8266.c",line 184,column 11,is_stmt,isa 1
     888                    ;----------------------------------------------------------------------
     889                    ; 184 | while(1){};                                                            
     890                    ;----------------------------------------------------------------------
     891                    ;* --------------------------------------------------------------------------*
     892                    ;*   BEGIN LOOP ||$C$L5||
     893                    ;*
     894                    ;*   Loop source line                : 184
     895                    ;*   Loop closing brace source line  : 184
     896                    ;*   Known Minimum Trip Count        : 1
     897                    ;*   Known Maximum Trip Count        : 4294967295
     898                    ;*   Known Max Trip Count Factor     : 1
     899                    ;* --------------------------------------------------------------------------*
     900 00000106           ||$C$L5||:    
     901 00000106 E7FE              B         ||$C$L5||             ; [DPU_3_PIPE] |184|  ; [ORIG 16-BIT INS]
     902                            ; BRANCH OCCURS {||$C$L5||}      ; [] |184| 
     903                    ;* --------------------------------------------------------------------------*
     904 00000108           ||$C$L6||:    
     905                            .dwpsn  file "../esp8266.c",line 188,column 3,is_stmt,isa 1
     906                    ;----------------------------------------------------------------------
     907                    ; 188 | if(ESP8266_GetIPAddress()==0){ // data streamed to UART0, OK           
     908                    ;----------------------------------------------------------------------
     909                    $C$DW$53        .dwtag  DW_TAG_TI_branch
     910                            .dwattr $C$DW$53, DW_AT_low_pc(0x00)
     911                            .dwattr $C$DW$53, DW_AT_name("ESP8266_GetIPAddress")
     912                            .dwattr $C$DW$53, DW_AT_TI_call
     913 00000108 FBCEF000          BL        ESP8266_GetIPAddress  ; [DPU_3_PIPE] |188|  ; [KEEP 32-BIT INS]
     914                            ; CALL OCCURS {ESP8266_GetIPAddress }  ; [] |188| 
     915 0000010c B918              CBNZ      A1, ||$C$L8||         ; []  ; [ORIG 16-BIT INS]
     916                            ; BRANCHCC OCCURS {||$C$L8||}    ; [] |188| 
     917                    ;* --------------------------------------------------------------------------*
     918                            .dwpsn  file "../esp8266.c",line 189,column 5,is_stmt,isa 1
     919                    ;----------------------------------------------------------------------
     920                    ; 189 | printf("GetIPAddress error, could not get IP address\n\r");            
     921                    ;----------------------------------------------------------------------
     922 0000010e A0A0              ADR       A1, $C$SL8            ; [DPU_3_PIPE] |189|  ; [ORIG 16-BIT INS]
     923                    $C$DW$54        .dwtag  DW_TAG_TI_branch
     924                            .dwattr $C$DW$54, DW_AT_low_pc(0x00)
     925                            .dwattr $C$DW$54, DW_AT_name("printf")
     926                            .dwattr $C$DW$54, DW_AT_TI_call
     927 00000110 FFFEF7FF!         BL        printf                ; [DPU_3_PIPE] |189|  ; [KEEP 32-BIT INS]
     928                            ; CALL OCCURS {printf }          ; [] |189| 
     929                            .dwpsn  file "../esp8266.c",line 190,column 11,is_stmt,isa 1
     930                    ;----------------------------------------------------------------------
     931                    ; 190 | while(1){};                                                            
     932                    ;----------------------------------------------------------------------
     933                    ;* --------------------------------------------------------------------------*
     934                    ;*   BEGIN LOOP ||$C$L7||
     935                    ;*
TI ARM Assembler PC v5.2.4 Thu Sep 17 23:20:49 2015

Tools Copyright (c) 1996-2015 Texas Instruments Incorporated
esp8266.asm                                                          PAGE   18

     936                    ;*   Loop source line                : 190
     937                    ;*   Loop closing brace source line  : 190
     938                    ;*   Known Minimum Trip Count        : 1
     939                    ;*   Known Maximum Trip Count        : 4294967295
     940                    ;*   Known Max Trip Count Factor     : 1
     941                    ;* --------------------------------------------------------------------------*
     942 00000114           ||$C$L7||:    
     943 00000114 E7FE              B         ||$C$L7||             ; [DPU_3_PIPE] |190|  ; [ORIG 16-BIT INS]
     944                            ; BRANCH OCCURS {||$C$L7||}      ; [] |190| 
     945                    ;* --------------------------------------------------------------------------*
     946 00000116           ||$C$L8||:    
     947                            .dwpsn  file "../esp8266.c",line 193,column 3,is_stmt,isa 1
     948                    ;----------------------------------------------------------------------
     949                    ; 193 | if(ESP8266_SetConnectionMux(0)==0){ // single OK                       
     950                    ;----------------------------------------------------------------------
     951 00000116 2000              MOVS      A1, #0                ; [DPU_3_PIPE] |193|  ; [ORIG 16-BIT INS]
     952                    $C$DW$55        .dwtag  DW_TAG_TI_branch
     953                            .dwattr $C$DW$55, DW_AT_low_pc(0x00)
     954                            .dwattr $C$DW$55, DW_AT_name("ESP8266_SetConnectionMux")
     955                            .dwattr $C$DW$55, DW_AT_TI_call
     956 00000118 FA16F000          BL        ESP8266_SetConnectionMux ; [DPU_3_PIPE] |193|  ; [KEEP 32-BIT INS]
     957                            ; CALL OCCURS {ESP8266_SetConnectionMux }  ; [] |193| 
     958 0000011c B918              CBNZ      A1, ||$C$L10||        ; []  ; [ORIG 16-BIT INS]
     959                            ; BRANCHCC OCCURS {||$C$L10||}   ; [] |193| 
     960                    ;* --------------------------------------------------------------------------*
     961                            .dwpsn  file "../esp8266.c",line 194,column 5,is_stmt,isa 1
     962                    ;----------------------------------------------------------------------
     963                    ; 194 | printf("SetConnectionMux error, could not set connection mux\n\r");    
     964                    ;----------------------------------------------------------------------
     965 0000011e A0A8              ADR       A1, $C$SL9            ; [DPU_3_PIPE] |194|  ; [ORIG 16-BIT INS]
     966                    $C$DW$56        .dwtag  DW_TAG_TI_branch
     967                            .dwattr $C$DW$56, DW_AT_low_pc(0x00)
     968                            .dwattr $C$DW$56, DW_AT_name("printf")
     969                            .dwattr $C$DW$56, DW_AT_TI_call
     970 00000120 FFFEF7FF!         BL        printf                ; [DPU_3_PIPE] |194|  ; [KEEP 32-BIT INS]
     971                            ; CALL OCCURS {printf }          ; [] |194| 
     972                            .dwpsn  file "../esp8266.c",line 195,column 11,is_stmt,isa 1
     973                    ;----------------------------------------------------------------------
     974                    ; 195 | while(1){};                                                            
     975                    ;----------------------------------------------------------------------
     976                    ;* --------------------------------------------------------------------------*
     977                    ;*   BEGIN LOOP ||$C$L9||
     978                    ;*
     979                    ;*   Loop source line                : 195
     980                    ;*   Loop closing brace source line  : 195
     981                    ;*   Known Minimum Trip Count        : 1
     982                    ;*   Known Maximum Trip Count        : 4294967295
     983                    ;*   Known Max Trip Count Factor     : 1
     984                    ;* --------------------------------------------------------------------------*
     985 00000124           ||$C$L9||:    
     986 00000124 E7FE              B         ||$C$L9||             ; [DPU_3_PIPE] |195|  ; [ORIG 16-BIT INS]
     987                            ; BRANCH OCCURS {||$C$L9||}      ; [] |195| 
     988                    ;* --------------------------------------------------------------------------*
     989 00000126           ||$C$L10||:    
     990                            .dwpsn  file "../esp8266.c",line 198,column 3,is_stmt,isa 1
TI ARM Assembler PC v5.2.4 Thu Sep 17 23:20:49 2015

Tools Copyright (c) 1996-2015 Texas Instruments Incorporated
esp8266.asm                                                          PAGE   19

     991                    ;----------------------------------------------------------------------
     992                    ; 198 | if(ESP8266_ListAccessPoints()==0){ // data streamed to UART0, OK       
     993                    ;----------------------------------------------------------------------
     994                    $C$DW$57        .dwtag  DW_TAG_TI_branch
     995                            .dwattr $C$DW$57, DW_AT_low_pc(0x00)
     996                            .dwattr $C$DW$57, DW_AT_name("ESP8266_ListAccessPoints")
     997                            .dwattr $C$DW$57, DW_AT_TI_call
     998 00000126 FAB5F000          BL        ESP8266_ListAccessPoints ; [DPU_3_PIPE] |198|  ; [KEEP 32-BIT INS]
     999                            ; CALL OCCURS {ESP8266_ListAccessPoints }  ; [] |198| 
    1000 0000012a B918              CBNZ      A1, ||$C$L12||        ; []  ; [ORIG 16-BIT INS]
    1001                            ; BRANCHCC OCCURS {||$C$L12||}   ; [] |198| 
    1002                    ;* --------------------------------------------------------------------------*
    1003                            .dwpsn  file "../esp8266.c",line 199,column 5,is_stmt,isa 1
    1004                    ;----------------------------------------------------------------------
    1005                    ; 199 | printf("ListAccessPoints, could not list access points\n\r");          
    1006                    ;----------------------------------------------------------------------
    1007 0000012c A0B2              ADR       A1, $C$SL10           ; [DPU_3_PIPE] |199|  ; [ORIG 16-BIT INS]
    1008                    $C$DW$58        .dwtag  DW_TAG_TI_branch
    1009                            .dwattr $C$DW$58, DW_AT_low_pc(0x00)
    1010                            .dwattr $C$DW$58, DW_AT_name("printf")
    1011                            .dwattr $C$DW$58, DW_AT_TI_call
    1012 0000012e FFFEF7FF!         BL        printf                ; [DPU_3_PIPE] |199|  ; [KEEP 32-BIT INS]
    1013                            ; CALL OCCURS {printf }          ; [] |199| 
    1014                            .dwpsn  file "../esp8266.c",line 200,column 11,is_stmt,isa 1
    1015                    ;----------------------------------------------------------------------
    1016                    ; 200 | while(1){};                                                            
    1017                    ;----------------------------------------------------------------------
    1018                    ;* --------------------------------------------------------------------------*
    1019                    ;*   BEGIN LOOP ||$C$L11||
    1020                    ;*
    1021                    ;*   Loop source line                : 200
    1022                    ;*   Loop closing brace source line  : 200
    1023                    ;*   Known Minimum Trip Count        : 1
    1024                    ;*   Known Maximum Trip Count        : 4294967295
    1025                    ;*   Known Max Trip Count Factor     : 1
    1026                    ;* --------------------------------------------------------------------------*
    1027 00000132           ||$C$L11||:    
    1028 00000132 E7FE              B         ||$C$L11||            ; [DPU_3_PIPE] |200|  ; [ORIG 16-BIT INS]
    1029                            ; BRANCH OCCURS {||$C$L11||}     ; [] |200| 
    1030                    ;* --------------------------------------------------------------------------*
    1031 00000134           ||$C$L12||:    
    1032                            .dwpsn  file "../esp8266.c",line 202,column 3,is_stmt,isa 1
    1033                    ;----------------------------------------------------------------------
    1034                    ; 202 | if(ESP8266_SetDataTransmissionMode(0)==0){ // data streamed to UART0, O
    1035                    ;     | K                                                                      
    1036                    ;----------------------------------------------------------------------
    1037 00000134 2000              MOVS      A1, #0                ; [DPU_3_PIPE] |202|  ; [ORIG 16-BIT INS]
    1038                    $C$DW$59        .dwtag  DW_TAG_TI_branch
    1039                            .dwattr $C$DW$59, DW_AT_low_pc(0x00)
    1040                            .dwattr $C$DW$59, DW_AT_name("ESP8266_SetDataTransmissionMode")
    1041                            .dwattr $C$DW$59, DW_AT_TI_call
    1042 00000136 FC63F000          BL        ESP8266_SetDataTransmissionMode ; [DPU_3_PIPE] |202|  ; [KEEP 32-BIT INS]
    1043                            ; CALL OCCURS {ESP8266_SetDataTransmissionMode }  ; [] |202| 
    1044 0000013a B918              CBNZ      A1, ||$C$L14||        ; []  ; [ORIG 16-BIT INS]
    1045                            ; BRANCHCC OCCURS {||$C$L14||}   ; [] |202| 
TI ARM Assembler PC v5.2.4 Thu Sep 17 23:20:49 2015

Tools Copyright (c) 1996-2015 Texas Instruments Incorporated
esp8266.asm                                                          PAGE   20

    1046                    ;* --------------------------------------------------------------------------*
    1047                            .dwpsn  file "../esp8266.c",line 203,column 5,is_stmt,isa 1
    1048                    ;----------------------------------------------------------------------
    1049                    ; 203 | printf("SetDataTransmissionMode, could not make connection\n\r");      
    1050                    ;----------------------------------------------------------------------
    1051 0000013c A0BB              ADR       A1, $C$SL11           ; [DPU_3_PIPE] |203|  ; [ORIG 16-BIT INS]
    1052                    $C$DW$60        .dwtag  DW_TAG_TI_branch
    1053                            .dwattr $C$DW$60, DW_AT_low_pc(0x00)
    1054                            .dwattr $C$DW$60, DW_AT_name("printf")
    1055                            .dwattr $C$DW$60, DW_AT_TI_call
    1056 0000013e FFFEF7FF!         BL        printf                ; [DPU_3_PIPE] |203|  ; [KEEP 32-BIT INS]
    1057                            ; CALL OCCURS {printf }          ; [] |203| 
    1058                            .dwpsn  file "../esp8266.c",line 204,column 11,is_stmt,isa 1
    1059                    ;----------------------------------------------------------------------
    1060                    ; 204 | while(1){};                                                            
    1061                    ;----------------------------------------------------------------------
    1062                    ;* --------------------------------------------------------------------------*
    1063                    ;*   BEGIN LOOP ||$C$L13||
    1064                    ;*
    1065                    ;*   Loop source line                : 204
    1066                    ;*   Loop closing brace source line  : 204
    1067                    ;*   Known Minimum Trip Count        : 1
    1068                    ;*   Known Maximum Trip Count        : 4294967295
    1069                    ;*   Known Max Trip Count Factor     : 1
    1070                    ;* --------------------------------------------------------------------------*
    1071 00000142           ||$C$L13||:    
    1072 00000142 E7FE              B         ||$C$L13||            ; [DPU_3_PIPE] |204|  ; [ORIG 16-BIT INS]
    1073                            ; BRANCH OCCURS {||$C$L13||}     ; [] |204| 
    1074                    ;* --------------------------------------------------------------------------*
    1075 00000144           ||$C$L14||:    
    1076                            .dwpsn  file "../esp8266.c",line 206,column 3,is_stmt,isa 1
    1077                    ;----------------------------------------------------------------------
    1078                    ; 206 | ESP8266_InputProcessingEnabled = false; // not a server                
    1079                    ;----------------------------------------------------------------------
    1080 00000144 49C7              LDR       A2, $C$CON18          ; [DPU_3_PIPE] |206|  ; [ORIG 16-BIT INS]
    1081 00000146 2000              MOVS      A1, #0                ; [DPU_3_PIPE] |206|  ; [ORIG 16-BIT INS]
    1082 00000148 7008              STRB      A1, [A2, #0]          ; [DPU_3_PIPE] |206|  ; [ORIG 16-BIT INS]
    1083                            .dwpsn  file "../esp8266.c",line 208,column 1,is_stmt,isa 1
    1084                    $C$DW$61        .dwtag  DW_TAG_TI_branch
    1085                            .dwattr $C$DW$61, DW_AT_low_pc(0x00)
    1086                            .dwattr $C$DW$61, DW_AT_TI_return
    1087 0000014a BD08              POP       {A4, PC}              ; [DPU_3_PIPE]  ; [ORIG 16-BIT INS]
    1088                            .dwcfi  cfa_offset, 0
    1089                            ; BRANCH OCCURS                  ; [] 
    1090                            .dwattr $C$DW$41, DW_AT_TI_end_file("../esp8266.c")
    1091                            .dwattr $C$DW$41, DW_AT_TI_end_line(0xd0)
    1092                            .dwattr $C$DW$41, DW_AT_TI_end_column(0x01)
    1093                            .dwendentry
    1094                            .dwendtag $C$DW$41
    1095                    
    1096 0000014c                   .sect   ".text"
    1097                            .clink
    1098                            .thumbfunc UART1_Handler
    1099 0000014c                   .thumb
    1100                            .global UART1_Handler
TI ARM Assembler PC v5.2.4 Thu Sep 17 23:20:49 2015

Tools Copyright (c) 1996-2015 Texas Instruments Incorporated
esp8266.asm                                                          PAGE   21

    1101                    
    1102                    $C$DW$62        .dwtag  DW_TAG_subprogram, DW_AT_name("UART1_Handler")
    1103                            .dwattr $C$DW$62, DW_AT_low_pc(UART1_Handler)
    1104                            .dwattr $C$DW$62, DW_AT_high_pc(0x00)
    1105                            .dwattr $C$DW$62, DW_AT_TI_symbol_name("UART1_Handler")
    1106                            .dwattr $C$DW$62, DW_AT_external
    1107                            .dwattr $C$DW$62, DW_AT_TI_begin_file("../esp8266.c")
    1108                            .dwattr $C$DW$62, DW_AT_TI_begin_line(0xd9)
    1109                            .dwattr $C$DW$62, DW_AT_TI_begin_column(0x06)
    1110                            .dwattr $C$DW$62, DW_AT_decl_file("../esp8266.c")
    1111                            .dwattr $C$DW$62, DW_AT_decl_line(0xd9)
    1112                            .dwattr $C$DW$62, DW_AT_decl_column(0x06)
    1113                            .dwattr $C$DW$62, DW_AT_TI_max_frame_size(0x08)
    1114                            .dwpsn  file "../esp8266.c",line 217,column 25,is_stmt,address UART1_Handler,isa 1
    1115                    
    1116                            .dwfde $C$DW$CIE, UART1_Handler
    1117                    ;----------------------------------------------------------------------
    1118                    ; 217 | void UART1_Handler(void){                                              
    1119                    ;----------------------------------------------------------------------
    1120                    
    1121                    ;*****************************************************************************
    1122                    ;* FUNCTION NAME: UART1_Handler                                              *
    1123                    ;*                                                                           *
    1124                    ;*   Regs Modified     : A1,A2,A3,A4,V9,SP,LR,SR,D0,D0_hi,D1,D1_hi,D2,D2_hi, *
    1125                    ;*                           D3,D3_hi,D4,D4_hi,D5,D5_hi,D6,D6_hi,D7,D7_hi,   *
    1126                    ;*                           FPEXC,FPSCR                                     *
    1127                    ;*   Regs Used         : A1,A2,A3,A4,V9,SP,LR,SR,D0,D0_hi,D1,D1_hi,D2,D2_hi, *
    1128                    ;*                           D3,D3_hi,D4,D4_hi,D5,D5_hi,D6,D6_hi,D7,D7_hi,   *
    1129                    ;*                           FPEXC,FPSCR                                     *
    1130                    ;*   Local Frame Size  : 0 Args + 0 Auto + 4 Save = 4 byte                   *
    1131                    ;*****************************************************************************
    1132 0000014c           UART1_Handler:
    1133                    ;* --------------------------------------------------------------------------*
    1134                            .dwcfi  cfa_offset, 0
    1135 0000014c B508              PUSH      {A4, LR}              ; [DPU_3_PIPE]  ; [ORIG 16-BIT INS]
    1136                            .dwcfi  cfa_offset, 8
    1137                            .dwcfi  save_reg_to_mem, 14, -4
    1138                            .dwcfi  save_reg_to_mem, 3, -8
    1139                            .dwpsn  file "../esp8266.c",line 218,column 3,is_stmt,isa 1
    1140                    ;----------------------------------------------------------------------
    1141                    ; 218 | if(UART1_RIS_R & UART_RIS_RXRIS){   // rx fifo >= 1/8 full             
    1142                    ;----------------------------------------------------------------------
    1143 0000014e 48C6              LDR       A1, $C$CON19          ; [DPU_3_PIPE] |218|  ; [ORIG 16-BIT INS]
    1144 00000150 6800              LDR       A1, [A1, #0]          ; [DPU_3_PIPE] |218|  ; [ORIG 16-BIT INS]
    1145 00000152 0940              LSRS      A1, A1, #5            ; [DPU_3_PIPE] |218|  ; [ORIG 16-BIT INS]
    1146 00000154 D304              BCC       ||$C$L15||            ; [DPU_3_PIPE] |218|  ; [ORIG 16-BIT INS]
    1147                            ; BRANCHCC OCCURS {||$C$L15||}   ; [] |218| 
    1148                    ;* --------------------------------------------------------------------------*
    1149                            .dwpsn  file "../esp8266.c",line 219,column 5,is_stmt,isa 1
    1150                    ;----------------------------------------------------------------------
    1151                    ; 219 | UART1_ICR_R = UART_ICR_RXIC;      // acknowledge interrupt             
    1152                    ;----------------------------------------------------------------------
    1153 00000156 49C5              LDR       A2, $C$CON20          ; [DPU_3_PIPE] |219|  ; [ORIG 16-BIT INS]
    1154 00000158 2010              MOVS      A1, #16               ; [DPU_3_PIPE] |219|  ; [ORIG 16-BIT INS]
    1155 0000015a 6008              STR       A1, [A2, #0]          ; [DPU_3_PIPE] |219|  ; [ORIG 16-BIT INS]
TI ARM Assembler PC v5.2.4 Thu Sep 17 23:20:49 2015

Tools Copyright (c) 1996-2015 Texas Instruments Incorporated
esp8266.asm                                                          PAGE   22

    1156                            .dwpsn  file "../esp8266.c",line 220,column 5,is_stmt,isa 1
    1157                    ;----------------------------------------------------------------------
    1158                    ; 220 | ESP8266FIFOtoBuffer();                                                 
    1159                    ;----------------------------------------------------------------------
    1160                    $C$DW$63        .dwtag  DW_TAG_TI_branch
    1161                            .dwattr $C$DW$63, DW_AT_low_pc(0x00)
    1162                            .dwattr $C$DW$63, DW_AT_name("ESP8266FIFOtoBuffer")
    1163                            .dwattr $C$DW$63, DW_AT_TI_call
    1164 0000015c F816F000          BL        ESP8266FIFOtoBuffer   ; [DPU_3_PIPE] |220|  ; [KEEP 32-BIT INS]
    1165                            ; CALL OCCURS {ESP8266FIFOtoBuffer }  ; [] |220| 
    1166                    ;* --------------------------------------------------------------------------*
    1167 00000160           ||$C$L15||:    
    1168                            .dwpsn  file "../esp8266.c",line 222,column 3,is_stmt,isa 1
    1169                    ;----------------------------------------------------------------------
    1170                    ; 222 | if(UART1_RIS_R & UART_RIS_RTRIS){   // receiver timed out              
    1171                    ;----------------------------------------------------------------------
    1172 00000160 48C1              LDR       A1, $C$CON19          ; [DPU_3_PIPE] |222|  ; [ORIG 16-BIT INS]
    1173 00000162 6800              LDR       A1, [A1, #0]          ; [DPU_3_PIPE] |222|  ; [ORIG 16-BIT INS]
    1174 00000164 09C0              LSRS      A1, A1, #7            ; [DPU_3_PIPE] |222|  ; [ORIG 16-BIT INS]
    1175 00000166 D304              BCC       ||$C$L16||            ; [DPU_3_PIPE] |222|  ; [ORIG 16-BIT INS]
    1176                            ; BRANCHCC OCCURS {||$C$L16||}   ; [] |222| 
    1177                    ;* --------------------------------------------------------------------------*
    1178                            .dwpsn  file "../esp8266.c",line 223,column 5,is_stmt,isa 1
    1179                    ;----------------------------------------------------------------------
    1180                    ; 223 | UART1_ICR_R = UART_ICR_RTIC;      // acknowledge receiver time         
    1181                    ;----------------------------------------------------------------------
    1182 00000168 49C0              LDR       A2, $C$CON20          ; [DPU_3_PIPE] |223|  ; [ORIG 16-BIT INS]
    1183 0000016a 2040              MOVS      A1, #64               ; [DPU_3_PIPE] |223|  ; [ORIG 16-BIT INS]
    1184 0000016c 6008              STR       A1, [A2, #0]          ; [DPU_3_PIPE] |223|  ; [ORIG 16-BIT INS]
    1185                            .dwpsn  file "../esp8266.c",line 224,column 5,is_stmt,isa 1
    1186                    ;----------------------------------------------------------------------
    1187                    ; 224 | ESP8266FIFOtoBuffer();                                                 
    1188                    ;----------------------------------------------------------------------
    1189                    $C$DW$64        .dwtag  DW_TAG_TI_branch
    1190                            .dwattr $C$DW$64, DW_AT_low_pc(0x00)
    1191                            .dwattr $C$DW$64, DW_AT_name("ESP8266FIFOtoBuffer")
    1192                            .dwattr $C$DW$64, DW_AT_TI_call
    1193 0000016e F80DF000          BL        ESP8266FIFOtoBuffer   ; [DPU_3_PIPE] |224|  ; [KEEP 32-BIT INS]
    1194                            ; CALL OCCURS {ESP8266FIFOtoBuffer }  ; [] |224| 
    1195                            .dwpsn  file "../esp8266.c",line 226,column 1,is_stmt,isa 1
    1196                    ;* --------------------------------------------------------------------------*
    1197                    ||$C$L16||:    
    1198                    $C$DW$65        .dwtag  DW_TAG_TI_branch
    1199                            .dwattr $C$DW$65, DW_AT_low_pc(0x00)
    1200                            .dwattr $C$DW$65, DW_AT_TI_return
    1201 00000172 BD08              POP       {A4, PC}              ; [DPU_3_PIPE]  ; [ORIG 16-BIT INS]
    1202                            .dwcfi  cfa_offset, 0
    1203                            ; BRANCH OCCURS                  ; [] 
    1204                            .dwattr $C$DW$62, DW_AT_TI_end_file("../esp8266.c")
    1205                            .dwattr $C$DW$62, DW_AT_TI_end_line(0xe2)
    1206                            .dwattr $C$DW$62, DW_AT_TI_end_column(0x01)
    1207                            .dwendentry
    1208                            .dwendtag $C$DW$62
    1209                    
    1210                    ;******************************************************************************
TI ARM Assembler PC v5.2.4 Thu Sep 17 23:20:49 2015

Tools Copyright (c) 1996-2015 Texas Instruments Incorporated
esp8266.asm                                                          PAGE   23

    1211                    ;* CONSTANT TABLE                                                             *
    1212                    ;******************************************************************************
    1213 00000174                   .sect   ".text"
    1214                            .align  4
    1215 00000174 400FE618  ||$C$CON1||:    .bits   1074783768,32
    1216                            .align  4
    1217 00000178 400FE608  ||$C$CON2||:    .bits   1074783752,32
    1218                            .align  4
    1219 0000017c 40005420  ||$C$CON3||:    .bits   1073763360,32
    1220                            .align  4
    1221 00000180 40005400  ||$C$CON4||:    .bits   1073763328,32
    1222                            .align  4
    1223 00000184 4000552C  ||$C$CON5||:    .bits   1073763628,32
    1224                            .align  4
    1225 00000188 FF0FFF00  ||$C$CON6||:    .bits   -15728896,32
    1226 0000018c                   .sect   ".text"
    1227                            .clink
    1228                            .thumbfunc ESP8266FIFOtoBuffer
    1229 0000018c                   .thumb
    1230                            .global ESP8266FIFOtoBuffer
    1231                    
    1232                    $C$DW$66        .dwtag  DW_TAG_subprogram, DW_AT_name("ESP8266FIFOtoBuffer")
    1233                            .dwattr $C$DW$66, DW_AT_low_pc(ESP8266FIFOtoBuffer)
    1234                            .dwattr $C$DW$66, DW_AT_high_pc(0x00)
    1235                            .dwattr $C$DW$66, DW_AT_TI_symbol_name("ESP8266FIFOtoBuffer")
    1236                            .dwattr $C$DW$66, DW_AT_external
    1237                            .dwattr $C$DW$66, DW_AT_TI_begin_file("../esp8266.c")
    1238                            .dwattr $C$DW$66, DW_AT_TI_begin_line(0xec)
    1239                            .dwattr $C$DW$66, DW_AT_TI_begin_column(0x06)
    1240                            .dwattr $C$DW$66, DW_AT_decl_file("../esp8266.c")
    1241                            .dwattr $C$DW$66, DW_AT_decl_line(0xec)
    1242                            .dwattr $C$DW$66, DW_AT_decl_column(0x06)
    1243                            .dwattr $C$DW$66, DW_AT_TI_max_frame_size(0x08)
    1244                            .dwpsn  file "../esp8266.c",line 236,column 31,is_stmt,address ESP8266FIFOtoBuffer,isa 1
    1245                    
    1246                            .dwfde $C$DW$CIE, ESP8266FIFOtoBuffer
    1247                    ;----------------------------------------------------------------------
    1248                    ; 236 | void ESP8266FIFOtoBuffer(void){                                        
    1249                    ; 237 | char letter;                                                           
    1250                    ;----------------------------------------------------------------------
    1251                    
    1252                    ;*****************************************************************************
    1253                    ;* FUNCTION NAME: ESP8266FIFOtoBuffer                                        *
    1254                    ;*                                                                           *
    1255                    ;*   Regs Modified     : A1,A2,A3,A4,V9,SP,LR,SR,D0,D0_hi,D1,D1_hi,D2,D2_hi, *
    1256                    ;*                           D3,D3_hi,D4,D4_hi,D5,D5_hi,D6,D6_hi,D7,D7_hi,   *
    1257                    ;*                           FPEXC,FPSCR                                     *
    1258                    ;*   Regs Used         : A1,A2,A3,A4,V9,SP,LR,SR,D0,D0_hi,D1,D1_hi,D2,D2_hi, *
    1259                    ;*                           D3,D3_hi,D4,D4_hi,D5,D5_hi,D6,D6_hi,D7,D7_hi,   *
    1260                    ;*                           FPEXC,FPSCR                                     *
    1261                    ;*   Local Frame Size  : 0 Args + 4 Auto + 4 Save = 8 byte                   *
    1262                    ;*****************************************************************************
    1263 0000018c           ESP8266FIFOtoBuffer:
    1264                    ;* --------------------------------------------------------------------------*
    1265                            .dwcfi  cfa_offset, 0
TI ARM Assembler PC v5.2.4 Thu Sep 17 23:20:49 2015

Tools Copyright (c) 1996-2015 Texas Instruments Incorporated
esp8266.asm                                                          PAGE   24

    1266 0000018c B508              PUSH      {A4, LR}              ; [DPU_3_PIPE]  ; [ORIG 16-BIT INS]
    1267                            .dwcfi  cfa_offset, 8
    1268                            .dwcfi  save_reg_to_mem, 14, -4
    1269                            .dwcfi  save_reg_to_mem, 3, -8
    1270                    $C$DW$67        .dwtag  DW_TAG_variable, DW_AT_name("letter")
    1271                            .dwattr $C$DW$67, DW_AT_TI_symbol_name("letter")
    1272                            .dwattr $C$DW$67, DW_AT_type(*$C$DW$T$6)
    1273                            .dwattr $C$DW$67, DW_AT_location[DW_OP_breg13 0]
    1274                            .dwpsn  file "../esp8266.c",line 238,column 3,is_stmt,isa 1
    1275                    ;----------------------------------------------------------------------
    1276                    ; 238 | while((UART1_FR_R&UART_FR_RXFE) == 0){                                 
    1277                    ;----------------------------------------------------------------------
    1278 0000018e E038              B         ||$C$L21||            ; [DPU_3_PIPE] |238|  ; [ORIG 16-BIT INS]
    1279                            ; BRANCH OCCURS {||$C$L21||}     ; [] |238| 
    1280                    ;* --------------------------------------------------------------------------*
    1281 00000190           ||$C$L17||:    
    1282                            .dwpsn  file "../esp8266.c",line 239,column 5,is_stmt,isa 1
    1283                    ;----------------------------------------------------------------------
    1284                    ; 239 | letter = UART1_DR_R;        // retrieve char from FIFO                 
    1285                    ;----------------------------------------------------------------------
    1286 00000190 48B7              LDR       A1, $C$CON21          ; [DPU_3_PIPE] |239|  ; [ORIG 16-BIT INS]
    1287 00000192 6800              LDR       A1, [A1, #0]          ; [DPU_3_PIPE] |239|  ; [ORIG 16-BIT INS]
    1288 00000194 0000F88D          STRB      A1, [SP, #0]          ; [DPU_3_PIPE] |239|  ; [KEEP 32-BIT INS]
    1289                            .dwpsn  file "../esp8266.c",line 240,column 5,is_stmt,isa 1
    1290                    ;----------------------------------------------------------------------
    1291                    ; 240 | if(ESP8266_EchoResponse){                                              
    1292                    ;----------------------------------------------------------------------
    1293 00000198 482F              LDR       A1, $C$CON17          ; [DPU_3_PIPE] |240|  ; [ORIG 16-BIT INS]
    1294 0000019a 7800              LDRB      A1, [A1, #0]          ; [DPU_3_PIPE] |240|  ; [ORIG 16-BIT INS]
    1295 0000019c B118              CBZ       A1, ||$C$L18||        ; []  ; [ORIG 16-BIT INS]
    1296                            ; BRANCHCC OCCURS {||$C$L18||}   ; [] |240| 
    1297                    ;* --------------------------------------------------------------------------*
    1298                            .dwpsn  file "../esp8266.c",line 241,column 7,is_stmt,isa 1
    1299                    ;----------------------------------------------------------------------
    1300                    ; 241 | UART_OutCharNonBlock(letter); // echo                                  
    1301                    ;----------------------------------------------------------------------
    1302 0000019e 0000F89D          LDRB      A1, [SP, #0]          ; [DPU_3_PIPE] |241|  ; [KEEP 32-BIT INS]
    1303                    $C$DW$68        .dwtag  DW_TAG_TI_branch
    1304                            .dwattr $C$DW$68, DW_AT_low_pc(0x00)
    1305                            .dwattr $C$DW$68, DW_AT_name("UART_OutCharNonBlock")
    1306                            .dwattr $C$DW$68, DW_AT_TI_call
    1307 000001a2 FFFEF7FF!         BL        UART_OutCharNonBlock  ; [DPU_3_PIPE] |241|  ; [KEEP 32-BIT INS]
    1308                            ; CALL OCCURS {UART_OutCharNonBlock }  ; [] |241| 
    1309                    ;* --------------------------------------------------------------------------*
    1310 000001a6           ||$C$L18||:    
    1311                            .dwpsn  file "../esp8266.c",line 243,column 5,is_stmt,isa 1
    1312                    ;----------------------------------------------------------------------
    1313                    ; 243 | if(letter != '\r'){                                                    
    1314                    ;----------------------------------------------------------------------
    1315 000001a6 0000F89D          LDRB      A1, [SP, #0]          ; [DPU_3_PIPE] |243|  ; [KEEP 32-BIT INS]
    1316 000001aa 280D              CMP       A1, #13               ; [DPU_3_PIPE] |243|  ; [ORIG 16-BIT INS]
    1317 000001ac D029              BEQ       ||$C$L21||            ; [DPU_3_PIPE] |243|  ; [ORIG 16-BIT INS]
    1318                            ; BRANCHCC OCCURS {||$C$L21||}   ; [] |243| 
    1319                    ;* --------------------------------------------------------------------------*
    1320                            .dwpsn  file "../esp8266.c",line 244,column 7,is_stmt,isa 1
TI ARM Assembler PC v5.2.4 Thu Sep 17 23:20:49 2015

Tools Copyright (c) 1996-2015 Texas Instruments Incorporated
esp8266.asm                                                          PAGE   25

    1321                    ;----------------------------------------------------------------------
    1322                    ; 244 | if(ESP8266_RXBufferIndex < (ESP8266_RXBuffer_SIZE-1)){ // space for two
    1323                    ;     | ?                                                                      
    1324                    ;----------------------------------------------------------------------
    1325 000001ae 48B1              LDR       A1, $C$CON22          ; [DPU_3_PIPE] |244|  ; [ORIG 16-BIT INS]
    1326 000001b0 6800              LDR       A1, [A1, #0]          ; [DPU_3_PIPE] |244|  ; [ORIG 16-BIT INS]
    1327 000001b2 31FFF240          MOV       A2, #1023             ; [DPU_3_PIPE] |244|  ; [KEEP 32-BIT INS]
    1328 000001b6 4281              CMP       A2, A1                ; [DPU_3_PIPE] |244|  ; [ORIG 16-BIT INS]
    1329 000001b8 D909              BLS       ||$C$L19||            ; [DPU_3_PIPE] |244|  ; [ORIG 16-BIT INS]
    1330                            ; BRANCHCC OCCURS {||$C$L19||}   ; [] |244| 
    1331                    ;* --------------------------------------------------------------------------*
    1332                            .dwpsn  file "../esp8266.c",line 245,column 9,is_stmt,isa 1
    1333                    ;----------------------------------------------------------------------
    1334                    ; 245 | ESP8266_RXBuffer[ESP8266_RXBufferIndex] = letter; // put char into buff
    1335                    ;     | er                                                                     
    1336                    ;----------------------------------------------------------------------
    1337 000001ba 49AE              LDR       A2, $C$CON22          ; [DPU_3_PIPE] |245|  ; [ORIG 16-BIT INS]
    1338 000001bc 4AAE              LDR       A3, $C$CON23          ; [DPU_3_PIPE] |245|  ; [ORIG 16-BIT INS]
    1339 000001be 0000F89D          LDRB      A1, [SP, #0]          ; [DPU_3_PIPE] |245|  ; [KEEP 32-BIT INS]
    1340 000001c2 6809              LDR       A2, [A2, #0]          ; [DPU_3_PIPE] |245|  ; [ORIG 16-BIT INS]
    1341 000001c4 5450              STRB      A1, [A3, +A2]         ; [DPU_3_PIPE] |245|  ; [ORIG 16-BIT INS]
    1342                            .dwpsn  file "../esp8266.c",line 246,column 9,is_stmt,isa 1
    1343                    ;----------------------------------------------------------------------
    1344                    ; 246 | ESP8266_RXBufferIndex++; // increment buffer index                     
    1345                    ;----------------------------------------------------------------------
    1346 000001c6 49AB              LDR       A2, $C$CON22          ; [DPU_3_PIPE] |246|  ; [ORIG 16-BIT INS]
    1347 000001c8 6808              LDR       A1, [A2, #0]          ; [DPU_3_PIPE] |246|  ; [ORIG 16-BIT INS]
    1348 000001ca 1C40              ADDS      A1, A1, #1            ; [DPU_3_PIPE] |246|  ; [ORIG 16-BIT INS]
    1349 000001cc 6008              STR       A1, [A2, #0]          ; [DPU_3_PIPE] |246|  ; [ORIG 16-BIT INS]
    1350                    ;* --------------------------------------------------------------------------*
    1351 000001ce           ||$C$L19||:    
    1352                            .dwpsn  file "../esp8266.c",line 248,column 7,is_stmt,isa 1
    1353                    ;----------------------------------------------------------------------
    1354                    ; 248 | if(letter == '\n'){                                                    
    1355                    ;----------------------------------------------------------------------
    1356 000001ce 0000F89D          LDRB      A1, [SP, #0]          ; [DPU_3_PIPE] |248|  ; [KEEP 32-BIT INS]
    1357 000001d2 280A              CMP       A1, #10               ; [DPU_3_PIPE] |248|  ; [ORIG 16-BIT INS]
    1358 000001d4 D115              BNE       ||$C$L21||            ; [DPU_3_PIPE] |248|  ; [ORIG 16-BIT INS]
    1359                            ; BRANCHCC OCCURS {||$C$L21||}   ; [] |248| 
    1360                    ;* --------------------------------------------------------------------------*
    1361                            .dwpsn  file "../esp8266.c",line 249,column 9,is_stmt,isa 1
    1362                    ;----------------------------------------------------------------------
    1363                    ; 249 | ESP8266_RXBuffer[ESP8266_RXBufferIndex] = 0;                           
    1364                    ;----------------------------------------------------------------------
    1365 000001d6 48A7              LDR       A1, $C$CON22          ; [DPU_3_PIPE] |249|  ; [ORIG 16-BIT INS]
    1366 000001d8 4AA7              LDR       A3, $C$CON23          ; [DPU_3_PIPE] |249|  ; [ORIG 16-BIT INS]
    1367 000001da 6800              LDR       A1, [A1, #0]          ; [DPU_3_PIPE] |249|  ; [ORIG 16-BIT INS]
    1368 000001dc 2100              MOVS      A2, #0                ; [DPU_3_PIPE] |249|  ; [ORIG 16-BIT INS]
    1369 000001de 5411              STRB      A2, [A3, +A1]         ; [DPU_3_PIPE] |249|  ; [ORIG 16-BIT INS]
    1370                            .dwpsn  file "../esp8266.c",line 250,column 9,is_stmt,isa 1
    1371                    ;----------------------------------------------------------------------
    1372                    ; 250 | if(SearchLooking){                                                     
    1373                    ;----------------------------------------------------------------------
    1374 000001e0 481B              LDR       A1, $C$CON15          ; [DPU_3_PIPE] |250|  ; [ORIG 16-BIT INS]
    1375 000001e2 7800              LDRB      A1, [A1, #0]          ; [DPU_3_PIPE] |250|  ; [ORIG 16-BIT INS]
TI ARM Assembler PC v5.2.4 Thu Sep 17 23:20:49 2015

Tools Copyright (c) 1996-2015 Texas Instruments Incorporated
esp8266.asm                                                          PAGE   26

    1376 000001e4 B150              CBZ       A1, ||$C$L20||        ; []  ; [ORIG 16-BIT INS]
    1377                            ; BRANCHCC OCCURS {||$C$L20||}   ; [] |250| 
    1378                    ;* --------------------------------------------------------------------------*
    1379                            .dwpsn  file "../esp8266.c",line 251,column 11,is_stmt,isa 1
    1380                    ;----------------------------------------------------------------------
    1381                    ; 251 | if(strstr(ESP8266_RXBuffer,SearchString)){                             
    1382                    ;----------------------------------------------------------------------
    1383 000001e6 48A4              LDR       A1, $C$CON23          ; [DPU_3_PIPE] |251|  ; [ORIG 16-BIT INS]
    1384 000001e8 49C9              LDR       A2, $C$CON24          ; [DPU_3_PIPE] |251|  ; [ORIG 16-BIT INS]
    1385                    $C$DW$69        .dwtag  DW_TAG_TI_branch
    1386                            .dwattr $C$DW$69, DW_AT_low_pc(0x00)
    1387                            .dwattr $C$DW$69, DW_AT_name("strstr")
    1388                            .dwattr $C$DW$69, DW_AT_TI_call
    1389 000001ea FFFEF7FF!         BL        strstr                ; [DPU_3_PIPE] |251|  ; [KEEP 32-BIT INS]
    1390                            ; CALL OCCURS {strstr }          ; [] |251| 
    1391 000001ee B128              CBZ       A1, ||$C$L20||        ; []  ; [ORIG 16-BIT INS]
    1392                            ; BRANCHCC OCCURS {||$C$L20||}   ; [] |251| 
    1393                    ;* --------------------------------------------------------------------------*
    1394                            .dwpsn  file "../esp8266.c",line 252,column 13,is_stmt,isa 1
    1395                    ;----------------------------------------------------------------------
    1396                    ; 252 | SearchLooking = false;                                                 
    1397                    ;----------------------------------------------------------------------
    1398 000001f0 4917              LDR       A2, $C$CON15          ; [DPU_3_PIPE] |252|  ; [ORIG 16-BIT INS]
    1399 000001f2 2000              MOVS      A1, #0                ; [DPU_3_PIPE] |252|  ; [ORIG 16-BIT INS]
    1400 000001f4 7008              STRB      A1, [A2, #0]          ; [DPU_3_PIPE] |252|  ; [ORIG 16-BIT INS]
    1401                            .dwpsn  file "../esp8266.c",line 253,column 13,is_stmt,isa 1
    1402                    ;----------------------------------------------------------------------
    1403                    ; 253 | SearchFound = true;                                                    
    1404                    ;----------------------------------------------------------------------
    1405 000001f6 4917              LDR       A2, $C$CON16          ; [DPU_3_PIPE] |253|  ; [ORIG 16-BIT INS]
    1406 000001f8 2001              MOVS      A1, #1                ; [DPU_3_PIPE] |253|  ; [ORIG 16-BIT INS]
    1407 000001fa 7008              STRB      A1, [A2, #0]          ; [DPU_3_PIPE] |253|  ; [ORIG 16-BIT INS]
    1408                    ;* --------------------------------------------------------------------------*
    1409 000001fc           ||$C$L20||:    
    1410                            .dwpsn  file "../esp8266.c",line 256,column 9,is_stmt,isa 1
    1411                    ;----------------------------------------------------------------------
    1412                    ; 256 | ESP8266_RXBufferIndex = 0;                                             
    1413                    ; 257 | //        ESP8266_ProcessBuffer = true;                                
    1414                    ; 258 | //        if(ESP8266_InputProcessingEnabled){                          
    1415                    ; 259 | //          ESP8266_ProcessInput((const char*)ESP8266_RXBuffer);       
    1416                    ; 260 | //        }                                                            
    1417                    ; 261 | //        if(ESP8266_EchoResponse){int i=0;                            
    1418                    ; 262 | //          while(letter==ESP8266_RXBuffer[i]){                        
    1419                    ; 263 | //            UART_OutChar(letter); // echo                            
    1420                    ; 264 | //            i++;                                                     
    1421                    ; 265 | //          }                                                          
    1422                    ; 266 | //        }                                                            
    1423                    ;----------------------------------------------------------------------
    1424 000001fc 499D              LDR       A2, $C$CON22          ; [DPU_3_PIPE] |256|  ; [ORIG 16-BIT INS]
    1425 000001fe 2000              MOVS      A1, #0                ; [DPU_3_PIPE] |256|  ; [ORIG 16-BIT INS]
    1426 00000200 6008              STR       A1, [A2, #0]          ; [DPU_3_PIPE] |256|  ; [ORIG 16-BIT INS]
    1427                    ;* --------------------------------------------------------------------------*
    1428                    ;*   BEGIN LOOP ||$C$L21||
    1429                    ;* --------------------------------------------------------------------------*
    1430 00000202           ||$C$L21||:    
TI ARM Assembler PC v5.2.4 Thu Sep 17 23:20:49 2015

Tools Copyright (c) 1996-2015 Texas Instruments Incorporated
esp8266.asm                                                          PAGE   27

    1431                            .dwpsn  file "../esp8266.c",line 238,column 9,is_stmt,isa 1
    1432 00000202 48B6              LDR       A1, $C$CON25          ; [DPU_3_PIPE] |238|  ; [ORIG 16-BIT INS]
    1433 00000204 6800              LDR       A1, [A1, #0]          ; [DPU_3_PIPE] |238|  ; [ORIG 16-BIT INS]
    1434 00000206 0940              LSRS      A1, A1, #5            ; [DPU_3_PIPE] |238|  ; [ORIG 16-BIT INS]
    1435 00000208 D3C2              BCC       ||$C$L17||            ; [DPU_3_PIPE] |238|  ; [ORIG 16-BIT INS]
    1436                            ; BRANCHCC OCCURS {||$C$L17||}   ; [] |238| 
    1437                    ;* --------------------------------------------------------------------------*
    1438                            .dwpsn  file "../esp8266.c",line 270,column 1,is_stmt,isa 1
    1439                    $C$DW$70        .dwtag  DW_TAG_TI_branch
    1440                            .dwattr $C$DW$70, DW_AT_low_pc(0x00)
    1441                            .dwattr $C$DW$70, DW_AT_TI_return
    1442 0000020a BD08              POP       {A4, PC}              ; [DPU_3_PIPE]  ; [ORIG 16-BIT INS]
    1443                            .dwcfi  cfa_offset, 0
    1444                            ; BRANCH OCCURS                  ; [] 
    1445                            .dwattr $C$DW$66, DW_AT_TI_end_file("../esp8266.c")
    1446                            .dwattr $C$DW$66, DW_AT_TI_end_line(0x10e)
    1447                            .dwattr $C$DW$66, DW_AT_TI_end_column(0x01)
    1448                            .dwendentry
    1449                            .dwendtag $C$DW$66
    1450                    
    1451                    ;******************************************************************************
    1452                    ;* CONSTANT TABLE                                                             *
    1453                    ;******************************************************************************
    1454 0000020c                   .sect   ".text"
    1455                            .align  4
    1456 0000020c 4000551C  ||$C$CON7||:    .bits   1073763612,32
    1457                            .align  4
    1458 00000210 400053FC  ||$C$CON8||:    .bits   1073763324,32
    1459                            .align  4
    1460 00000214 4000D030  ||$C$CON9||:    .bits   1073795120,32
    1461                            .align  4
    1462 00000218 4000D024  ||$C$CON10||:   .bits   1073795108,32
    1463                            .align  4
    1464 0000021c 4000D028  ||$C$CON11||:   .bits   1073795112,32
    1465                            .align  4
    1466 00000220 4000D02C  ||$C$CON12||:   .bits   1073795116,32
    1467                            .align  4
    1468 00000224 4000D034  ||$C$CON13||:   .bits   1073795124,32
    1469                            .align  4
    1470 00000228 4000D038  ||$C$CON14||:   .bits   1073795128,32
    1471 0000022c                   .sect   ".text"
    1472                            .clink
    1473                            .thumbfunc ESP8266SendCommand
    1474 0000022c                   .thumb
    1475                            .global ESP8266SendCommand
    1476                    
    1477                    $C$DW$71        .dwtag  DW_TAG_subprogram, DW_AT_name("ESP8266SendCommand")
    1478                            .dwattr $C$DW$71, DW_AT_low_pc(ESP8266SendCommand)
    1479                            .dwattr $C$DW$71, DW_AT_high_pc(0x00)
    1480                            .dwattr $C$DW$71, DW_AT_TI_symbol_name("ESP8266SendCommand")
    1481                            .dwattr $C$DW$71, DW_AT_external
    1482                            .dwattr $C$DW$71, DW_AT_TI_begin_file("../esp8266.c")
    1483                            .dwattr $C$DW$71, DW_AT_TI_begin_line(0x117)
    1484                            .dwattr $C$DW$71, DW_AT_TI_begin_column(0x06)
    1485                            .dwattr $C$DW$71, DW_AT_decl_file("../esp8266.c")
TI ARM Assembler PC v5.2.4 Thu Sep 17 23:20:49 2015

Tools Copyright (c) 1996-2015 Texas Instruments Incorporated
esp8266.asm                                                          PAGE   28

    1486                            .dwattr $C$DW$71, DW_AT_decl_line(0x117)
    1487                            .dwattr $C$DW$71, DW_AT_decl_column(0x06)
    1488                            .dwattr $C$DW$71, DW_AT_TI_max_frame_size(0x10)
    1489                            .dwpsn  file "../esp8266.c",line 279,column 49,is_stmt,address ESP8266SendCommand,isa 1
    1490                    
    1491                            .dwfde $C$DW$CIE, ESP8266SendCommand
    1492                    $C$DW$72        .dwtag  DW_TAG_formal_parameter, DW_AT_name("inputString")
    1493                            .dwattr $C$DW$72, DW_AT_TI_symbol_name("inputString")
    1494                            .dwattr $C$DW$72, DW_AT_type(*$C$DW$T$36)
    1495                            .dwattr $C$DW$72, DW_AT_location[DW_OP_reg0]
    1496                    
    1497                    ;*****************************************************************************
    1498                    ;* FUNCTION NAME: ESP8266SendCommand                                         *
    1499                    ;*                                                                           *
    1500                    ;*   Regs Modified     : A1,A2,A3,A4,V9,SP,LR,SR,D0,D0_hi,D1,D1_hi,D2,D2_hi, *
    1501                    ;*                           D3,D3_hi,D4,D4_hi,D5,D5_hi,D6,D6_hi,D7,D7_hi,   *
    1502                    ;*                           FPEXC,FPSCR                                     *
    1503                    ;*   Regs Used         : A1,A2,A3,A4,V9,SP,LR,SR,D0,D0_hi,D1,D1_hi,D2,D2_hi, *
    1504                    ;*                           D3,D3_hi,D4,D4_hi,D5,D5_hi,D6,D6_hi,D7,D7_hi,   *
    1505                    ;*                           FPEXC,FPSCR                                     *
    1506                    ;*   Local Frame Size  : 0 Args + 8 Auto + 4 Save = 12 byte                  *
    1507                    ;*****************************************************************************
    1508 0000022c           ESP8266SendCommand:
    1509                    ;* --------------------------------------------------------------------------*
    1510                            .dwcfi  cfa_offset, 0
    1511 0000022c B50E              PUSH      {A2, A3, A4, LR}      ; [DPU_3_PIPE]  ; [ORIG 16-BIT INS]
    1512                            .dwcfi  cfa_offset, 16
    1513                            .dwcfi  save_reg_to_mem, 14, -4
    1514                            .dwcfi  save_reg_to_mem, 3, -8
    1515                            .dwcfi  save_reg_to_mem, 2, -12
    1516                            .dwcfi  save_reg_to_mem, 1, -16
    1517                    $C$DW$73        .dwtag  DW_TAG_variable, DW_AT_name("inputString")
    1518                            .dwattr $C$DW$73, DW_AT_TI_symbol_name("inputString")
    1519                            .dwattr $C$DW$73, DW_AT_type(*$C$DW$T$36)
    1520                            .dwattr $C$DW$73, DW_AT_location[DW_OP_breg13 0]
    1521                    $C$DW$74        .dwtag  DW_TAG_variable, DW_AT_name("index")
    1522                            .dwattr $C$DW$74, DW_AT_TI_symbol_name("index")
    1523                            .dwattr $C$DW$74, DW_AT_type(*$C$DW$T$10)
    1524                            .dwattr $C$DW$74, DW_AT_location[DW_OP_breg13 4]
    1525                    ;----------------------------------------------------------------------
    1526                    ; 279 | void ESP8266SendCommand(const char* inputString){                      
    1527                    ;----------------------------------------------------------------------
    1528 0000022e 9000              STR       A1, [SP, #0]          ; [DPU_3_PIPE] |279|  ; [ORIG 16-BIT INS]
    1529                            .dwpsn  file "../esp8266.c",line 280,column 13,is_stmt,isa 1
    1530                    ;----------------------------------------------------------------------
    1531                    ; 280 | int index = 0;                                                         
    1532                    ;----------------------------------------------------------------------
    1533 00000230 2000              MOVS      A1, #0                ; [DPU_3_PIPE] |280|  ; [ORIG 16-BIT INS]
    1534 00000232 9001              STR       A1, [SP, #4]          ; [DPU_3_PIPE] |280|  ; [ORIG 16-BIT INS]
    1535                            .dwpsn  file "../esp8266.c",line 281,column 3,is_stmt,isa 1
    1536                    ;----------------------------------------------------------------------
    1537                    ; 281 | while (inputString[index] != 0){                                       
    1538                    ;----------------------------------------------------------------------
    1539 00000234 E006              B         ||$C$L23||            ; [DPU_3_PIPE] |281|  ; [ORIG 16-BIT INS]
    1540                            ; BRANCH OCCURS {||$C$L23||}     ; [] |281| 
TI ARM Assembler PC v5.2.4 Thu Sep 17 23:20:49 2015

Tools Copyright (c) 1996-2015 Texas Instruments Incorporated
esp8266.asm                                                          PAGE   29

    1541                    ;* --------------------------------------------------------------------------*
    1542 00000236           ||$C$L22||:    
    1543                            .dwpsn  file "../esp8266.c",line 282,column 5,is_stmt,isa 1
    1544                    ;----------------------------------------------------------------------
    1545                    ; 282 | ESP8266PrintChar(inputString[index++]);                                
    1546                    ;----------------------------------------------------------------------
    1547 00000236 9801              LDR       A1, [SP, #4]          ; [DPU_3_PIPE] |282|  ; [ORIG 16-BIT INS]
    1548 00000238 9900              LDR       A2, [SP, #0]          ; [DPU_3_PIPE] |282|  ; [ORIG 16-BIT INS]
    1549 0000023a 1C42              ADDS      A3, A1, #1            ; [DPU_3_PIPE] |282|  ; [ORIG 16-BIT INS]
    1550 0000023c 9201              STR       A3, [SP, #4]          ; [DPU_3_PIPE] |282|  ; [ORIG 16-BIT INS]
    1551 0000023e 5C40              LDRB      A1, [A1, +A2]         ; [DPU_3_PIPE] |282|  ; [ORIG 16-BIT INS]
    1552                    $C$DW$75        .dwtag  DW_TAG_TI_branch
    1553                            .dwattr $C$DW$75, DW_AT_low_pc(0x00)
    1554                            .dwattr $C$DW$75, DW_AT_name("ESP8266PrintChar")
    1555                            .dwattr $C$DW$75, DW_AT_TI_call
    1556 00000240 FB10F000          BL        ESP8266PrintChar      ; [DPU_3_PIPE] |282|  ; [KEEP 32-BIT INS]
    1557                            ; CALL OCCURS {ESP8266PrintChar }  ; [] |282| 
    1558                    ;* --------------------------------------------------------------------------*
    1559                    ;*   BEGIN LOOP ||$C$L23||
    1560                    ;* --------------------------------------------------------------------------*
    1561 00000244           ||$C$L23||:    
    1562                            .dwpsn  file "../esp8266.c",line 281,column 10,is_stmt,isa 1
    1563 00000244 9800              LDR       A1, [SP, #0]          ; [DPU_3_PIPE] |281|  ; [ORIG 16-BIT INS]
    1564 00000246 9901              LDR       A2, [SP, #4]          ; [DPU_3_PIPE] |281|  ; [ORIG 16-BIT INS]
    1565 00000248 5C08              LDRB      A1, [A2, +A1]         ; [DPU_3_PIPE] |281|  ; [ORIG 16-BIT INS]
    1566 0000024a 2800              CMP       A1, #0                ; [DPU_3_PIPE] |281|  ; [ORIG 16-BIT INS]
    1567 0000024c D1F3              BNE       ||$C$L22||            ; [DPU_3_PIPE] |281|  ; [ORIG 16-BIT INS]
    1568                            ; BRANCHCC OCCURS {||$C$L22||}   ; [] |281| 
    1569                    ;* --------------------------------------------------------------------------*
    1570                            .dwpsn  file "../esp8266.c",line 284,column 1,is_stmt,isa 1
    1571                    $C$DW$76        .dwtag  DW_TAG_TI_branch
    1572                            .dwattr $C$DW$76, DW_AT_low_pc(0x00)
    1573                            .dwattr $C$DW$76, DW_AT_TI_return
    1574 0000024e BD0E              POP       {A2, A3, A4, PC}      ; [DPU_3_PIPE]  ; [ORIG 16-BIT INS]
    1575                            .dwcfi  cfa_offset, 0
    1576                            ; BRANCH OCCURS                  ; [] 
    1577                            .dwattr $C$DW$71, DW_AT_TI_end_file("../esp8266.c")
    1578                            .dwattr $C$DW$71, DW_AT_TI_end_line(0x11c)
    1579                            .dwattr $C$DW$71, DW_AT_TI_end_column(0x01)
    1580                            .dwendentry
    1581                            .dwendtag $C$DW$71
    1582                    
    1583                    ;******************************************************************************
    1584                    ;* CONSTANT TABLE                                                             *
    1585                    ;******************************************************************************
    1586 00000250                   .sect   ".text"
    1587                            .align  4
    1588 00000250 00000000! ||$C$CON15||:   .bits   SearchLooking,32
    1589                            .align  4
    1590 00000254 00000000! ||$C$CON16||:   .bits   SearchFound,32
    1591                            .align  4
    1592 00000258 00000000! ||$C$CON17||:   .bits   ESP8266_EchoResponse,32
    1593 0000025c                   .sect   ".text"
    1594                            .clink
    1595                            .thumbfunc DelayMs
TI ARM Assembler PC v5.2.4 Thu Sep 17 23:20:49 2015

Tools Copyright (c) 1996-2015 Texas Instruments Incorporated
esp8266.asm                                                          PAGE   30

    1596 0000025c                   .thumb
    1597                            .global DelayMs
    1598                    
    1599                    $C$DW$77        .dwtag  DW_TAG_subprogram, DW_AT_name("DelayMs")
    1600                            .dwattr $C$DW$77, DW_AT_low_pc(DelayMs)
    1601                            .dwattr $C$DW$77, DW_AT_high_pc(0x00)
    1602                            .dwattr $C$DW$77, DW_AT_TI_symbol_name("DelayMs")
    1603                            .dwattr $C$DW$77, DW_AT_external
    1604                            .dwattr $C$DW$77, DW_AT_TI_begin_file("../esp8266.c")
    1605                            .dwattr $C$DW$77, DW_AT_TI_begin_line(0x125)
    1606                            .dwattr $C$DW$77, DW_AT_TI_begin_column(0x06)
    1607                            .dwattr $C$DW$77, DW_AT_decl_file("../esp8266.c")
    1608                            .dwattr $C$DW$77, DW_AT_decl_line(0x125)
    1609                            .dwattr $C$DW$77, DW_AT_decl_column(0x06)
    1610                            .dwattr $C$DW$77, DW_AT_TI_max_frame_size(0x08)
    1611                            .dwpsn  file "../esp8266.c",line 293,column 25,is_stmt,address DelayMs,isa 1
    1612                    
    1613                            .dwfde $C$DW$CIE, DelayMs
    1614                    $C$DW$78        .dwtag  DW_TAG_formal_parameter, DW_AT_name("n")
    1615                            .dwattr $C$DW$78, DW_AT_TI_symbol_name("n")
    1616                            .dwattr $C$DW$78, DW_AT_type(*$C$DW$T$39)
    1617                            .dwattr $C$DW$78, DW_AT_location[DW_OP_reg0]
    1618                    
    1619                    ;*****************************************************************************
    1620                    ;* FUNCTION NAME: DelayMs                                                    *
    1621                    ;*                                                                           *
    1622                    ;*   Regs Modified     : A1,SP,SR                                            *
    1623                    ;*   Regs Used         : A1,SP,LR,SR                                         *
    1624                    ;*   Local Frame Size  : 0 Args + 8 Auto + 0 Save = 8 byte                   *
    1625                    ;*****************************************************************************
    1626 0000025c           DelayMs:
    1627                    ;* --------------------------------------------------------------------------*
    1628                            .dwcfi  cfa_offset, 0
    1629 0000025c 0D08F1AD          SUB       SP, SP, #8            ; [DPU_3_PIPE]  ; [KEEP 32-BIT INS]
    1630                            .dwcfi  cfa_offset, 8
    1631                    $C$DW$79        .dwtag  DW_TAG_variable, DW_AT_name("n")
    1632                            .dwattr $C$DW$79, DW_AT_TI_symbol_name("n")
    1633                            .dwattr $C$DW$79, DW_AT_type(*$C$DW$T$39)
    1634                            .dwattr $C$DW$79, DW_AT_location[DW_OP_breg13 0]
    1635                    $C$DW$80        .dwtag  DW_TAG_variable, DW_AT_name("time")
    1636                            .dwattr $C$DW$80, DW_AT_TI_symbol_name("time")
    1637                            .dwattr $C$DW$80, DW_AT_type(*$C$DW$T$84)
    1638                            .dwattr $C$DW$80, DW_AT_location[DW_OP_breg13 4]
    1639                    ;----------------------------------------------------------------------
    1640                    ; 293 | void DelayMs(uint32_t n){                                              
    1641                    ; 294 | volatile uint32_t time;                                                
    1642                    ;----------------------------------------------------------------------
    1643 00000260 9000              STR       A1, [SP, #0]          ; [DPU_3_PIPE] |293|  ; [ORIG 16-BIT INS]
    1644                            .dwpsn  file "../esp8266.c",line 295,column 3,is_stmt,isa 1
    1645                    ;----------------------------------------------------------------------
    1646                    ; 295 | while(n){                                                              
    1647                    ;----------------------------------------------------------------------
    1648 00000262 9800              LDR       A1, [SP, #0]          ; [DPU_3_PIPE] |295|  ; [ORIG 16-BIT INS]
    1649 00000264 B180              CBZ       A1, ||$C$L27||        ; []  ; [ORIG 16-BIT INS]
    1650                            ; BRANCHCC OCCURS {||$C$L27||}   ; [] |295| 
TI ARM Assembler PC v5.2.4 Thu Sep 17 23:20:49 2015

Tools Copyright (c) 1996-2015 Texas Instruments Incorporated
esp8266.asm                                                          PAGE   31

    1651                    ;* --------------------------------------------------------------------------*
    1652                    ;*   BEGIN LOOP ||$C$L24||
    1653                    ;*
    1654                    ;*   Loop source line                : 295
    1655                    ;*   Loop closing brace source line  : 301
    1656                    ;*   Known Minimum Trip Count        : 1
    1657                    ;*   Known Maximum Trip Count        : 4294967295
    1658                    ;*   Known Max Trip Count Factor     : 1
    1659                    ;* --------------------------------------------------------------------------*
    1660 00000266           ||$C$L24||:    
    1661                            .dwpsn  file "../esp8266.c",line 296,column 5,is_stmt,isa 1
    1662                    ;----------------------------------------------------------------------
    1663                    ; 296 | time = 75825*8/91;  // 1msec, tuned at 80 MHz                          
    1664                    ;----------------------------------------------------------------------
    1665 00000266 2009F641          MOV       A1, #6665             ; [DPU_3_PIPE] |296|  ; [KEEP 32-BIT INS]
    1666 0000026a 9001              STR       A1, [SP, #4]          ; [DPU_3_PIPE] |296|  ; [ORIG 16-BIT INS]
    1667                            .dwpsn  file "../esp8266.c",line 297,column 5,is_stmt,isa 1
    1668                    ;----------------------------------------------------------------------
    1669                    ; 297 | while(time){                                                           
    1670                    ;----------------------------------------------------------------------
    1671 0000026c 9801              LDR       A1, [SP, #4]          ; [DPU_3_PIPE] |297|  ; [ORIG 16-BIT INS]
    1672 0000026e B128              CBZ       A1, ||$C$L26||        ; []  ; [ORIG 16-BIT INS]
    1673                            ; BRANCHCC OCCURS {||$C$L26||}   ; [] |297| 
    1674                    ;* --------------------------------------------------------------------------*
    1675                    ;*   BEGIN LOOP ||$C$L25||
    1676                    ;*
    1677                    ;*   Loop source line                : 297
    1678                    ;*   Loop closing brace source line  : 299
    1679                    ;*   Known Minimum Trip Count        : 1
    1680                    ;*   Known Maximum Trip Count        : 4294967295
    1681                    ;*   Known Max Trip Count Factor     : 1
    1682                    ;* --------------------------------------------------------------------------*
    1683 00000270           ||$C$L25||:    
    1684                            .dwpsn  file "../esp8266.c",line 298,column 7,is_stmt,isa 1
    1685                    ;----------------------------------------------------------------------
    1686                    ; 298 | time--;                                                                
    1687                    ;----------------------------------------------------------------------
    1688 00000270 9801              LDR       A1, [SP, #4]          ; [DPU_3_PIPE] |298|  ; [ORIG 16-BIT INS]
    1689 00000272 1E40              SUBS      A1, A1, #1            ; [DPU_3_PIPE] |298|  ; [ORIG 16-BIT INS]
    1690 00000274 9001              STR       A1, [SP, #4]          ; [DPU_3_PIPE] |298|  ; [ORIG 16-BIT INS]
    1691                            .dwpsn  file "../esp8266.c",line 297,column 5,is_stmt,isa 1
    1692 00000276 9801              LDR       A1, [SP, #4]          ; [DPU_3_PIPE] |297|  ; [ORIG 16-BIT INS]
    1693 00000278 2800              CMP       A1, #0                ; [DPU_3_PIPE] |297|  ; [ORIG 16-BIT INS]
    1694 0000027a D1F9              BNE       ||$C$L25||            ; [DPU_3_PIPE] |297|  ; [ORIG 16-BIT INS]
    1695                            ; BRANCHCC OCCURS {||$C$L25||}   ; [] |297| 
    1696                    ;* --------------------------------------------------------------------------*
    1697 0000027c           ||$C$L26||:    
    1698                            .dwpsn  file "../esp8266.c",line 300,column 5,is_stmt,isa 1
    1699                    ;----------------------------------------------------------------------
    1700                    ; 300 | n--;                                                                   
    1701                    ;----------------------------------------------------------------------
    1702 0000027c 9800              LDR       A1, [SP, #0]          ; [DPU_3_PIPE] |300|  ; [ORIG 16-BIT INS]
    1703 0000027e 1E40              SUBS      A1, A1, #1            ; [DPU_3_PIPE] |300|  ; [ORIG 16-BIT INS]
    1704 00000280 9000              STR       A1, [SP, #0]          ; [DPU_3_PIPE] |300|  ; [ORIG 16-BIT INS]
    1705                            .dwpsn  file "../esp8266.c",line 295,column 3,is_stmt,isa 1
TI ARM Assembler PC v5.2.4 Thu Sep 17 23:20:49 2015

Tools Copyright (c) 1996-2015 Texas Instruments Incorporated
esp8266.asm                                                          PAGE   32

    1706 00000282 9800              LDR       A1, [SP, #0]          ; [DPU_3_PIPE] |295|  ; [ORIG 16-BIT INS]
    1707 00000284 2800              CMP       A1, #0                ; [DPU_3_PIPE] |295|  ; [ORIG 16-BIT INS]
    1708 00000286 D1EE              BNE       ||$C$L24||            ; [DPU_3_PIPE] |295|  ; [ORIG 16-BIT INS]
    1709                            ; BRANCHCC OCCURS {||$C$L24||}   ; [] |295| 
    1710                    ;* --------------------------------------------------------------------------*
    1711                            .dwpsn  file "../esp8266.c",line 302,column 1,is_stmt,isa 1
    1712                    ;* --------------------------------------------------------------------------*
    1713 00000288           ||$C$L27||:    
    1714 00000288 B002              ADD       SP, SP, #8            ; [DPU_3_PIPE]  ; [ORIG 16-BIT INS]
    1715                            .dwcfi  cfa_offset, 0
    1716                    $C$DW$81        .dwtag  DW_TAG_TI_branch
    1717                            .dwattr $C$DW$81, DW_AT_low_pc(0x00)
    1718                            .dwattr $C$DW$81, DW_AT_TI_return
    1719 0000028a 4770              BX        LR                    ; [DPU_3_PIPE]  ; [ORIG 16-BIT INS]
    1720                            ; BRANCH OCCURS                  ; [] 
    1721                            .dwattr $C$DW$77, DW_AT_TI_end_file("../esp8266.c")
    1722                            .dwattr $C$DW$77, DW_AT_TI_end_line(0x12e)
    1723                            .dwattr $C$DW$77, DW_AT_TI_end_column(0x01)
    1724                            .dwendentry
    1725                            .dwendtag $C$DW$77
    1726                    
    1727 0000028c                   .sect   ".text"
    1728                            .clink
    1729                            .thumbfunc DelayMsSearching
    1730 0000028c                   .thumb
    1731                            .global DelayMsSearching
    1732                    
    1733                    $C$DW$82        .dwtag  DW_TAG_subprogram, DW_AT_name("DelayMsSearching")
    1734                            .dwattr $C$DW$82, DW_AT_low_pc(DelayMsSearching)
    1735                            .dwattr $C$DW$82, DW_AT_high_pc(0x00)
    1736                            .dwattr $C$DW$82, DW_AT_TI_symbol_name("DelayMsSearching")
    1737                            .dwattr $C$DW$82, DW_AT_external
    1738                            .dwattr $C$DW$82, DW_AT_TI_begin_file("../esp8266.c")
    1739                            .dwattr $C$DW$82, DW_AT_TI_begin_line(0x12f)
    1740                            .dwattr $C$DW$82, DW_AT_TI_begin_column(0x06)
    1741                            .dwattr $C$DW$82, DW_AT_decl_file("../esp8266.c")
    1742                            .dwattr $C$DW$82, DW_AT_decl_line(0x12f)
    1743                            .dwattr $C$DW$82, DW_AT_decl_column(0x06)
    1744                            .dwattr $C$DW$82, DW_AT_TI_max_frame_size(0x08)
    1745                            .dwpsn  file "../esp8266.c",line 303,column 34,is_stmt,address DelayMsSearching,isa 1
    1746                    
    1747                            .dwfde $C$DW$CIE, DelayMsSearching
    1748                    $C$DW$83        .dwtag  DW_TAG_formal_parameter, DW_AT_name("n")
    1749                            .dwattr $C$DW$83, DW_AT_TI_symbol_name("n")
    1750                            .dwattr $C$DW$83, DW_AT_type(*$C$DW$T$39)
    1751                            .dwattr $C$DW$83, DW_AT_location[DW_OP_reg0]
    1752                    
    1753                    ;*****************************************************************************
    1754                    ;* FUNCTION NAME: DelayMsSearching                                           *
    1755                    ;*                                                                           *
    1756                    ;*   Regs Modified     : A1,SP,SR                                            *
    1757                    ;*   Regs Used         : A1,SP,LR,SR                                         *
    1758                    ;*   Local Frame Size  : 0 Args + 8 Auto + 0 Save = 8 byte                   *
    1759                    ;*****************************************************************************
    1760 0000028c           DelayMsSearching:
TI ARM Assembler PC v5.2.4 Thu Sep 17 23:20:49 2015

Tools Copyright (c) 1996-2015 Texas Instruments Incorporated
esp8266.asm                                                          PAGE   33

    1761                    ;* --------------------------------------------------------------------------*
    1762                            .dwcfi  cfa_offset, 0
    1763 0000028c 0D08F1AD          SUB       SP, SP, #8            ; [DPU_3_PIPE]  ; [KEEP 32-BIT INS]
    1764                            .dwcfi  cfa_offset, 8
    1765                    $C$DW$84        .dwtag  DW_TAG_variable, DW_AT_name("n")
    1766                            .dwattr $C$DW$84, DW_AT_TI_symbol_name("n")
    1767                            .dwattr $C$DW$84, DW_AT_type(*$C$DW$T$39)
    1768                            .dwattr $C$DW$84, DW_AT_location[DW_OP_breg13 0]
    1769                    $C$DW$85        .dwtag  DW_TAG_variable, DW_AT_name("time")
    1770                            .dwattr $C$DW$85, DW_AT_TI_symbol_name("time")
    1771                            .dwattr $C$DW$85, DW_AT_type(*$C$DW$T$84)
    1772                            .dwattr $C$DW$85, DW_AT_location[DW_OP_breg13 4]
    1773                    ;----------------------------------------------------------------------
    1774                    ; 303 | void DelayMsSearching(uint32_t n){                                     
    1775                    ; 304 | volatile uint32_t time;                                                
    1776                    ;----------------------------------------------------------------------
    1777 00000290 9000              STR       A1, [SP, #0]          ; [DPU_3_PIPE] |303|  ; [ORIG 16-BIT INS]
    1778                            .dwpsn  file "../esp8266.c",line 305,column 3,is_stmt,isa 1
    1779                    ;----------------------------------------------------------------------
    1780                    ; 305 | while(n){                                                              
    1781                    ;----------------------------------------------------------------------
    1782 00000292 9800              LDR       A1, [SP, #0]          ; [DPU_3_PIPE] |305|  ; [ORIG 16-BIT INS]
    1783 00000294 B198              CBZ       A1, ||$C$L31||        ; []  ; [ORIG 16-BIT INS]
    1784                            ; BRANCHCC OCCURS {||$C$L31||}   ; [] |305| 
    1785                    ;* --------------------------------------------------------------------------*
    1786                    ;*   BEGIN LOOP ||$C$L28||
    1787                    ;*
    1788                    ;*   Loop source line                : 305
    1789                    ;*   Loop closing brace source line  : 312
    1790                    ;*   Known Minimum Trip Count        : 1
    1791                    ;*   Known Maximum Trip Count        : 4294967295
    1792                    ;*   Known Max Trip Count Factor     : 1
    1793                    ;* --------------------------------------------------------------------------*
    1794 00000296           ||$C$L28||:    
    1795                            .dwpsn  file "../esp8266.c",line 306,column 5,is_stmt,isa 1
    1796                    ;----------------------------------------------------------------------
    1797                    ; 306 | time = 75825*8/91;  // 1msec, tuned at 80 MHz                          
    1798                    ;----------------------------------------------------------------------
    1799 00000296 2009F641          MOV       A1, #6665             ; [DPU_3_PIPE] |306|  ; [KEEP 32-BIT INS]
    1800 0000029a 9001              STR       A1, [SP, #4]          ; [DPU_3_PIPE] |306|  ; [ORIG 16-BIT INS]
    1801                            .dwpsn  file "../esp8266.c",line 307,column 5,is_stmt,isa 1
    1802                    ;----------------------------------------------------------------------
    1803                    ; 307 | while(time){                                                           
    1804                    ;----------------------------------------------------------------------
    1805 0000029c 9801              LDR       A1, [SP, #4]          ; [DPU_3_PIPE] |307|  ; [ORIG 16-BIT INS]
    1806 0000029e B140              CBZ       A1, ||$C$L30||        ; []  ; [ORIG 16-BIT INS]
    1807                            ; BRANCHCC OCCURS {||$C$L30||}   ; [] |307| 
    1808                    ;* --------------------------------------------------------------------------*
    1809                    ;*   BEGIN LOOP ||$C$L29||
    1810                    ;*
    1811                    ;*   Loop source line                : 307
    1812                    ;*   Loop closing brace source line  : 310
    1813                    ;*   Known Minimum Trip Count        : 1
    1814                    ;*   Known Maximum Trip Count        : 4294967295
    1815                    ;*   Known Max Trip Count Factor     : 1
TI ARM Assembler PC v5.2.4 Thu Sep 17 23:20:49 2015

Tools Copyright (c) 1996-2015 Texas Instruments Incorporated
esp8266.asm                                                          PAGE   34

    1816                    ;* --------------------------------------------------------------------------*
    1817 000002a0           ||$C$L29||:    
    1818                            .dwpsn  file "../esp8266.c",line 308,column 7,is_stmt,isa 1
    1819                    ;----------------------------------------------------------------------
    1820                    ; 308 | time--;                                                                
    1821                    ;----------------------------------------------------------------------
    1822 000002a0 9801              LDR       A1, [SP, #4]          ; [DPU_3_PIPE] |308|  ; [ORIG 16-BIT INS]
    1823 000002a2 1E40              SUBS      A1, A1, #1            ; [DPU_3_PIPE] |308|  ; [ORIG 16-BIT INS]
    1824 000002a4 9001              STR       A1, [SP, #4]          ; [DPU_3_PIPE] |308|  ; [ORIG 16-BIT INS]
    1825                            .dwpsn  file "../esp8266.c",line 309,column 7,is_stmt,isa 1
    1826                    ;----------------------------------------------------------------------
    1827                    ; 309 | if(SearchFound) return;                                                
    1828                    ;----------------------------------------------------------------------
    1829 000002a6 48BE              LDR       A1, $C$CON26          ; [DPU_3_PIPE] |309|  ; [ORIG 16-BIT INS]
    1830 000002a8 7800              LDRB      A1, [A1, #0]          ; [DPU_3_PIPE] |309|  ; [ORIG 16-BIT INS]
    1831 000002aa B940              CBNZ      A1, ||$C$L31||        ; []  ; [ORIG 16-BIT INS]
    1832                            ; BRANCHCC OCCURS {||$C$L31||}   ; [] |309| 
    1833                    ;* --------------------------------------------------------------------------*
    1834                            .dwpsn  file "../esp8266.c",line 309,column 23,is_stmt,isa 1
    1835                            .dwpsn  file "../esp8266.c",line 307,column 5,is_stmt,isa 1
    1836 000002ac 9801              LDR       A1, [SP, #4]          ; [DPU_3_PIPE] |307|  ; [ORIG 16-BIT INS]
    1837 000002ae 2800              CMP       A1, #0                ; [DPU_3_PIPE] |307|  ; [ORIG 16-BIT INS]
    1838 000002b0 D1F6              BNE       ||$C$L29||            ; [DPU_3_PIPE] |307|  ; [ORIG 16-BIT INS]
    1839                            ; BRANCHCC OCCURS {||$C$L29||}   ; [] |307| 
    1840                    ;* --------------------------------------------------------------------------*
    1841 000002b2           ||$C$L30||:    
    1842                            .dwpsn  file "../esp8266.c",line 311,column 5,is_stmt,isa 1
    1843                    ;----------------------------------------------------------------------
    1844                    ; 311 | n--;                                                                   
    1845                    ;----------------------------------------------------------------------
    1846 000002b2 9800              LDR       A1, [SP, #0]          ; [DPU_3_PIPE] |311|  ; [ORIG 16-BIT INS]
    1847 000002b4 1E40              SUBS      A1, A1, #1            ; [DPU_3_PIPE] |311|  ; [ORIG 16-BIT INS]
    1848 000002b6 9000              STR       A1, [SP, #0]          ; [DPU_3_PIPE] |311|  ; [ORIG 16-BIT INS]
    1849                            .dwpsn  file "../esp8266.c",line 305,column 3,is_stmt,isa 1
    1850 000002b8 9800              LDR       A1, [SP, #0]          ; [DPU_3_PIPE] |305|  ; [ORIG 16-BIT INS]
    1851 000002ba 2800              CMP       A1, #0                ; [DPU_3_PIPE] |305|  ; [ORIG 16-BIT INS]
    1852 000002bc D1EB              BNE       ||$C$L28||            ; [DPU_3_PIPE] |305|  ; [ORIG 16-BIT INS]
    1853                            ; BRANCHCC OCCURS {||$C$L28||}   ; [] |305| 
    1854                    ;* --------------------------------------------------------------------------*
    1855                            .dwpsn  file "../esp8266.c",line 313,column 1,is_stmt,isa 1
    1856                    ;* --------------------------------------------------------------------------*
    1857 000002be           ||$C$L31||:    
    1858 000002be B002              ADD       SP, SP, #8            ; [DPU_3_PIPE]  ; [ORIG 16-BIT INS]
    1859                            .dwcfi  cfa_offset, 0
    1860                    $C$DW$86        .dwtag  DW_TAG_TI_branch
    1861                            .dwattr $C$DW$86, DW_AT_low_pc(0x00)
    1862                            .dwattr $C$DW$86, DW_AT_TI_return
    1863 000002c0 4770              BX        LR                    ; [DPU_3_PIPE]  ; [ORIG 16-BIT INS]
    1864                            ; BRANCH OCCURS                  ; [] 
    1865                            .dwattr $C$DW$82, DW_AT_TI_end_file("../esp8266.c")
    1866                            .dwattr $C$DW$82, DW_AT_TI_end_line(0x139)
    1867                            .dwattr $C$DW$82, DW_AT_TI_end_column(0x01)
    1868                            .dwendentry
    1869                            .dwendtag $C$DW$82
    1870                    
TI ARM Assembler PC v5.2.4 Thu Sep 17 23:20:49 2015

Tools Copyright (c) 1996-2015 Texas Instruments Incorporated
esp8266.asm                                                          PAGE   35

    1871                    ;******************************************************************************
    1872                    ;* STRINGS                                                                    *
    1873                    ;******************************************************************************
    1874 000002c2                   .sect   ".text"
    1875                            .align  4
    1876 000002c4 45        ||$C$SL1||:     .string "ESP8266 Initialization:",10,13,0
         000002c5 53       
         000002c6 50       
         000002c7 38       
         000002c8 32       
         000002c9 36       
         000002ca 36       
         000002cb 20       
         000002cc 49       
         000002cd 6E       
         000002ce 69       
         000002cf 74       
         000002d0 69       
         000002d1 61       
         000002d2 6C       
         000002d3 69       
         000002d4 7A       
         000002d5 61       
         000002d6 74       
         000002d7 69       
         000002d8 6F       
         000002d9 6E       
         000002da 3A       
         000002db 0A       
         000002dc 0D       
         000002dd 00       
    1877                            .align  4
    1878 000002e0 52        ||$C$SL2||:     .string "Reset module... ",0
         000002e1 65       
         000002e2 73       
         000002e3 65       
         000002e4 74       
         000002e5 20       
         000002e6 6D       
         000002e7 6F       
         000002e8 64       
         000002e9 75       
         000002ea 6C       
         000002eb 65       
         000002ec 2E       
         000002ed 2E       
         000002ee 2E       
         000002ef 20       
         000002f0 00       
    1879                            .align  4
    1880 000002f4 52        ||$C$SL3||:     .string "Reset failure, could not reset",10,13,0
         000002f5 65       
         000002f6 73       
         000002f7 65       
         000002f8 74       
TI ARM Assembler PC v5.2.4 Thu Sep 17 23:20:49 2015

Tools Copyright (c) 1996-2015 Texas Instruments Incorporated
esp8266.asm                                                          PAGE   36

         000002f9 20       
         000002fa 66       
         000002fb 61       
         000002fc 69       
         000002fd 6C       
         000002fe 75       
         000002ff 72       
         00000300 65       
         00000301 2C       
         00000302 20       
         00000303 63       
         00000304 6F       
         00000305 75       
         00000306 6C       
         00000307 64       
         00000308 20       
         00000309 6E       
         0000030a 6F       
         0000030b 74       
         0000030c 20       
         0000030d 72       
         0000030e 65       
         0000030f 73       
         00000310 65       
         00000311 74       
         00000312 0A       
         00000313 0D       
         00000314 00       
    1881                            .align  4
    1882 00000318 53        ||$C$SL4||:     .string "SetWifiMode, could not set mode",10,13,0
         00000319 65       
         0000031a 74       
         0000031b 57       
         0000031c 69       
         0000031d 66       
         0000031e 69       
         0000031f 4D       
         00000320 6F       
         00000321 64       
         00000322 65       
         00000323 2C       
         00000324 20       
         00000325 63       
         00000326 6F       
         00000327 75       
         00000328 6C       
         00000329 64       
         0000032a 20       
         0000032b 6E       
         0000032c 6F       
         0000032d 74       
         0000032e 20       
         0000032f 73       
         00000330 65       
         00000331 74       
TI ARM Assembler PC v5.2.4 Thu Sep 17 23:20:49 2015

Tools Copyright (c) 1996-2015 Texas Instruments Incorporated
esp8266.asm                                                          PAGE   37

         00000332 20       
         00000333 6D       
         00000334 6F       
         00000335 64       
         00000336 65       
         00000337 0A       
         00000338 0D       
         00000339 00       
    1883                            .align  4
    1884 0000033c 56        ||$C$SL5||:     .string "ValvanoJonathaniPhone",0
         0000033d 61       
         0000033e 6C       
         0000033f 76       
         00000340 61       
         00000341 6E       
         00000342 6F       
         00000343 4A       
         00000344 6F       
         00000345 6E       
         00000346 61       
         00000347 74       
         00000348 68       
         00000349 61       
         0000034a 6E       
         0000034b 69       
         0000034c 50       
         0000034d 68       
         0000034e 6F       
         0000034f 6E       
         00000350 65       
         00000351 00       
    1885                            .align  4
    1886 00000354 79        ||$C$SL6||:     .string "y2uvdjfi5puyd",0
         00000355 32       
         00000356 75       
         00000357 76       
         00000358 64       
         00000359 6A       
         0000035a 66       
         0000035b 69       
         0000035c 35       
         0000035d 70       
         0000035e 75       
         0000035f 79       
         00000360 64       
         00000361 00       
    1887                            .align  4
    1888 00000364 4A        ||$C$SL7||:     .string "JoinAccessPoint error, could not join AP",10,13,0
         00000365 6F       
         00000366 69       
         00000367 6E       
         00000368 41       
         00000369 63       
         0000036a 63       
         0000036b 65       
TI ARM Assembler PC v5.2.4 Thu Sep 17 23:20:49 2015

Tools Copyright (c) 1996-2015 Texas Instruments Incorporated
esp8266.asm                                                          PAGE   38

         0000036c 73       
         0000036d 73       
         0000036e 50       
         0000036f 6F       
         00000370 69       
         00000371 6E       
         00000372 74       
         00000373 20       
         00000374 65       
         00000375 72       
         00000376 72       
         00000377 6F       
         00000378 72       
         00000379 2C       
         0000037a 20       
         0000037b 63       
         0000037c 6F       
         0000037d 75       
         0000037e 6C       
         0000037f 64       
         00000380 20       
         00000381 6E       
         00000382 6F       
         00000383 74       
         00000384 20       
         00000385 6A       
         00000386 6F       
         00000387 69       
         00000388 6E       
         00000389 20       
         0000038a 41       
         0000038b 50       
         0000038c 0A       
         0000038d 0D       
         0000038e 00       
    1889                            .align  4
    1890 00000390 47        ||$C$SL8||:     .string "GetIPAddress error, could not get IP address",10,13,0
         00000391 65       
         00000392 74       
         00000393 49       
         00000394 50       
         00000395 41       
         00000396 64       
         00000397 64       
         00000398 72       
         00000399 65       
         0000039a 73       
         0000039b 73       
         0000039c 20       
         0000039d 65       
         0000039e 72       
         0000039f 72       
         000003a0 6F       
         000003a1 72       
         000003a2 2C       
TI ARM Assembler PC v5.2.4 Thu Sep 17 23:20:49 2015

Tools Copyright (c) 1996-2015 Texas Instruments Incorporated
esp8266.asm                                                          PAGE   39

         000003a3 20       
         000003a4 63       
         000003a5 6F       
         000003a6 75       
         000003a7 6C       
         000003a8 64       
         000003a9 20       
         000003aa 6E       
         000003ab 6F       
         000003ac 74       
         000003ad 20       
         000003ae 67       
         000003af 65       
         000003b0 74       
         000003b1 20       
         000003b2 49       
         000003b3 50       
         000003b4 20       
         000003b5 61       
         000003b6 64       
         000003b7 64       
         000003b8 72       
         000003b9 65       
         000003ba 73       
         000003bb 73       
         000003bc 0A       
         000003bd 0D       
         000003be 00       
    1891                            .align  4
    1892 000003c0 53        ||$C$SL9||:     .string "SetConnectionMux error, could not set connection mux",10,13
         000003c1 65       
         000003c2 74       
         000003c3 43       
         000003c4 6F       
         000003c5 6E       
         000003c6 6E       
         000003c7 65       
         000003c8 63       
         000003c9 74       
         000003ca 69       
         000003cb 6F       
         000003cc 6E       
         000003cd 4D       
         000003ce 75       
         000003cf 78       
         000003d0 20       
         000003d1 65       
         000003d2 72       
         000003d3 72       
         000003d4 6F       
         000003d5 72       
         000003d6 2C       
         000003d7 20       
         000003d8 63       
         000003d9 6F       
TI ARM Assembler PC v5.2.4 Thu Sep 17 23:20:49 2015

Tools Copyright (c) 1996-2015 Texas Instruments Incorporated
esp8266.asm                                                          PAGE   40

         000003da 75       
         000003db 6C       
         000003dc 64       
         000003dd 20       
         000003de 6E       
         000003df 6F       
         000003e0 74       
         000003e1 20       
         000003e2 73       
         000003e3 65       
         000003e4 74       
         000003e5 20       
         000003e6 63       
         000003e7 6F       
         000003e8 6E       
         000003e9 6E       
         000003ea 65       
         000003eb 63       
         000003ec 74       
         000003ed 69       
         000003ee 6F       
         000003ef 6E       
         000003f0 20       
         000003f1 6D       
         000003f2 75       
         000003f3 78       
         000003f4 0A       
         000003f5 0D       
    1893 000003f6 00                .string 0
    1894                            .align  4
    1895 000003f8 4C        ||$C$SL10||:    .string "ListAccessPoints, could not list access points",10,13,0
         000003f9 69       
         000003fa 73       
         000003fb 74       
         000003fc 41       
         000003fd 63       
         000003fe 63       
         000003ff 65       
         00000400 73       
         00000401 73       
         00000402 50       
         00000403 6F       
         00000404 69       
         00000405 6E       
         00000406 74       
         00000407 73       
         00000408 2C       
         00000409 20       
         0000040a 63       
         0000040b 6F       
         0000040c 75       
         0000040d 6C       
         0000040e 64       
         0000040f 20       
         00000410 6E       
TI ARM Assembler PC v5.2.4 Thu Sep 17 23:20:49 2015

Tools Copyright (c) 1996-2015 Texas Instruments Incorporated
esp8266.asm                                                          PAGE   41

         00000411 6F       
         00000412 74       
         00000413 20       
         00000414 6C       
         00000415 69       
         00000416 73       
         00000417 74       
         00000418 20       
         00000419 61       
         0000041a 63       
         0000041b 63       
         0000041c 65       
         0000041d 73       
         0000041e 73       
         0000041f 20       
         00000420 70       
         00000421 6F       
         00000422 69       
         00000423 6E       
         00000424 74       
         00000425 73       
         00000426 0A       
         00000427 0D       
         00000428 00       
    1896                            .align  4
    1897 0000042c 53        ||$C$SL11||:    .string "SetDataTransmissionMode, could not make connection",10,13,0
         0000042d 65       
         0000042e 74       
         0000042f 44       
         00000430 61       
         00000431 74       
         00000432 61       
         00000433 54       
         00000434 72       
         00000435 61       
         00000436 6E       
         00000437 73       
         00000438 6D       
         00000439 69       
         0000043a 73       
         0000043b 73       
         0000043c 69       
         0000043d 6F       
         0000043e 6E       
         0000043f 4D       
         00000440 6F       
         00000441 64       
         00000442 65       
         00000443 2C       
         00000444 20       
         00000445 63       
         00000446 6F       
         00000447 75       
         00000448 6C       
         00000449 64       
TI ARM Assembler PC v5.2.4 Thu Sep 17 23:20:49 2015

Tools Copyright (c) 1996-2015 Texas Instruments Incorporated
esp8266.asm                                                          PAGE   42

         0000044a 20       
         0000044b 6E       
         0000044c 6F       
         0000044d 74       
         0000044e 20       
         0000044f 6D       
         00000450 61       
         00000451 6B       
         00000452 65       
         00000453 20       
         00000454 63       
         00000455 6F       
         00000456 6E       
         00000457 6E       
         00000458 65       
         00000459 63       
         0000045a 74       
         0000045b 69       
         0000045c 6F       
         0000045d 6E       
         0000045e 0A       
         0000045f 0D       
         00000460 00       
    1898                    ;******************************************************************************
    1899                    ;* CONSTANT TABLE                                                             *
    1900                    ;******************************************************************************
    1901 00000461                   .sect   ".text"
    1902                            .align  4
    1903 00000462 0000C046! ||$C$CON18||:   .bits   ESP8266_InputProcessingEnabled,32
         00000466 00000000 
    1904                            .align  4
    1905 00000466 D03C0000  ||$C$CON19||:   .bits   1073795132,32
         0000046a 00004000 
    1906                            .align  4
    1907 0000046a D0444000  ||$C$CON20||:   .bits   1073795140,32
         0000046e 00004000 
    1908                            .align  4
    1909 0000046e D0004000  ||$C$CON21||:   .bits   1073795072,32
         00000472 00004000 
    1910                            .align  4
    1911 00000472 00004000! ||$C$CON22||:   .bits   ESP8266_RXBufferIndex,32
         00000476 00000000 
    1912                            .align  4
    1913 00000476 00000000! ||$C$CON23||:   .bits   ESP8266_RXBuffer,32
         0000047a 00000000 
    1914 0000047c                   .sect   ".text"
    1915                            .clink
    1916                            .thumbfunc ESP8266_Reset
    1917 0000047c                   .thumb
    1918                            .global ESP8266_Reset
    1919                    
    1920                    $C$DW$87        .dwtag  DW_TAG_subprogram, DW_AT_name("ESP8266_Reset")
    1921                            .dwattr $C$DW$87, DW_AT_low_pc(ESP8266_Reset)
    1922                            .dwattr $C$DW$87, DW_AT_high_pc(0x00)
    1923                            .dwattr $C$DW$87, DW_AT_TI_symbol_name("ESP8266_Reset")
TI ARM Assembler PC v5.2.4 Thu Sep 17 23:20:49 2015

Tools Copyright (c) 1996-2015 Texas Instruments Incorporated
esp8266.asm                                                          PAGE   43

    1924                            .dwattr $C$DW$87, DW_AT_external
    1925                            .dwattr $C$DW$87, DW_AT_type(*$C$DW$T$10)
    1926                            .dwattr $C$DW$87, DW_AT_TI_begin_file("../esp8266.c")
    1927                            .dwattr $C$DW$87, DW_AT_TI_begin_line(0x13f)
    1928                            .dwattr $C$DW$87, DW_AT_TI_begin_column(0x05)
    1929                            .dwattr $C$DW$87, DW_AT_decl_file("../esp8266.c")
    1930                            .dwattr $C$DW$87, DW_AT_decl_line(0x13f)
    1931                            .dwattr $C$DW$87, DW_AT_decl_column(0x05)
    1932                            .dwattr $C$DW$87, DW_AT_TI_max_frame_size(0x08)
    1933                            .dwpsn  file "../esp8266.c",line 319,column 20,is_stmt,address ESP8266_Reset,isa 1
    1934                    
    1935                            .dwfde $C$DW$CIE, ESP8266_Reset
    1936                    
    1937                    ;*****************************************************************************
    1938                    ;* FUNCTION NAME: ESP8266_Reset                                              *
    1939                    ;*                                                                           *
    1940                    ;*   Regs Modified     : A1,A2,A3,A4,V9,SP,LR,SR,D0,D0_hi,D1,D1_hi,D2,D2_hi, *
    1941                    ;*                           D3,D3_hi,D4,D4_hi,D5,D5_hi,D6,D6_hi,D7,D7_hi,   *
    1942                    ;*                           FPEXC,FPSCR                                     *
    1943                    ;*   Regs Used         : A1,A2,A3,A4,V9,SP,LR,SR,D0,D0_hi,D1,D1_hi,D2,D2_hi, *
    1944                    ;*                           D3,D3_hi,D4,D4_hi,D5,D5_hi,D6,D6_hi,D7,D7_hi,   *
    1945                    ;*                           FPEXC,FPSCR                                     *
    1946                    ;*   Local Frame Size  : 0 Args + 4 Auto + 4 Save = 8 byte                   *
    1947                    ;*****************************************************************************
    1948 0000047c           ESP8266_Reset:
    1949                    ;* --------------------------------------------------------------------------*
    1950                            .dwcfi  cfa_offset, 0
    1951 0000047c B508              PUSH      {A4, LR}              ; [DPU_3_PIPE]  ; [ORIG 16-BIT INS]
    1952                            .dwcfi  cfa_offset, 8
    1953                            .dwcfi  save_reg_to_mem, 14, -4
    1954                            .dwcfi  save_reg_to_mem, 3, -8
    1955                    $C$DW$88        .dwtag  DW_TAG_variable, DW_AT_name("try")
    1956                            .dwattr $C$DW$88, DW_AT_TI_symbol_name("try")
    1957                            .dwattr $C$DW$88, DW_AT_type(*$C$DW$T$10)
    1958                            .dwattr $C$DW$88, DW_AT_location[DW_OP_breg13 0]
    1959                            .dwpsn  file "../esp8266.c",line 319,column 28,is_stmt,isa 1
    1960                    ;----------------------------------------------------------------------
    1961                    ; 319 | int ESP8266_Reset(){int try=MAXTRY;                                    
    1962                    ;----------------------------------------------------------------------
    1963 0000047e 200A              MOVS      A1, #10               ; [DPU_3_PIPE] |319|  ; [ORIG 16-BIT INS]
    1964 00000480 9000              STR       A1, [SP, #0]          ; [DPU_3_PIPE] |319|  ; [ORIG 16-BIT INS]
    1965                            .dwpsn  file "../esp8266.c",line 320,column 3,is_stmt,isa 1
    1966                    ;----------------------------------------------------------------------
    1967                    ; 320 | strcpy(SearchString, "System Ready");                                  
    1968                    ;----------------------------------------------------------------------
    1969 00000482 4823              LDR       A1, $C$CON24          ; [DPU_3_PIPE] |320|  ; [ORIG 16-BIT INS]
    1970 00000484 A199              ADR       A2, $C$SL12           ; [DPU_3_PIPE] |320|  ; [ORIG 16-BIT INS]
    1971                    $C$DW$89        .dwtag  DW_TAG_TI_branch
    1972                            .dwattr $C$DW$89, DW_AT_low_pc(0x00)
    1973                            .dwattr $C$DW$89, DW_AT_name("strcpy")
    1974                            .dwattr $C$DW$89, DW_AT_TI_call
    1975 00000486 FFFEF7FF!         BL        strcpy                ; [DPU_3_PIPE] |320|  ; [KEEP 32-BIT INS]
    1976                            ; CALL OCCURS {strcpy }          ; [] |320| 
    1977                            .dwpsn  file "../esp8266.c",line 321,column 3,is_stmt,isa 1
    1978                    ;----------------------------------------------------------------------
TI ARM Assembler PC v5.2.4 Thu Sep 17 23:20:49 2015

Tools Copyright (c) 1996-2015 Texas Instruments Incorporated
esp8266.asm                                                          PAGE   44

    1979                    ; 321 | SearchLooking = true;                                                  
    1980                    ;----------------------------------------------------------------------
    1981 0000048a 4994              LDR       A2, $C$CON27          ; [DPU_3_PIPE] |321|  ; [ORIG 16-BIT INS]
    1982 0000048c 2001              MOVS      A1, #1                ; [DPU_3_PIPE] |321|  ; [ORIG 16-BIT INS]
    1983 0000048e 7008              STRB      A1, [A2, #0]          ; [DPU_3_PIPE] |321|  ; [ORIG 16-BIT INS]
    1984                            .dwpsn  file "../esp8266.c",line 322,column 3,is_stmt,isa 1
    1985                    ;----------------------------------------------------------------------
    1986                    ; 322 | SearchFound = false;                                                   
    1987                    ;----------------------------------------------------------------------
    1988 00000490 4943              LDR       A2, $C$CON26          ; [DPU_3_PIPE] |322|  ; [ORIG 16-BIT INS]
    1989 00000492 2000              MOVS      A1, #0                ; [DPU_3_PIPE] |322|  ; [ORIG 16-BIT INS]
    1990 00000494 7008              STRB      A1, [A2, #0]          ; [DPU_3_PIPE] |322|  ; [ORIG 16-BIT INS]
    1991                            .dwpsn  file "../esp8266.c",line 323,column 3,is_stmt,isa 1
    1992                    ;----------------------------------------------------------------------
    1993                    ; 323 | while(try){                                                            
    1994                    ;----------------------------------------------------------------------
    1995 00000496 9800              LDR       A1, [SP, #0]          ; [DPU_3_PIPE] |323|  ; [ORIG 16-BIT INS]
    1996 00000498 B1F0              CBZ       A1, ||$C$L34||        ; []  ; [ORIG 16-BIT INS]
    1997                            ; BRANCHCC OCCURS {||$C$L34||}   ; [] |323| 
    1998                    ;* --------------------------------------------------------------------------*
    1999                    ;*   BEGIN LOOP ||$C$L32||
    2000                    ;*
    2001                    ;*   Loop source line                : 323
    2002                    ;*   Loop closing brace source line  : 331
    2003                    ;*   Known Minimum Trip Count        : 1
    2004                    ;*   Known Maximum Trip Count        : 4294967295
    2005                    ;*   Known Max Trip Count Factor     : 1
    2006                    ;* --------------------------------------------------------------------------*
    2007 0000049a           ||$C$L32||:    
    2008                            .dwpsn  file "../esp8266.c",line 324,column 5,is_stmt,isa 1
    2009                    ;----------------------------------------------------------------------
    2010                    ; 324 | GPIO_PORTB_DATA_R &= ~0x20; // reset low                               
    2011                    ;----------------------------------------------------------------------
    2012 0000049a 497D              LDR       A2, $C$CON28          ; [DPU_3_PIPE] |324|  ; [ORIG 16-BIT INS]
    2013 0000049c 6808              LDR       A1, [A2, #0]          ; [DPU_3_PIPE] |324|  ; [ORIG 16-BIT INS]
    2014 0000049e 0020F020          BIC       A1, A1, #32           ; [DPU_3_PIPE] |324|  ; [KEEP 32-BIT INS]
    2015 000004a2 6008              STR       A1, [A2, #0]          ; [DPU_3_PIPE] |324|  ; [ORIG 16-BIT INS]
    2016                            .dwpsn  file "../esp8266.c",line 325,column 5,is_stmt,isa 1
    2017                    ;----------------------------------------------------------------------
    2018                    ; 325 | DelayMs(10);                                                           
    2019                    ;----------------------------------------------------------------------
    2020 000004a4 200A              MOVS      A1, #10               ; [DPU_3_PIPE] |325|  ; [ORIG 16-BIT INS]
    2021                    $C$DW$90        .dwtag  DW_TAG_TI_branch
    2022                            .dwattr $C$DW$90, DW_AT_low_pc(0x00)
    2023                            .dwattr $C$DW$90, DW_AT_name("DelayMs")
    2024                            .dwattr $C$DW$90, DW_AT_TI_call
    2025 000004a6 FED9F7FF          BL        DelayMs               ; [DPU_3_PIPE] |325|  ; [KEEP 32-BIT INS]
    2026                            ; CALL OCCURS {DelayMs }         ; [] |325| 
    2027                            .dwpsn  file "../esp8266.c",line 326,column 5,is_stmt,isa 1
    2028                    ;----------------------------------------------------------------------
    2029                    ; 326 | GPIO_PORTB_DATA_R |= 0x20; // reset high                               
    2030                    ;----------------------------------------------------------------------
    2031 000004aa 4979              LDR       A2, $C$CON28          ; [DPU_3_PIPE] |326|  ; [ORIG 16-BIT INS]
    2032 000004ac 6808              LDR       A1, [A2, #0]          ; [DPU_3_PIPE] |326|  ; [ORIG 16-BIT INS]
    2033 000004ae 0020F040          ORR       A1, A1, #32           ; [DPU_3_PIPE] |326|  ; [KEEP 32-BIT INS]
TI ARM Assembler PC v5.2.4 Thu Sep 17 23:20:49 2015

Tools Copyright (c) 1996-2015 Texas Instruments Incorporated
esp8266.asm                                                          PAGE   45

    2034 000004b2 6008              STR       A1, [A2, #0]          ; [DPU_3_PIPE] |326|  ; [ORIG 16-BIT INS]
    2035                            .dwpsn  file "../esp8266.c",line 327,column 5,is_stmt,isa 1
    2036                    ;----------------------------------------------------------------------
    2037                    ; 327 | ESP8266SendCommand("AT+RST\r\n");                                      
    2038                    ;----------------------------------------------------------------------
    2039 000004b4 A091              ADR       A1, $C$SL13           ; [DPU_3_PIPE] |327|  ; [ORIG 16-BIT INS]
    2040                    $C$DW$91        .dwtag  DW_TAG_TI_branch
    2041                            .dwattr $C$DW$91, DW_AT_low_pc(0x00)
    2042                            .dwattr $C$DW$91, DW_AT_name("ESP8266SendCommand")
    2043                            .dwattr $C$DW$91, DW_AT_TI_call
    2044 000004b6 FEB9F7FF          BL        ESP8266SendCommand    ; [DPU_3_PIPE] |327|  ; [KEEP 32-BIT INS]
    2045                            ; CALL OCCURS {ESP8266SendCommand }  ; [] |327| 
    2046                            .dwpsn  file "../esp8266.c",line 328,column 5,is_stmt,isa 1
    2047                    ;----------------------------------------------------------------------
    2048                    ; 328 | DelayMsSearching(500);                                                 
    2049                    ;----------------------------------------------------------------------
    2050 000004ba 70FAF44F          MOV       A1, #500              ; [DPU_3_PIPE] |328|  ; [KEEP 32-BIT INS]
    2051                    $C$DW$92        .dwtag  DW_TAG_TI_branch
    2052                            .dwattr $C$DW$92, DW_AT_low_pc(0x00)
    2053                            .dwattr $C$DW$92, DW_AT_name("DelayMsSearching")
    2054                            .dwattr $C$DW$92, DW_AT_TI_call
    2055 000004be FEE5F7FF          BL        DelayMsSearching      ; [DPU_3_PIPE] |328|  ; [KEEP 32-BIT INS]
    2056                            ; CALL OCCURS {DelayMsSearching }  ; [] |328| 
    2057                            .dwpsn  file "../esp8266.c",line 329,column 5,is_stmt,isa 1
    2058                    ;----------------------------------------------------------------------
    2059                    ; 329 | if(SearchFound) return 1; // success                                   
    2060                    ;----------------------------------------------------------------------
    2061 000004c2 4837              LDR       A1, $C$CON26          ; [DPU_3_PIPE] |329|  ; [ORIG 16-BIT INS]
    2062 000004c4 7800              LDRB      A1, [A1, #0]          ; [DPU_3_PIPE] |329|  ; [ORIG 16-BIT INS]
    2063 000004c6 B108              CBZ       A1, ||$C$L33||        ; []  ; [ORIG 16-BIT INS]
    2064                            ; BRANCHCC OCCURS {||$C$L33||}   ; [] |329| 
    2065                    ;* --------------------------------------------------------------------------*
    2066                            .dwpsn  file "../esp8266.c",line 329,column 21,is_stmt,isa 1
    2067 000004c8 2001              MOVS      A1, #1                ; [DPU_3_PIPE] |329|  ; [ORIG 16-BIT INS]
    2068 000004ca E006              B         ||$C$L35||            ; [DPU_3_PIPE] |329|  ; [ORIG 16-BIT INS]
    2069                            ; BRANCH OCCURS {||$C$L35||}     ; [] |329| 
    2070                    ;* --------------------------------------------------------------------------*
    2071 000004cc           ||$C$L33||:    
    2072                            .dwpsn  file "../esp8266.c",line 330,column 5,is_stmt,isa 1
    2073                    ;----------------------------------------------------------------------
    2074                    ; 330 | try--;                                                                 
    2075                    ;----------------------------------------------------------------------
    2076 000004cc 9800              LDR       A1, [SP, #0]          ; [DPU_3_PIPE] |330|  ; [ORIG 16-BIT INS]
    2077 000004ce 1E40              SUBS      A1, A1, #1            ; [DPU_3_PIPE] |330|  ; [ORIG 16-BIT INS]
    2078 000004d0 9000              STR       A1, [SP, #0]          ; [DPU_3_PIPE] |330|  ; [ORIG 16-BIT INS]
    2079                            .dwpsn  file "../esp8266.c",line 323,column 3,is_stmt,isa 1
    2080 000004d2 9800              LDR       A1, [SP, #0]          ; [DPU_3_PIPE] |323|  ; [ORIG 16-BIT INS]
    2081 000004d4 2800              CMP       A1, #0                ; [DPU_3_PIPE] |323|  ; [ORIG 16-BIT INS]
    2082 000004d6 D1E0              BNE       ||$C$L32||            ; [DPU_3_PIPE] |323|  ; [ORIG 16-BIT INS]
    2083                            ; BRANCHCC OCCURS {||$C$L32||}   ; [] |323| 
    2084                    ;* --------------------------------------------------------------------------*
    2085 000004d8           ||$C$L34||:    
    2086                            .dwpsn  file "../esp8266.c",line 332,column 3,is_stmt,isa 1
    2087                    ;----------------------------------------------------------------------
    2088                    ; 332 | return 0; // fail                                                      
TI ARM Assembler PC v5.2.4 Thu Sep 17 23:20:49 2015

Tools Copyright (c) 1996-2015 Texas Instruments Incorporated
esp8266.asm                                                          PAGE   46

    2089                    ;----------------------------------------------------------------------
    2090 000004d8 2000              MOVS      A1, #0                ; [DPU_3_PIPE] |332|  ; [ORIG 16-BIT INS]
    2091                    ;* --------------------------------------------------------------------------*
    2092 000004da           ||$C$L35||:    
    2093                            .dwpsn  file "../esp8266.c",line 333,column 1,is_stmt,isa 1
    2094                    $C$DW$93        .dwtag  DW_TAG_TI_branch
    2095                            .dwattr $C$DW$93, DW_AT_low_pc(0x00)
    2096                            .dwattr $C$DW$93, DW_AT_TI_return
    2097 000004da BD08              POP       {A4, PC}              ; [DPU_3_PIPE]  ; [ORIG 16-BIT INS]
    2098                            .dwcfi  cfa_offset, 0
    2099                            ; BRANCH OCCURS                  ; [] 
    2100                            .dwattr $C$DW$87, DW_AT_TI_end_file("../esp8266.c")
    2101                            .dwattr $C$DW$87, DW_AT_TI_end_line(0x14d)
    2102                            .dwattr $C$DW$87, DW_AT_TI_end_column(0x01)
    2103                            .dwendentry
    2104                            .dwendtag $C$DW$87
    2105                    
    2106                    ;******************************************************************************
    2107                    ;* CONSTANT TABLE                                                             *
    2108                    ;******************************************************************************
    2109 000004dc                   .sect   ".text"
    2110                            .align  4
    2111 000004dc 4000D018  ||$C$CON25||:   .bits   1073795096,32
    2112 000004e0                   .sect   ".text"
    2113                            .clink
    2114                            .thumbfunc ESP8266_SetWifiMode
    2115 000004e0                   .thumb
    2116                            .global ESP8266_SetWifiMode
    2117                    
    2118                    $C$DW$94        .dwtag  DW_TAG_subprogram, DW_AT_name("ESP8266_SetWifiMode")
    2119                            .dwattr $C$DW$94, DW_AT_low_pc(ESP8266_SetWifiMode)
    2120                            .dwattr $C$DW$94, DW_AT_high_pc(0x00)
    2121                            .dwattr $C$DW$94, DW_AT_TI_symbol_name("ESP8266_SetWifiMode")
    2122                            .dwattr $C$DW$94, DW_AT_external
    2123                            .dwattr $C$DW$94, DW_AT_type(*$C$DW$T$10)
    2124                            .dwattr $C$DW$94, DW_AT_TI_begin_file("../esp8266.c")
    2125                            .dwattr $C$DW$94, DW_AT_TI_begin_line(0x153)
    2126                            .dwattr $C$DW$94, DW_AT_TI_begin_column(0x05)
    2127                            .dwattr $C$DW$94, DW_AT_decl_file("../esp8266.c")
    2128                            .dwattr $C$DW$94, DW_AT_decl_line(0x153)
    2129                            .dwattr $C$DW$94, DW_AT_decl_column(0x05)
    2130                            .dwattr $C$DW$94, DW_AT_TI_max_frame_size(0x10)
    2131                            .dwpsn  file "../esp8266.c",line 339,column 38,is_stmt,address ESP8266_SetWifiMode,isa 1
    2132                    
    2133                            .dwfde $C$DW$CIE, ESP8266_SetWifiMode
    2134                    $C$DW$95        .dwtag  DW_TAG_formal_parameter, DW_AT_name("mode")
    2135                            .dwattr $C$DW$95, DW_AT_TI_symbol_name("mode")
    2136                            .dwattr $C$DW$95, DW_AT_type(*$C$DW$T$48)
    2137                            .dwattr $C$DW$95, DW_AT_location[DW_OP_reg0]
    2138                    
    2139                    ;*****************************************************************************
    2140                    ;* FUNCTION NAME: ESP8266_SetWifiMode                                        *
    2141                    ;*                                                                           *
    2142                    ;*   Regs Modified     : A1,A2,A3,A4,V9,SP,LR,SR,D0,D0_hi,D1,D1_hi,D2,D2_hi, *
    2143                    ;*                           D3,D3_hi,D4,D4_hi,D5,D5_hi,D6,D6_hi,D7,D7_hi,   *
TI ARM Assembler PC v5.2.4 Thu Sep 17 23:20:49 2015

Tools Copyright (c) 1996-2015 Texas Instruments Incorporated
esp8266.asm                                                          PAGE   47

    2144                    ;*                           FPEXC,FPSCR                                     *
    2145                    ;*   Regs Used         : A1,A2,A3,A4,V9,SP,LR,SR,D0,D0_hi,D1,D1_hi,D2,D2_hi, *
    2146                    ;*                           D3,D3_hi,D4,D4_hi,D5,D5_hi,D6,D6_hi,D7,D7_hi,   *
    2147                    ;*                           FPEXC,FPSCR                                     *
    2148                    ;*   Local Frame Size  : 0 Args + 8 Auto + 4 Save = 12 byte                  *
    2149                    ;*****************************************************************************
    2150 000004e0           ESP8266_SetWifiMode:
    2151                    ;* --------------------------------------------------------------------------*
    2152                            .dwcfi  cfa_offset, 0
    2153 000004e0 B50E              PUSH      {A2, A3, A4, LR}      ; [DPU_3_PIPE]  ; [ORIG 16-BIT INS]
    2154                            .dwcfi  cfa_offset, 16
    2155                            .dwcfi  save_reg_to_mem, 14, -4
    2156                            .dwcfi  save_reg_to_mem, 3, -8
    2157                            .dwcfi  save_reg_to_mem, 2, -12
    2158                            .dwcfi  save_reg_to_mem, 1, -16
    2159                    $C$DW$96        .dwtag  DW_TAG_variable, DW_AT_name("mode")
    2160                            .dwattr $C$DW$96, DW_AT_TI_symbol_name("mode")
    2161                            .dwattr $C$DW$96, DW_AT_type(*$C$DW$T$48)
    2162                            .dwattr $C$DW$96, DW_AT_location[DW_OP_breg13 0]
    2163                    $C$DW$97        .dwtag  DW_TAG_variable, DW_AT_name("try")
    2164                            .dwattr $C$DW$97, DW_AT_TI_symbol_name("try")
    2165                            .dwattr $C$DW$97, DW_AT_type(*$C$DW$T$10)
    2166                            .dwattr $C$DW$97, DW_AT_location[DW_OP_breg13 4]
    2167                    ;----------------------------------------------------------------------
    2168                    ; 339 | int ESP8266_SetWifiMode(uint8_t mode){int try=MAXTRY;                  
    2169                    ;----------------------------------------------------------------------
    2170 000004e2 0000F88D          STRB      A1, [SP, #0]          ; [DPU_3_PIPE] |339|  ; [KEEP 32-BIT INS]
    2171                            .dwpsn  file "../esp8266.c",line 339,column 46,is_stmt,isa 1
    2172 000004e6 200A              MOVS      A1, #10               ; [DPU_3_PIPE] |339|  ; [ORIG 16-BIT INS]
    2173 000004e8 9001              STR       A1, [SP, #4]          ; [DPU_3_PIPE] |339|  ; [ORIG 16-BIT INS]
    2174                            .dwpsn  file "../esp8266.c",line 340,column 3,is_stmt,isa 1
    2175                    ;----------------------------------------------------------------------
    2176                    ; 340 | if(mode > ESP8266_WIFI_MODE_AP_AND_CLIENT)return 0; // fail            
    2177                    ;----------------------------------------------------------------------
    2178 000004ea 0000F89D          LDRB      A1, [SP, #0]          ; [DPU_3_PIPE] |340|  ; [KEEP 32-BIT INS]
    2179 000004ee 2803              CMP       A1, #3                ; [DPU_3_PIPE] |340|  ; [ORIG 16-BIT INS]
    2180 000004f0 DD01              BLE       ||$C$L36||            ; [DPU_3_PIPE] |340|  ; [ORIG 16-BIT INS]
    2181                            ; BRANCHCC OCCURS {||$C$L36||}   ; [] |340| 
    2182                    ;* --------------------------------------------------------------------------*
    2183                            .dwpsn  file "../esp8266.c",line 340,column 45,is_stmt,isa 1
    2184 000004f2 2000              MOVS      A1, #0                ; [DPU_3_PIPE] |340|  ; [ORIG 16-BIT INS]
    2185 000004f4 E027              B         ||$C$L40||            ; [DPU_3_PIPE] |340|  ; [ORIG 16-BIT INS]
    2186                            ; BRANCH OCCURS {||$C$L40||}     ; [] |340| 
    2187                    ;* --------------------------------------------------------------------------*
    2188 000004f6           ||$C$L36||:    
    2189                            .dwpsn  file "../esp8266.c",line 341,column 3,is_stmt,isa 1
    2190                    ;----------------------------------------------------------------------
    2191                    ; 341 | strcpy(SearchString, "no change");                                     
    2192                    ;----------------------------------------------------------------------
    2193 000004f6 4806              LDR       A1, $C$CON24          ; [DPU_3_PIPE] |341|  ; [ORIG 16-BIT INS]
    2194 000004f8 A1A1              ADR       A2, $C$SL14           ; [DPU_3_PIPE] |341|  ; [ORIG 16-BIT INS]
    2195                    $C$DW$98        .dwtag  DW_TAG_TI_branch
    2196                            .dwattr $C$DW$98, DW_AT_low_pc(0x00)
    2197                            .dwattr $C$DW$98, DW_AT_name("strcpy")
    2198                            .dwattr $C$DW$98, DW_AT_TI_call
TI ARM Assembler PC v5.2.4 Thu Sep 17 23:20:49 2015

Tools Copyright (c) 1996-2015 Texas Instruments Incorporated
esp8266.asm                                                          PAGE   48

    2199 000004fa FFFEF7FF!         BL        strcpy                ; [DPU_3_PIPE] |341|  ; [KEEP 32-BIT INS]
    2200                            ; CALL OCCURS {strcpy }          ; [] |341| 
    2201                            .dwpsn  file "../esp8266.c",line 342,column 3,is_stmt,isa 1
    2202                    ;----------------------------------------------------------------------
    2203                    ; 342 | SearchLooking = true;                                                  
    2204                    ;----------------------------------------------------------------------
    2205 000004fe 4977              LDR       A2, $C$CON27          ; [DPU_3_PIPE] |342|  ; [ORIG 16-BIT INS]
    2206 00000500 2001              MOVS      A1, #1                ; [DPU_3_PIPE] |342|  ; [ORIG 16-BIT INS]
    2207 00000502 7008              STRB      A1, [A2, #0]          ; [DPU_3_PIPE] |342|  ; [ORIG 16-BIT INS]
    2208                            .dwpsn  file "../esp8266.c",line 343,column 3,is_stmt,isa 1
    2209                    ;----------------------------------------------------------------------
    2210                    ; 343 | SearchFound = false;                                                   
    2211                    ;----------------------------------------------------------------------
    2212 00000504 4926              LDR       A2, $C$CON26          ; [DPU_3_PIPE] |343|  ; [ORIG 16-BIT INS]
    2213 00000506 2000              MOVS      A1, #0                ; [DPU_3_PIPE] |343|  ; [ORIG 16-BIT INS]
    2214 00000508 7008              STRB      A1, [A2, #0]          ; [DPU_3_PIPE] |343|  ; [ORIG 16-BIT INS]
    2215                            .dwpsn  file "../esp8266.c",line 344,column 3,is_stmt,isa 1
    2216                    ;----------------------------------------------------------------------
    2217                    ; 344 | while(try){                                                            
    2218                    ;----------------------------------------------------------------------
    2219 0000050a 9801              LDR       A1, [SP, #4]          ; [DPU_3_PIPE] |344|  ; [ORIG 16-BIT INS]
    2220 0000050c B1D0              CBZ       A1, ||$C$L39||        ; []  ; [ORIG 16-BIT INS]
    2221                            ; BRANCHCC OCCURS {||$C$L39||}   ; [] |344| 
    2222                    ;* --------------------------------------------------------------------------*
    2223 0000050e E001              B         ||$C$L37||            ; []  ; [ORIG 16-BIT INS]
    2224                            ; BRANCH OCCURS {||$C$L37||}     ; [] 
    2225                    ;******************************************************************************
    2226                    ;* CONSTANT TABLE                                                             *
    2227                    ;******************************************************************************
    2228 00000510                   .sect   ".text"
    2229                            .align  4
    2230 00000510 00000000! ||$C$CON24||:   .bits   SearchString,32
    2231                    ;* --------------------------------------------------------------------------*
    2232                    ;*   BEGIN LOOP ||$C$L37||
    2233                    ;*
    2234                    ;*   Loop source line                : 344
    2235                    ;*   Loop closing brace source line  : 350
    2236                    ;*   Known Minimum Trip Count        : 1
    2237                    ;*   Known Maximum Trip Count        : 4294967295
    2238                    ;*   Known Max Trip Count Factor     : 1
    2239                    ;* --------------------------------------------------------------------------*
    2240 00000514           ||$C$L37||:    
    2241                            .dwpsn  file "../esp8266.c",line 345,column 5,is_stmt,isa 1
    2242                    ;----------------------------------------------------------------------
    2243                    ; 345 | sprintf((char*)ESP8266_TXBuffer, "AT+CWMODE=%d\r\n", mode);            
    2244                    ;----------------------------------------------------------------------
    2245 00000514 2000F89D          LDRB      A3, [SP, #0]          ; [DPU_3_PIPE] |345|  ; [KEEP 32-BIT INS]
    2246 00000518 4897              LDR       A1, $C$CON29          ; [DPU_3_PIPE] |345|  ; [ORIG 16-BIT INS]
    2247 0000051a A19C              ADR       A2, $C$SL15           ; [DPU_3_PIPE] |345|  ; [ORIG 16-BIT INS]
    2248                    $C$DW$99        .dwtag  DW_TAG_TI_branch
    2249                            .dwattr $C$DW$99, DW_AT_low_pc(0x00)
    2250                            .dwattr $C$DW$99, DW_AT_name("sprintf")
    2251                            .dwattr $C$DW$99, DW_AT_TI_call
    2252 0000051c FFFEF7FF!         BL        sprintf               ; [DPU_3_PIPE] |345|  ; [KEEP 32-BIT INS]
    2253                            ; CALL OCCURS {sprintf }         ; [] |345| 
TI ARM Assembler PC v5.2.4 Thu Sep 17 23:20:49 2015

Tools Copyright (c) 1996-2015 Texas Instruments Incorporated
esp8266.asm                                                          PAGE   49

    2254                            .dwpsn  file "../esp8266.c",line 346,column 5,is_stmt,isa 1
    2255                    ;----------------------------------------------------------------------
    2256                    ; 346 | ESP8266SendCommand((const char*)ESP8266_TXBuffer);                     
    2257                    ;----------------------------------------------------------------------
    2258 00000520 4895              LDR       A1, $C$CON29          ; [DPU_3_PIPE] |346|  ; [ORIG 16-BIT INS]
    2259                    $C$DW$100       .dwtag  DW_TAG_TI_branch
    2260                            .dwattr $C$DW$100, DW_AT_low_pc(0x00)
    2261                            .dwattr $C$DW$100, DW_AT_name("ESP8266SendCommand")
    2262                            .dwattr $C$DW$100, DW_AT_TI_call
    2263 00000522 FE83F7FF          BL        ESP8266SendCommand    ; [DPU_3_PIPE] |346|  ; [KEEP 32-BIT INS]
    2264                            ; CALL OCCURS {ESP8266SendCommand }  ; [] |346| 
    2265                            .dwpsn  file "../esp8266.c",line 347,column 5,is_stmt,isa 1
    2266                    ;----------------------------------------------------------------------
    2267                    ; 347 | DelayMsSearching(5000);                                                
    2268                    ;----------------------------------------------------------------------
    2269 00000526 3088F241          MOV       A1, #5000             ; [DPU_3_PIPE] |347|  ; [KEEP 32-BIT INS]
    2270                    $C$DW$101       .dwtag  DW_TAG_TI_branch
    2271                            .dwattr $C$DW$101, DW_AT_low_pc(0x00)
    2272                            .dwattr $C$DW$101, DW_AT_name("DelayMsSearching")
    2273                            .dwattr $C$DW$101, DW_AT_TI_call
    2274 0000052a FEAFF7FF          BL        DelayMsSearching      ; [DPU_3_PIPE] |347|  ; [KEEP 32-BIT INS]
    2275                            ; CALL OCCURS {DelayMsSearching }  ; [] |347| 
    2276                            .dwpsn  file "../esp8266.c",line 348,column 5,is_stmt,isa 1
    2277                    ;----------------------------------------------------------------------
    2278                    ; 348 | if(SearchFound) return 1; // success                                   
    2279                    ;----------------------------------------------------------------------
    2280 0000052e 481C              LDR       A1, $C$CON26          ; [DPU_3_PIPE] |348|  ; [ORIG 16-BIT INS]
    2281 00000530 7800              LDRB      A1, [A1, #0]          ; [DPU_3_PIPE] |348|  ; [ORIG 16-BIT INS]
    2282 00000532 B108              CBZ       A1, ||$C$L38||        ; []  ; [ORIG 16-BIT INS]
    2283                            ; BRANCHCC OCCURS {||$C$L38||}   ; [] |348| 
    2284                    ;* --------------------------------------------------------------------------*
    2285                            .dwpsn  file "../esp8266.c",line 348,column 21,is_stmt,isa 1
    2286 00000534 2001              MOVS      A1, #1                ; [DPU_3_PIPE] |348|  ; [ORIG 16-BIT INS]
    2287 00000536 E006              B         ||$C$L40||            ; [DPU_3_PIPE] |348|  ; [ORIG 16-BIT INS]
    2288                            ; BRANCH OCCURS {||$C$L40||}     ; [] |348| 
    2289                    ;* --------------------------------------------------------------------------*
    2290 00000538           ||$C$L38||:    
    2291                            .dwpsn  file "../esp8266.c",line 349,column 5,is_stmt,isa 1
    2292                    ;----------------------------------------------------------------------
    2293                    ; 349 | try--;                                                                 
    2294                    ;----------------------------------------------------------------------
    2295 00000538 9801              LDR       A1, [SP, #4]          ; [DPU_3_PIPE] |349|  ; [ORIG 16-BIT INS]
    2296 0000053a 1E40              SUBS      A1, A1, #1            ; [DPU_3_PIPE] |349|  ; [ORIG 16-BIT INS]
    2297 0000053c 9001              STR       A1, [SP, #4]          ; [DPU_3_PIPE] |349|  ; [ORIG 16-BIT INS]
    2298                            .dwpsn  file "../esp8266.c",line 344,column 3,is_stmt,isa 1
    2299 0000053e 9801              LDR       A1, [SP, #4]          ; [DPU_3_PIPE] |344|  ; [ORIG 16-BIT INS]
    2300 00000540 2800              CMP       A1, #0                ; [DPU_3_PIPE] |344|  ; [ORIG 16-BIT INS]
    2301 00000542 D1E7              BNE       ||$C$L37||            ; [DPU_3_PIPE] |344|  ; [ORIG 16-BIT INS]
    2302                            ; BRANCHCC OCCURS {||$C$L37||}   ; [] |344| 
    2303                    ;* --------------------------------------------------------------------------*
    2304 00000544           ||$C$L39||:    
    2305                            .dwpsn  file "../esp8266.c",line 351,column 3,is_stmt,isa 1
    2306                    ;----------------------------------------------------------------------
    2307                    ; 351 | return 0; // fail                                                      
    2308                    ;----------------------------------------------------------------------
TI ARM Assembler PC v5.2.4 Thu Sep 17 23:20:49 2015

Tools Copyright (c) 1996-2015 Texas Instruments Incorporated
esp8266.asm                                                          PAGE   50

    2309 00000544 2000              MOVS      A1, #0                ; [DPU_3_PIPE] |351|  ; [ORIG 16-BIT INS]
    2310                    ;* --------------------------------------------------------------------------*
    2311 00000546           ||$C$L40||:    
    2312                            .dwpsn  file "../esp8266.c",line 352,column 1,is_stmt,isa 1
    2313                    $C$DW$102       .dwtag  DW_TAG_TI_branch
    2314                            .dwattr $C$DW$102, DW_AT_low_pc(0x00)
    2315                            .dwattr $C$DW$102, DW_AT_TI_return
    2316 00000546 BD0E              POP       {A2, A3, A4, PC}      ; [DPU_3_PIPE]  ; [ORIG 16-BIT INS]
    2317                            .dwcfi  cfa_offset, 0
    2318                            ; BRANCH OCCURS                  ; [] 
    2319                            .dwattr $C$DW$94, DW_AT_TI_end_file("../esp8266.c")
    2320                            .dwattr $C$DW$94, DW_AT_TI_end_line(0x160)
    2321                            .dwattr $C$DW$94, DW_AT_TI_end_column(0x01)
    2322                            .dwendentry
    2323                            .dwendtag $C$DW$94
    2324                    
    2325 00000548                   .sect   ".text"
    2326                            .clink
    2327                            .thumbfunc ESP8266_SetConnectionMux
    2328 00000548                   .thumb
    2329                            .global ESP8266_SetConnectionMux
    2330                    
    2331                    $C$DW$103       .dwtag  DW_TAG_subprogram, DW_AT_name("ESP8266_SetConnectionMux")
    2332                            .dwattr $C$DW$103, DW_AT_low_pc(ESP8266_SetConnectionMux)
    2333                            .dwattr $C$DW$103, DW_AT_high_pc(0x00)
    2334                            .dwattr $C$DW$103, DW_AT_TI_symbol_name("ESP8266_SetConnectionMux")
    2335                            .dwattr $C$DW$103, DW_AT_external
    2336                            .dwattr $C$DW$103, DW_AT_type(*$C$DW$T$10)
    2337                            .dwattr $C$DW$103, DW_AT_TI_begin_file("../esp8266.c")
    2338                            .dwattr $C$DW$103, DW_AT_TI_begin_line(0x168)
    2339                            .dwattr $C$DW$103, DW_AT_TI_begin_column(0x05)
    2340                            .dwattr $C$DW$103, DW_AT_decl_file("../esp8266.c")
    2341                            .dwattr $C$DW$103, DW_AT_decl_line(0x168)
    2342                            .dwattr $C$DW$103, DW_AT_decl_column(0x05)
    2343                            .dwattr $C$DW$103, DW_AT_TI_max_frame_size(0x10)
    2344                            .dwpsn  file "../esp8266.c",line 360,column 46,is_stmt,address ESP8266_SetConnectionMux,isa 1
    2345                    
    2346                            .dwfde $C$DW$CIE, ESP8266_SetConnectionMux
    2347                    $C$DW$104       .dwtag  DW_TAG_formal_parameter, DW_AT_name("enabled")
    2348                            .dwattr $C$DW$104, DW_AT_TI_symbol_name("enabled")
    2349                            .dwattr $C$DW$104, DW_AT_type(*$C$DW$T$48)
    2350                            .dwattr $C$DW$104, DW_AT_location[DW_OP_reg0]
    2351                    
    2352                    ;*****************************************************************************
    2353                    ;* FUNCTION NAME: ESP8266_SetConnectionMux                                   *
    2354                    ;*                                                                           *
    2355                    ;*   Regs Modified     : A1,A2,A3,A4,V9,SP,LR,SR,D0,D0_hi,D1,D1_hi,D2,D2_hi, *
    2356                    ;*                           D3,D3_hi,D4,D4_hi,D5,D5_hi,D6,D6_hi,D7,D7_hi,   *
    2357                    ;*                           FPEXC,FPSCR                                     *
    2358                    ;*   Regs Used         : A1,A2,A3,A4,V9,SP,LR,SR,D0,D0_hi,D1,D1_hi,D2,D2_hi, *
    2359                    ;*                           D3,D3_hi,D4,D4_hi,D5,D5_hi,D6,D6_hi,D7,D7_hi,   *
    2360                    ;*                           FPEXC,FPSCR                                     *
    2361                    ;*   Local Frame Size  : 0 Args + 8 Auto + 4 Save = 12 byte                  *
    2362                    ;*****************************************************************************
    2363 00000548           ESP8266_SetConnectionMux:
TI ARM Assembler PC v5.2.4 Thu Sep 17 23:20:49 2015

Tools Copyright (c) 1996-2015 Texas Instruments Incorporated
esp8266.asm                                                          PAGE   51

    2364                    ;* --------------------------------------------------------------------------*
    2365                            .dwcfi  cfa_offset, 0
    2366 00000548 B50E              PUSH      {A2, A3, A4, LR}      ; [DPU_3_PIPE]  ; [ORIG 16-BIT INS]
    2367                            .dwcfi  cfa_offset, 16
    2368                            .dwcfi  save_reg_to_mem, 14, -4
    2369                            .dwcfi  save_reg_to_mem, 3, -8
    2370                            .dwcfi  save_reg_to_mem, 2, -12
    2371                            .dwcfi  save_reg_to_mem, 1, -16
    2372                    $C$DW$105       .dwtag  DW_TAG_variable, DW_AT_name("enabled")
    2373                            .dwattr $C$DW$105, DW_AT_TI_symbol_name("enabled")
    2374                            .dwattr $C$DW$105, DW_AT_type(*$C$DW$T$48)
    2375                            .dwattr $C$DW$105, DW_AT_location[DW_OP_breg13 0]
    2376                    $C$DW$106       .dwtag  DW_TAG_variable, DW_AT_name("try")
    2377                            .dwattr $C$DW$106, DW_AT_TI_symbol_name("try")
    2378                            .dwattr $C$DW$106, DW_AT_type(*$C$DW$T$10)
    2379                            .dwattr $C$DW$106, DW_AT_location[DW_OP_breg13 4]
    2380                    ;----------------------------------------------------------------------
    2381                    ; 360 | int ESP8266_SetConnectionMux(uint8_t enabled){                         
    2382                    ;----------------------------------------------------------------------
    2383 0000054a 0000F88D          STRB      A1, [SP, #0]          ; [DPU_3_PIPE] |360|  ; [KEEP 32-BIT INS]
    2384                            .dwpsn  file "../esp8266.c",line 361,column 10,is_stmt,isa 1
    2385                    ;----------------------------------------------------------------------
    2386                    ; 361 | int try=MAXTRY;                                                        
    2387                    ;----------------------------------------------------------------------
    2388 0000054e 200A              MOVS      A1, #10               ; [DPU_3_PIPE] |361|  ; [ORIG 16-BIT INS]
    2389 00000550 9001              STR       A1, [SP, #4]          ; [DPU_3_PIPE] |361|  ; [ORIG 16-BIT INS]
    2390                            .dwpsn  file "../esp8266.c",line 362,column 3,is_stmt,isa 1
    2391                    ;----------------------------------------------------------------------
    2392                    ; 362 | strcpy(SearchString, "OK");                                            
    2393                    ;----------------------------------------------------------------------
    2394 00000552 488A              LDR       A1, $C$CON30          ; [DPU_3_PIPE] |362|  ; [ORIG 16-BIT INS]
    2395 00000554 A191              ADR       A2, $C$SL16           ; [DPU_3_PIPE] |362|  ; [ORIG 16-BIT INS]
    2396                    $C$DW$107       .dwtag  DW_TAG_TI_branch
    2397                            .dwattr $C$DW$107, DW_AT_low_pc(0x00)
    2398                            .dwattr $C$DW$107, DW_AT_name("strcpy")
    2399                            .dwattr $C$DW$107, DW_AT_TI_call
    2400 00000556 FFFEF7FF!         BL        strcpy                ; [DPU_3_PIPE] |362|  ; [KEEP 32-BIT INS]
    2401                            ; CALL OCCURS {strcpy }          ; [] |362| 
    2402                            .dwpsn  file "../esp8266.c",line 363,column 3,is_stmt,isa 1
    2403                    ;----------------------------------------------------------------------
    2404                    ; 363 | SearchLooking = true;                                                  
    2405                    ;----------------------------------------------------------------------
    2406 0000055a 4960              LDR       A2, $C$CON27          ; [DPU_3_PIPE] |363|  ; [ORIG 16-BIT INS]
    2407 0000055c 2001              MOVS      A1, #1                ; [DPU_3_PIPE] |363|  ; [ORIG 16-BIT INS]
    2408 0000055e 7008              STRB      A1, [A2, #0]          ; [DPU_3_PIPE] |363|  ; [ORIG 16-BIT INS]
    2409                            .dwpsn  file "../esp8266.c",line 364,column 3,is_stmt,isa 1
    2410                    ;----------------------------------------------------------------------
    2411                    ; 364 | SearchFound = false;                                                   
    2412                    ;----------------------------------------------------------------------
    2413 00000560 490F              LDR       A2, $C$CON26          ; [DPU_3_PIPE] |364|  ; [ORIG 16-BIT INS]
    2414 00000562 2000              MOVS      A1, #0                ; [DPU_3_PIPE] |364|  ; [ORIG 16-BIT INS]
    2415 00000564 7008              STRB      A1, [A2, #0]          ; [DPU_3_PIPE] |364|  ; [ORIG 16-BIT INS]
    2416                            .dwpsn  file "../esp8266.c",line 365,column 3,is_stmt,isa 1
    2417                    ;----------------------------------------------------------------------
    2418                    ; 365 | while(try){                                                            
TI ARM Assembler PC v5.2.4 Thu Sep 17 23:20:49 2015

Tools Copyright (c) 1996-2015 Texas Instruments Incorporated
esp8266.asm                                                          PAGE   52

    2419                    ;----------------------------------------------------------------------
    2420 00000566 9801              LDR       A1, [SP, #4]          ; [DPU_3_PIPE] |365|  ; [ORIG 16-BIT INS]
    2421 00000568 B1B8              CBZ       A1, ||$C$L43||        ; []  ; [ORIG 16-BIT INS]
    2422                            ; BRANCHCC OCCURS {||$C$L43||}   ; [] |365| 
    2423                    ;* --------------------------------------------------------------------------*
    2424                    ;*   BEGIN LOOP ||$C$L41||
    2425                    ;*
    2426                    ;*   Loop source line                : 365
    2427                    ;*   Loop closing brace source line  : 371
    2428                    ;*   Known Minimum Trip Count        : 1
    2429                    ;*   Known Maximum Trip Count        : 4294967295
    2430                    ;*   Known Max Trip Count Factor     : 1
    2431                    ;* --------------------------------------------------------------------------*
    2432 0000056a           ||$C$L41||:    
    2433                            .dwpsn  file "../esp8266.c",line 366,column 5,is_stmt,isa 1
    2434                    ;----------------------------------------------------------------------
    2435                    ; 366 | sprintf((char*)ESP8266_TXBuffer, "AT+CIPMUX=%d\r\n", enabled);         
    2436                    ;----------------------------------------------------------------------
    2437 0000056a 2000F89D          LDRB      A3, [SP, #0]          ; [DPU_3_PIPE] |366|  ; [KEEP 32-BIT INS]
    2438 0000056e 4882              LDR       A1, $C$CON29          ; [DPU_3_PIPE] |366|  ; [ORIG 16-BIT INS]
    2439 00000570 A18B              ADR       A2, $C$SL17           ; [DPU_3_PIPE] |366|  ; [ORIG 16-BIT INS]
    2440                    $C$DW$108       .dwtag  DW_TAG_TI_branch
    2441                            .dwattr $C$DW$108, DW_AT_low_pc(0x00)
    2442                            .dwattr $C$DW$108, DW_AT_name("sprintf")
    2443                            .dwattr $C$DW$108, DW_AT_TI_call
    2444 00000572 FFFEF7FF!         BL        sprintf               ; [DPU_3_PIPE] |366|  ; [KEEP 32-BIT INS]
    2445                            ; CALL OCCURS {sprintf }         ; [] |366| 
    2446                            .dwpsn  file "../esp8266.c",line 367,column 5,is_stmt,isa 1
    2447                    ;----------------------------------------------------------------------
    2448                    ; 367 | ESP8266SendCommand((const char*)ESP8266_TXBuffer);                     
    2449                    ;----------------------------------------------------------------------
    2450 00000576 4880              LDR       A1, $C$CON29          ; [DPU_3_PIPE] |367|  ; [ORIG 16-BIT INS]
    2451                    $C$DW$109       .dwtag  DW_TAG_TI_branch
    2452                            .dwattr $C$DW$109, DW_AT_low_pc(0x00)
    2453                            .dwattr $C$DW$109, DW_AT_name("ESP8266SendCommand")
    2454                            .dwattr $C$DW$109, DW_AT_TI_call
    2455 00000578 FE58F7FF          BL        ESP8266SendCommand    ; [DPU_3_PIPE] |367|  ; [KEEP 32-BIT INS]
    2456                            ; CALL OCCURS {ESP8266SendCommand }  ; [] |367| 
    2457                            .dwpsn  file "../esp8266.c",line 368,column 5,is_stmt,isa 1
    2458                    ;----------------------------------------------------------------------
    2459                    ; 368 | DelayMsSearching(5000);                                                
    2460                    ;----------------------------------------------------------------------
    2461 0000057c 3088F241          MOV       A1, #5000             ; [DPU_3_PIPE] |368|  ; [KEEP 32-BIT INS]
    2462                    $C$DW$110       .dwtag  DW_TAG_TI_branch
    2463                            .dwattr $C$DW$110, DW_AT_low_pc(0x00)
    2464                            .dwattr $C$DW$110, DW_AT_name("DelayMsSearching")
    2465                            .dwattr $C$DW$110, DW_AT_TI_call
    2466 00000580 FE84F7FF          BL        DelayMsSearching      ; [DPU_3_PIPE] |368|  ; [KEEP 32-BIT INS]
    2467                            ; CALL OCCURS {DelayMsSearching }  ; [] |368| 
    2468                            .dwpsn  file "../esp8266.c",line 369,column 5,is_stmt,isa 1
    2469                    ;----------------------------------------------------------------------
    2470                    ; 369 | if(SearchFound) return 1; // success                                   
    2471                    ;----------------------------------------------------------------------
    2472 00000584 4806              LDR       A1, $C$CON26          ; [DPU_3_PIPE] |369|  ; [ORIG 16-BIT INS]
    2473 00000586 7800              LDRB      A1, [A1, #0]          ; [DPU_3_PIPE] |369|  ; [ORIG 16-BIT INS]
TI ARM Assembler PC v5.2.4 Thu Sep 17 23:20:49 2015

Tools Copyright (c) 1996-2015 Texas Instruments Incorporated
esp8266.asm                                                          PAGE   53

    2474 00000588 B108              CBZ       A1, ||$C$L42||        ; []  ; [ORIG 16-BIT INS]
    2475                            ; BRANCHCC OCCURS {||$C$L42||}   ; [] |369| 
    2476                    ;* --------------------------------------------------------------------------*
    2477                            .dwpsn  file "../esp8266.c",line 369,column 21,is_stmt,isa 1
    2478 0000058a 2001              MOVS      A1, #1                ; [DPU_3_PIPE] |369|  ; [ORIG 16-BIT INS]
    2479 0000058c E006              B         ||$C$L44||            ; [DPU_3_PIPE] |369|  ; [ORIG 16-BIT INS]
    2480                            ; BRANCH OCCURS {||$C$L44||}     ; [] |369| 
    2481                    ;* --------------------------------------------------------------------------*
    2482 0000058e           ||$C$L42||:    
    2483                            .dwpsn  file "../esp8266.c",line 370,column 5,is_stmt,isa 1
    2484                    ;----------------------------------------------------------------------
    2485                    ; 370 | try--;                                                                 
    2486                    ;----------------------------------------------------------------------
    2487 0000058e 9801              LDR       A1, [SP, #4]          ; [DPU_3_PIPE] |370|  ; [ORIG 16-BIT INS]
    2488 00000590 1E40              SUBS      A1, A1, #1            ; [DPU_3_PIPE] |370|  ; [ORIG 16-BIT INS]
    2489 00000592 9001              STR       A1, [SP, #4]          ; [DPU_3_PIPE] |370|  ; [ORIG 16-BIT INS]
    2490                            .dwpsn  file "../esp8266.c",line 365,column 3,is_stmt,isa 1
    2491 00000594 9801              LDR       A1, [SP, #4]          ; [DPU_3_PIPE] |365|  ; [ORIG 16-BIT INS]
    2492 00000596 2800              CMP       A1, #0                ; [DPU_3_PIPE] |365|  ; [ORIG 16-BIT INS]
    2493 00000598 D1E7              BNE       ||$C$L41||            ; [DPU_3_PIPE] |365|  ; [ORIG 16-BIT INS]
    2494                            ; BRANCHCC OCCURS {||$C$L41||}   ; [] |365| 
    2495                    ;* --------------------------------------------------------------------------*
    2496 0000059a           ||$C$L43||:    
    2497                            .dwpsn  file "../esp8266.c",line 372,column 3,is_stmt,isa 1
    2498                    ;----------------------------------------------------------------------
    2499                    ; 372 | return 0; // fail                                                      
    2500                    ;----------------------------------------------------------------------
    2501 0000059a 2000              MOVS      A1, #0                ; [DPU_3_PIPE] |372|  ; [ORIG 16-BIT INS]
    2502                    ;* --------------------------------------------------------------------------*
    2503 0000059c           ||$C$L44||:    
    2504                            .dwpsn  file "../esp8266.c",line 373,column 1,is_stmt,isa 1
    2505                    $C$DW$111       .dwtag  DW_TAG_TI_branch
    2506                            .dwattr $C$DW$111, DW_AT_low_pc(0x00)
    2507                            .dwattr $C$DW$111, DW_AT_TI_return
    2508 0000059c BD0E              POP       {A2, A3, A4, PC}      ; [DPU_3_PIPE]  ; [ORIG 16-BIT INS]
    2509                            .dwcfi  cfa_offset, 0
    2510                            ; BRANCH OCCURS                  ; [] 
    2511                            .dwattr $C$DW$103, DW_AT_TI_end_file("../esp8266.c")
    2512                            .dwattr $C$DW$103, DW_AT_TI_end_line(0x175)
    2513                            .dwattr $C$DW$103, DW_AT_TI_end_column(0x01)
    2514                            .dwendentry
    2515                            .dwendtag $C$DW$103
    2516                    
    2517                    ;******************************************************************************
    2518                    ;* CONSTANT TABLE                                                             *
    2519                    ;******************************************************************************
    2520 0000059e                   .sect   ".text"
    2521                            .align  4
    2522 0000059e 000046C0! ||$C$CON26||:   .bits   SearchFound,32
         000005a2 00000000 
    2523 000005a4                   .sect   ".text"
    2524                            .clink
    2525                            .thumbfunc ESP8266_SetServerTimeout
    2526 000005a4                   .thumb
    2527                            .global ESP8266_SetServerTimeout
TI ARM Assembler PC v5.2.4 Thu Sep 17 23:20:49 2015

Tools Copyright (c) 1996-2015 Texas Instruments Incorporated
esp8266.asm                                                          PAGE   54

    2528                    
    2529                    $C$DW$112       .dwtag  DW_TAG_subprogram, DW_AT_name("ESP8266_SetServerTimeout")
    2530                            .dwattr $C$DW$112, DW_AT_low_pc(ESP8266_SetServerTimeout)
    2531                            .dwattr $C$DW$112, DW_AT_high_pc(0x00)
    2532                            .dwattr $C$DW$112, DW_AT_TI_symbol_name("ESP8266_SetServerTimeout")
    2533                            .dwattr $C$DW$112, DW_AT_external
    2534                            .dwattr $C$DW$112, DW_AT_TI_begin_file("../esp8266.c")
    2535                            .dwattr $C$DW$112, DW_AT_TI_begin_line(0x17e)
    2536                            .dwattr $C$DW$112, DW_AT_TI_begin_column(0x06)
    2537                            .dwattr $C$DW$112, DW_AT_decl_file("../esp8266.c")
    2538                            .dwattr $C$DW$112, DW_AT_decl_line(0x17e)
    2539                            .dwattr $C$DW$112, DW_AT_decl_column(0x06)
    2540                            .dwattr $C$DW$112, DW_AT_TI_max_frame_size(0x08)
    2541                            .dwpsn  file "../esp8266.c",line 382,column 48,is_stmt,address ESP8266_SetServerTimeout,isa 1
    2542                    
    2543                            .dwfde $C$DW$CIE, ESP8266_SetServerTimeout
    2544                    $C$DW$113       .dwtag  DW_TAG_formal_parameter, DW_AT_name("timeout")
    2545                            .dwattr $C$DW$113, DW_AT_TI_symbol_name("timeout")
    2546                            .dwattr $C$DW$113, DW_AT_type(*$C$DW$T$42)
    2547                            .dwattr $C$DW$113, DW_AT_location[DW_OP_reg0]
    2548                    
    2549                    ;*****************************************************************************
    2550                    ;* FUNCTION NAME: ESP8266_SetServerTimeout                                   *
    2551                    ;*                                                                           *
    2552                    ;*   Regs Modified     : A1,A2,A3,A4,V9,SP,LR,SR,D0,D0_hi,D1,D1_hi,D2,D2_hi, *
    2553                    ;*                           D3,D3_hi,D4,D4_hi,D5,D5_hi,D6,D6_hi,D7,D7_hi,   *
    2554                    ;*                           FPEXC,FPSCR                                     *
    2555                    ;*   Regs Used         : A1,A2,A3,A4,V9,SP,LR,SR,D0,D0_hi,D1,D1_hi,D2,D2_hi, *
    2556                    ;*                           D3,D3_hi,D4,D4_hi,D5,D5_hi,D6,D6_hi,D7,D7_hi,   *
    2557                    ;*                           FPEXC,FPSCR                                     *
    2558                    ;*   Local Frame Size  : 0 Args + 4 Auto + 4 Save = 8 byte                   *
    2559                    ;*****************************************************************************
    2560 000005a4           ESP8266_SetServerTimeout:
    2561                    ;* --------------------------------------------------------------------------*
    2562                            .dwcfi  cfa_offset, 0
    2563 000005a4 B508              PUSH      {A4, LR}              ; [DPU_3_PIPE]  ; [ORIG 16-BIT INS]
    2564                            .dwcfi  cfa_offset, 8
    2565                            .dwcfi  save_reg_to_mem, 14, -4
    2566                            .dwcfi  save_reg_to_mem, 3, -8
    2567                    $C$DW$114       .dwtag  DW_TAG_variable, DW_AT_name("timeout")
    2568                            .dwattr $C$DW$114, DW_AT_TI_symbol_name("timeout")
    2569                            .dwattr $C$DW$114, DW_AT_type(*$C$DW$T$42)
    2570                            .dwattr $C$DW$114, DW_AT_location[DW_OP_breg13 0]
    2571                    ;----------------------------------------------------------------------
    2572                    ; 382 | void ESP8266_SetServerTimeout(uint16_t timeout){                       
    2573                    ;----------------------------------------------------------------------
    2574 000005a6 0000F8AD          STRH      A1, [SP, #0]          ; [DPU_3_PIPE] |382|  ; [KEEP 32-BIT INS]
    2575                            .dwpsn  file "../esp8266.c",line 383,column 3,is_stmt,isa 1
    2576                    ;----------------------------------------------------------------------
    2577                    ; 383 | ESP8266_ServerTimeout = timeout;                                       
    2578                    ;----------------------------------------------------------------------
    2579 000005aa 4981              LDR       A2, $C$CON31          ; [DPU_3_PIPE] |383|  ; [ORIG 16-BIT INS]
    2580 000005ac 0000F8BD          LDRH      A1, [SP, #0]          ; [DPU_3_PIPE] |383|  ; [KEEP 32-BIT INS]
    2581 000005b0 8008              STRH      A1, [A2, #0]          ; [DPU_3_PIPE] |383|  ; [ORIG 16-BIT INS]
    2582                            .dwpsn  file "../esp8266.c",line 384,column 3,is_stmt,isa 1
TI ARM Assembler PC v5.2.4 Thu Sep 17 23:20:49 2015

Tools Copyright (c) 1996-2015 Texas Instruments Incorporated
esp8266.asm                                                          PAGE   55

    2583                    ;----------------------------------------------------------------------
    2584                    ; 384 | sprintf((char*)ESP8266_TXBuffer, "AT+CIPSTO=%d\r\n", ESP8266_ServerTime
    2585                    ;     | out);                                                                  
    2586                    ;----------------------------------------------------------------------
    2587 000005b2 487F              LDR       A1, $C$CON31          ; [DPU_3_PIPE] |384|  ; [ORIG 16-BIT INS]
    2588 000005b4 8802              LDRH      A3, [A1, #0]          ; [DPU_3_PIPE] |384|  ; [ORIG 16-BIT INS]
    2589 000005b6 4870              LDR       A1, $C$CON29          ; [DPU_3_PIPE] |384|  ; [ORIG 16-BIT INS]
    2590 000005b8 A1A6              ADR       A2, $C$SL18           ; [DPU_3_PIPE] |384|  ; [ORIG 16-BIT INS]
    2591                    $C$DW$115       .dwtag  DW_TAG_TI_branch
    2592                            .dwattr $C$DW$115, DW_AT_low_pc(0x00)
    2593                            .dwattr $C$DW$115, DW_AT_name("sprintf")
    2594                            .dwattr $C$DW$115, DW_AT_TI_call
    2595 000005ba FFFEF7FF!         BL        sprintf               ; [DPU_3_PIPE] |384|  ; [KEEP 32-BIT INS]
    2596                            ; CALL OCCURS {sprintf }         ; [] |384| 
    2597                            .dwpsn  file "../esp8266.c",line 385,column 3,is_stmt,isa 1
    2598                    ;----------------------------------------------------------------------
    2599                    ; 385 | ESP8266SendCommand((const char*)ESP8266_TXBuffer);                     
    2600                    ;----------------------------------------------------------------------
    2601 000005be 486E              LDR       A1, $C$CON29          ; [DPU_3_PIPE] |385|  ; [ORIG 16-BIT INS]
    2602                    $C$DW$116       .dwtag  DW_TAG_TI_branch
    2603                            .dwattr $C$DW$116, DW_AT_low_pc(0x00)
    2604                            .dwattr $C$DW$116, DW_AT_name("ESP8266SendCommand")
    2605                            .dwattr $C$DW$116, DW_AT_TI_call
    2606 000005c0 FE34F7FF          BL        ESP8266SendCommand    ; [DPU_3_PIPE] |385|  ; [KEEP 32-BIT INS]
    2607                            ; CALL OCCURS {ESP8266SendCommand }  ; [] |385| 
    2608                            .dwpsn  file "../esp8266.c",line 386,column 1,is_stmt,isa 1
    2609                    $C$DW$117       .dwtag  DW_TAG_TI_branch
    2610                            .dwattr $C$DW$117, DW_AT_low_pc(0x00)
    2611                            .dwattr $C$DW$117, DW_AT_TI_return
    2612 000005c4 BD08              POP       {A4, PC}              ; [DPU_3_PIPE]  ; [ORIG 16-BIT INS]
    2613                            .dwcfi  cfa_offset, 0
    2614                            ; BRANCH OCCURS                  ; [] 
    2615                            .dwattr $C$DW$112, DW_AT_TI_end_file("../esp8266.c")
    2616                            .dwattr $C$DW$112, DW_AT_TI_end_line(0x182)
    2617                            .dwattr $C$DW$112, DW_AT_TI_end_column(0x01)
    2618                            .dwendentry
    2619                            .dwendtag $C$DW$112
    2620                    
    2621 000005c6                   .sect   ".text"
    2622                            .clink
    2623                            .thumbfunc ESP8266_EnableServer
    2624 000005c6                   .thumb
    2625                            .global ESP8266_EnableServer
    2626                    
    2627                    $C$DW$118       .dwtag  DW_TAG_subprogram, DW_AT_name("ESP8266_EnableServer")
    2628                            .dwattr $C$DW$118, DW_AT_low_pc(ESP8266_EnableServer)
    2629                            .dwattr $C$DW$118, DW_AT_high_pc(0x00)
    2630                            .dwattr $C$DW$118, DW_AT_TI_symbol_name("ESP8266_EnableServer")
    2631                            .dwattr $C$DW$118, DW_AT_external
