;******************************************************************************
;* TI ARM C/C++ Codegen                                             PC v5.2.4 *
;* Date/Time created: Thu Sep 17 23:20:50 2015                                *
;******************************************************************************
	.compiler_opts --abi=eabi --arm_vmrs_si_workaround=off --code_state=16 --diag_wrap=off --disable_dual_state --embedded_constants=on --endian=little --float_support=FPv4SPD16 --hll_source=on --object_format=elf --silicon_version=7M4 --symdebug:dwarf --symdebug:dwarf_version=3 --unaligned_access=on 
	.thumb

$C$DW$CU	.dwtag  DW_TAG_compile_unit
	.dwattr $C$DW$CU, DW_AT_name("../http.c")
	.dwattr $C$DW$CU, DW_AT_producer("TI TI ARM C/C++ Codegen PC v5.2.4 Copyright (c) 1996-2015 Texas Instruments Incorporated")
	.dwattr $C$DW$CU, DW_AT_TI_version(0x01)
	.dwattr $C$DW$CU, DW_AT_comp_dir("C:\Dropbox\ArmBook\LaunchPad\ValvanoWareTM4C123\ESP8266_4C123\Debug")

$C$DW$1	.dwtag  DW_TAG_subprogram, DW_AT_name("__builtin_strlen")
	.dwattr $C$DW$1, DW_AT_TI_symbol_name("__builtin_strlen")
	.dwattr $C$DW$1, DW_AT_type(*$C$DW$T$11)
	.dwattr $C$DW$1, DW_AT_declaration
	.dwattr $C$DW$1, DW_AT_external
$C$DW$2	.dwtag  DW_TAG_formal_parameter
	.dwattr $C$DW$2, DW_AT_type(*$C$DW$T$34)
	.dwendtag $C$DW$1


$C$DW$3	.dwtag  DW_TAG_subprogram, DW_AT_name("strlen")
	.dwattr $C$DW$3, DW_AT_TI_symbol_name("strlen")
	.dwattr $C$DW$3, DW_AT_type(*$C$DW$T$68)
	.dwattr $C$DW$3, DW_AT_declaration
	.dwattr $C$DW$3, DW_AT_external
	.dwattr $C$DW$3, DW_AT_decl_file("C:/ti/ccsv6/tools/compiler/ti-cgt-arm_5.2.4/include/string.h")
	.dwattr $C$DW$3, DW_AT_decl_line(0x4f)
	.dwattr $C$DW$3, DW_AT_decl_column(0x14)
$C$DW$4	.dwtag  DW_TAG_formal_parameter
	.dwattr $C$DW$4, DW_AT_type(*$C$DW$T$34)
	.dwendtag $C$DW$3


$C$DW$5	.dwtag  DW_TAG_subprogram, DW_AT_name("sprintf")
	.dwattr $C$DW$5, DW_AT_TI_symbol_name("sprintf")
	.dwattr $C$DW$5, DW_AT_type(*$C$DW$T$10)
	.dwattr $C$DW$5, DW_AT_declaration
	.dwattr $C$DW$5, DW_AT_external
	.dwattr $C$DW$5, DW_AT_decl_file("C:/ti/ccsv6/tools/compiler/ti-cgt-arm_5.2.4/include/stdio.h")
	.dwattr $C$DW$5, DW_AT_decl_line(0xf9)
	.dwattr $C$DW$5, DW_AT_decl_column(0x19)
$C$DW$6	.dwtag  DW_TAG_formal_parameter
	.dwattr $C$DW$6, DW_AT_type(*$C$DW$T$54)
$C$DW$7	.dwtag  DW_TAG_formal_parameter
	.dwattr $C$DW$7, DW_AT_type(*$C$DW$T$34)
$C$DW$8	.dwtag  DW_TAG_unspecified_parameters
	.dwendtag $C$DW$5


$C$DW$9	.dwtag  DW_TAG_subprogram, DW_AT_name("DelayMs")
	.dwattr $C$DW$9, DW_AT_TI_symbol_name("DelayMs")
	.dwattr $C$DW$9, DW_AT_declaration
	.dwattr $C$DW$9, DW_AT_external
	.dwattr $C$DW$9, DW_AT_decl_file("../http.c")
	.dwattr $C$DW$9, DW_AT_decl_line(0x37)
	.dwattr $C$DW$9, DW_AT_decl_column(0x06)
$C$DW$10	.dwtag  DW_TAG_formal_parameter
	.dwattr $C$DW$10, DW_AT_type(*$C$DW$T$29)
	.dwendtag $C$DW$9


$C$DW$11	.dwtag  DW_TAG_subprogram, DW_AT_name("ESP8266SendCommand")
	.dwattr $C$DW$11, DW_AT_TI_symbol_name("ESP8266SendCommand")
	.dwattr $C$DW$11, DW_AT_declaration
	.dwattr $C$DW$11, DW_AT_external
	.dwattr $C$DW$11, DW_AT_decl_file("../http.c")
	.dwattr $C$DW$11, DW_AT_decl_line(0x3b)
	.dwattr $C$DW$11, DW_AT_decl_column(0x06)
$C$DW$12	.dwtag  DW_TAG_formal_parameter
	.dwattr $C$DW$12, DW_AT_type(*$C$DW$T$34)
	.dwendtag $C$DW$11

$C$DW$13	.dwtag  DW_TAG_variable, DW_AT_name("ESP8266_TXBuffer")
	.dwattr $C$DW$13, DW_AT_TI_symbol_name("ESP8266_TXBuffer")
	.dwattr $C$DW$13, DW_AT_type(*$C$DW$T$93)
	.dwattr $C$DW$13, DW_AT_declaration
	.dwattr $C$DW$13, DW_AT_external
	.dwattr $C$DW$13, DW_AT_decl_file("../http.c")
	.dwattr $C$DW$13, DW_AT_decl_line(0x2d)
	.dwattr $C$DW$13, DW_AT_decl_column(0x0d)
	.global	formBody
	.sect	".const:.string:formBody"
	.clink
	.align	1
	.elfsym	formBody,SYM_SIZE(236)
formBody:
	.bits	60,8			; formBody[0] @ 0
	.bits	33,8			; formBody[1] @ 8
	.bits	68,8			; formBody[2] @ 16
	.bits	79,8			; formBody[3] @ 24
	.bits	67,8			; formBody[4] @ 32
	.bits	84,8			; formBody[5] @ 40
	.bits	89,8			; formBody[6] @ 48
	.bits	80,8			; formBody[7] @ 56
	.bits	69,8			; formBody[8] @ 64
	.bits	32,8			; formBody[9] @ 72
	.bits	104,8			; formBody[10] @ 80
	.bits	116,8			; formBody[11] @ 88
	.bits	109,8			; formBody[12] @ 96
	.bits	108,8			; formBody[13] @ 104
	.bits	62,8			; formBody[14] @ 112
	.bits	60,8			; formBody[15] @ 120
	.bits	104,8			; formBody[16] @ 128
	.bits	116,8			; formBody[17] @ 136
	.bits	109,8			; formBody[18] @ 144
	.bits	108,8			; formBody[19] @ 152
	.bits	62,8			; formBody[20] @ 160
	.bits	60,8			; formBody[21] @ 168
	.bits	98,8			; formBody[22] @ 176
	.bits	111,8			; formBody[23] @ 184
	.bits	100,8			; formBody[24] @ 192
	.bits	121,8			; formBody[25] @ 200
	.bits	62,8			; formBody[26] @ 208
	.bits	60,8			; formBody[27] @ 216
	.bits	99,8			; formBody[28] @ 224
	.bits	101,8			; formBody[29] @ 232
	.bits	110,8			; formBody[30] @ 240
	.bits	116,8			; formBody[31] @ 248
	.bits	101,8			; formBody[32] @ 256
	.bits	114,8			; formBody[33] @ 264
	.bits	62,8			; formBody[34] @ 272
	.bits	32,8			; formBody[35] @ 280
	.bits	32,8			; formBody[36] @ 288
	.bits	32,8			; formBody[37] @ 296
	.bits	60,8			; formBody[38] @ 304
	.bits	104,8			; formBody[39] @ 312
	.bits	49,8			; formBody[40] @ 320
	.bits	62,8			; formBody[41] @ 328
	.bits	69,8			; formBody[42] @ 336
	.bits	110,8			; formBody[43] @ 344
	.bits	116,8			; formBody[44] @ 352
	.bits	101,8			; formBody[45] @ 360
	.bits	114,8			; formBody[46] @ 368
	.bits	32,8			; formBody[47] @ 376
	.bits	97,8			; formBody[48] @ 384
	.bits	32,8			; formBody[49] @ 392
	.bits	109,8			; formBody[50] @ 400
	.bits	101,8			; formBody[51] @ 408
	.bits	115,8			; formBody[52] @ 416
	.bits	115,8			; formBody[53] @ 424
	.bits	97,8			; formBody[54] @ 432
	.bits	103,8			; formBody[55] @ 440
	.bits	101,8			; formBody[56] @ 448
	.bits	32,8			; formBody[57] @ 456
	.bits	116,8			; formBody[58] @ 464
	.bits	111,8			; formBody[59] @ 472
	.bits	32,8			; formBody[60] @ 480
	.bits	115,8			; formBody[61] @ 488
	.bits	101,8			; formBody[62] @ 496
	.bits	110,8			; formBody[63] @ 504
	.bits	100,8			; formBody[64] @ 512
	.bits	32,8			; formBody[65] @ 520
	.bits	116,8			; formBody[66] @ 528
	.bits	111,8			; formBody[67] @ 536
	.bits	32,8			; formBody[68] @ 544
	.bits	121,8			; formBody[69] @ 552
	.bits	111,8			; formBody[70] @ 560
	.bits	117,8			; formBody[71] @ 568
	.bits	114,8			; formBody[72] @ 576
	.bits	32,8			; formBody[73] @ 584
	.bits	109,8			; formBody[74] @ 592
	.bits	105,8			; formBody[75] @ 600
	.bits	99,8			; formBody[76] @ 608
	.bits	114,8			; formBody[77] @ 616
	.bits	111,8			; formBody[78] @ 624
	.bits	99,8			; formBody[79] @ 632
	.bits	111,8			; formBody[80] @ 640
	.bits	110,8			; formBody[81] @ 648
	.bits	116,8			; formBody[82] @ 656
	.bits	114,8			; formBody[83] @ 664
	.bits	111,8			; formBody[84] @ 672
	.bits	108,8			; formBody[85] @ 680
	.bits	108,8			; formBody[86] @ 688
	.bits	101,8			; formBody[87] @ 696
	.bits	114,8			; formBody[88] @ 704
	.bits	33,8			; formBody[89] @ 712
	.bits	60,8			; formBody[90] @ 720
	.bits	47,8			; formBody[91] @ 728
	.bits	104,8			; formBody[92] @ 736
	.bits	49,8			; formBody[93] @ 744
	.bits	62,8			; formBody[94] @ 752
	.bits	32,8			; formBody[95] @ 760
	.bits	32,8			; formBody[96] @ 768
	.bits	32,8			; formBody[97] @ 776
	.bits	60,8			; formBody[98] @ 784
	.bits	102,8			; formBody[99] @ 792
	.bits	111,8			; formBody[100] @ 800
	.bits	114,8			; formBody[101] @ 808
	.bits	109,8			; formBody[102] @ 816
	.bits	62,8			; formBody[103] @ 824
	.bits	32,8			; formBody[104] @ 832
	.bits	9,8			; formBody[105] @ 840
	.bits	60,8			; formBody[106] @ 848
	.bits	105,8			; formBody[107] @ 856
	.bits	110,8			; formBody[108] @ 864
	.bits	112,8			; formBody[109] @ 872
	.bits	117,8			; formBody[110] @ 880
	.bits	116,8			; formBody[111] @ 888
	.bits	32,8			; formBody[112] @ 896
	.bits	116,8			; formBody[113] @ 904
	.bits	121,8			; formBody[114] @ 912
	.bits	112,8			; formBody[115] @ 920
	.bits	101,8			; formBody[116] @ 928
	.bits	61,8			; formBody[117] @ 936
	.bits	34,8			; formBody[118] @ 944
	.bits	116,8			; formBody[119] @ 952
	.bits	101,8			; formBody[120] @ 960
	.bits	120,8			; formBody[121] @ 968
	.bits	116,8			; formBody[122] @ 976
	.bits	34,8			; formBody[123] @ 984
	.bits	32,8			; formBody[124] @ 992
	.bits	110,8			; formBody[125] @ 1000
	.bits	97,8			; formBody[126] @ 1008
	.bits	109,8			; formBody[127] @ 1016
	.bits	101,8			; formBody[128] @ 1024
	.bits	61,8			; formBody[129] @ 1032
	.bits	34,8			; formBody[130] @ 1040
	.bits	109,8			; formBody[131] @ 1048
	.bits	101,8			; formBody[132] @ 1056
	.bits	115,8			; formBody[133] @ 1064
	.bits	115,8			; formBody[134] @ 1072
	.bits	97,8			; formBody[135] @ 1080
	.bits	103,8			; formBody[136] @ 1088
	.bits	101,8			; formBody[137] @ 1096
	.bits	34,8			; formBody[138] @ 1104
	.bits	32,8			; formBody[139] @ 1112
	.bits	118,8			; formBody[140] @ 1120
	.bits	97,8			; formBody[141] @ 1128
	.bits	108,8			; formBody[142] @ 1136
	.bits	117,8			; formBody[143] @ 1144
	.bits	101,8			; formBody[144] @ 1152
	.bits	61,8			; formBody[145] @ 1160
	.bits	34,8			; formBody[146] @ 1168
	.bits	72,8			; formBody[147] @ 1176
	.bits	101,8			; formBody[148] @ 1184
	.bits	108,8			; formBody[149] @ 1192
	.bits	108,8			; formBody[150] @ 1200
	.bits	111,8			; formBody[151] @ 1208
	.bits	32,8			; formBody[152] @ 1216
	.bits	69,8			; formBody[153] @ 1224
	.bits	83,8			; formBody[154] @ 1232
	.bits	80,8			; formBody[155] @ 1240
	.bits	56,8			; formBody[156] @ 1248
	.bits	50,8			; formBody[157] @ 1256
	.bits	54,8			; formBody[158] @ 1264
	.bits	54,8			; formBody[159] @ 1272
	.bits	33,8			; formBody[160] @ 1280
	.bits	34,8			; formBody[161] @ 1288
	.bits	62,8			; formBody[162] @ 1296
	.bits	32,8			; formBody[163] @ 1304
	.bits	9,8			; formBody[164] @ 1312
	.bits	60,8			; formBody[165] @ 1320
	.bits	98,8			; formBody[166] @ 1328
	.bits	114,8			; formBody[167] @ 1336
	.bits	62,8			; formBody[168] @ 1344
	.bits	60,8			; formBody[169] @ 1352
	.bits	105,8			; formBody[170] @ 1360
	.bits	110,8			; formBody[171] @ 1368
	.bits	112,8			; formBody[172] @ 1376
	.bits	117,8			; formBody[173] @ 1384
	.bits	116,8			; formBody[174] @ 1392
	.bits	32,8			; formBody[175] @ 1400
	.bits	116,8			; formBody[176] @ 1408
	.bits	121,8			; formBody[177] @ 1416
	.bits	112,8			; formBody[178] @ 1424
	.bits	101,8			; formBody[179] @ 1432
	.bits	61,8			; formBody[180] @ 1440
	.bits	34,8			; formBody[181] @ 1448
	.bits	115,8			; formBody[182] @ 1456
	.bits	117,8			; formBody[183] @ 1464
	.bits	98,8			; formBody[184] @ 1472
	.bits	109,8			; formBody[185] @ 1480
	.bits	105,8			; formBody[186] @ 1488
	.bits	116,8			; formBody[187] @ 1496
	.bits	34,8			; formBody[188] @ 1504
	.bits	32,8			; formBody[189] @ 1512
	.bits	118,8			; formBody[190] @ 1520
	.bits	97,8			; formBody[191] @ 1528
	.bits	108,8			; formBody[192] @ 1536
	.bits	117,8			; formBody[193] @ 1544
	.bits	101,8			; formBody[194] @ 1552
	.bits	61,8			; formBody[195] @ 1560
	.bits	34,8			; formBody[196] @ 1568
	.bits	71,8			; formBody[197] @ 1576
	.bits	111,8			; formBody[198] @ 1584
	.bits	33,8			; formBody[199] @ 1592
	.bits	34,8			; formBody[200] @ 1600
	.bits	62,8			; formBody[201] @ 1608
	.bits	32,8			; formBody[202] @ 1616
	.bits	32,8			; formBody[203] @ 1624
	.bits	32,8			; formBody[204] @ 1632
	.bits	60,8			; formBody[205] @ 1640
	.bits	47,8			; formBody[206] @ 1648
	.bits	102,8			; formBody[207] @ 1656
	.bits	111,8			; formBody[208] @ 1664
	.bits	114,8			; formBody[209] @ 1672
	.bits	109,8			; formBody[210] @ 1680
	.bits	62,8			; formBody[211] @ 1688
	.bits	60,8			; formBody[212] @ 1696
	.bits	47,8			; formBody[213] @ 1704
	.bits	99,8			; formBody[214] @ 1712
	.bits	101,8			; formBody[215] @ 1720
	.bits	110,8			; formBody[216] @ 1728
	.bits	116,8			; formBody[217] @ 1736
	.bits	101,8			; formBody[218] @ 1744
	.bits	114,8			; formBody[219] @ 1752
	.bits	62,8			; formBody[220] @ 1760
	.bits	60,8			; formBody[221] @ 1768
	.bits	47,8			; formBody[222] @ 1776
	.bits	98,8			; formBody[223] @ 1784
	.bits	111,8			; formBody[224] @ 1792
	.bits	100,8			; formBody[225] @ 1800
	.bits	121,8			; formBody[226] @ 1808
	.bits	62,8			; formBody[227] @ 1816
	.bits	60,8			; formBody[228] @ 1824
	.bits	47,8			; formBody[229] @ 1832
	.bits	104,8			; formBody[230] @ 1840
	.bits	116,8			; formBody[231] @ 1848
	.bits	109,8			; formBody[232] @ 1856
	.bits	108,8			; formBody[233] @ 1864
	.bits	62,8			; formBody[234] @ 1872
	.bits	0,8			; formBody[235] @ 1880

$C$DW$14	.dwtag  DW_TAG_variable, DW_AT_name("formBody")
	.dwattr $C$DW$14, DW_AT_TI_symbol_name("formBody")
	.dwattr $C$DW$14, DW_AT_location[DW_OP_addr formBody]
	.dwattr $C$DW$14, DW_AT_type(*$C$DW$T$90)
	.dwattr $C$DW$14, DW_AT_external
	.dwattr $C$DW$14, DW_AT_decl_file("../http.c")
	.dwattr $C$DW$14, DW_AT_decl_line(0x3e)
	.dwattr $C$DW$14, DW_AT_decl_column(0x0c)
	.sect	".const:.string:$P$T0$1"
	.clink
	.align	1
	.elfsym	||$P$T0$1||,SYM_SIZE(80)
||$P$T0$1||:
	.bits	72,8			; $P$T0$1[0] @ 0
	.bits	84,8			; $P$T0$1[1] @ 8
	.bits	84,8			; $P$T0$1[2] @ 16
	.bits	80,8			; $P$T0$1[3] @ 24
	.bits	47,8			; $P$T0$1[4] @ 32
	.bits	49,8			; $P$T0$1[5] @ 40
	.bits	46,8			; $P$T0$1[6] @ 48
	.bits	49,8			; $P$T0$1[7] @ 56
	.bits	32,8			; $P$T0$1[8] @ 64
	.bits	50,8			; $P$T0$1[9] @ 72
	.bits	48,8			; $P$T0$1[10] @ 80
	.bits	48,8			; $P$T0$1[11] @ 88
	.bits	32,8			; $P$T0$1[12] @ 96
	.bits	79,8			; $P$T0$1[13] @ 104
	.bits	75,8			; $P$T0$1[14] @ 112
	.bits	13,8			; $P$T0$1[15] @ 120
	.bits	10,8			; $P$T0$1[16] @ 128
	.bits	67,8			; $P$T0$1[17] @ 136
	.bits	111,8			; $P$T0$1[18] @ 144
	.bits	110,8			; $P$T0$1[19] @ 152
	.bits	116,8			; $P$T0$1[20] @ 160
	.bits	101,8			; $P$T0$1[21] @ 168
	.bits	110,8			; $P$T0$1[22] @ 176
	.bits	116,8			; $P$T0$1[23] @ 184
	.bits	45,8			; $P$T0$1[24] @ 192
	.bits	84,8			; $P$T0$1[25] @ 200
	.bits	121,8			; $P$T0$1[26] @ 208
	.bits	112,8			; $P$T0$1[27] @ 216
	.bits	101,8			; $P$T0$1[28] @ 224
	.bits	58,8			; $P$T0$1[29] @ 232
	.bits	32,8			; $P$T0$1[30] @ 240
	.bits	116,8			; $P$T0$1[31] @ 248
	.bits	101,8			; $P$T0$1[32] @ 256
	.bits	120,8			; $P$T0$1[33] @ 264
	.bits	116,8			; $P$T0$1[34] @ 272
	.bits	47,8			; $P$T0$1[35] @ 280
	.bits	104,8			; $P$T0$1[36] @ 288
	.bits	116,8			; $P$T0$1[37] @ 296
	.bits	109,8			; $P$T0$1[38] @ 304
	.bits	108,8			; $P$T0$1[39] @ 312
	.bits	13,8			; $P$T0$1[40] @ 320
	.bits	10,8			; $P$T0$1[41] @ 328
	.bits	67,8			; $P$T0$1[42] @ 336
	.bits	111,8			; $P$T0$1[43] @ 344
	.bits	110,8			; $P$T0$1[44] @ 352
	.bits	110,8			; $P$T0$1[45] @ 360
	.bits	101,8			; $P$T0$1[46] @ 368
	.bits	99,8			; $P$T0$1[47] @ 376
	.bits	116,8			; $P$T0$1[48] @ 384
	.bits	105,8			; $P$T0$1[49] @ 392
	.bits	111,8			; $P$T0$1[50] @ 400
	.bits	110,8			; $P$T0$1[51] @ 408
	.bits	58,8			; $P$T0$1[52] @ 416
	.bits	32,8			; $P$T0$1[53] @ 424
	.bits	99,8			; $P$T0$1[54] @ 432
	.bits	108,8			; $P$T0$1[55] @ 440
	.bits	111,8			; $P$T0$1[56] @ 448
	.bits	115,8			; $P$T0$1[57] @ 456
	.bits	101,8			; $P$T0$1[58] @ 464
	.bits	13,8			; $P$T0$1[59] @ 472
	.bits	10,8			; $P$T0$1[60] @ 480
	.bits	67,8			; $P$T0$1[61] @ 488
	.bits	111,8			; $P$T0$1[62] @ 496
	.bits	110,8			; $P$T0$1[63] @ 504
	.bits	116,8			; $P$T0$1[64] @ 512
	.bits	101,8			; $P$T0$1[65] @ 520
	.bits	110,8			; $P$T0$1[66] @ 528
	.bits	116,8			; $P$T0$1[67] @ 536
	.bits	45,8			; $P$T0$1[68] @ 544
	.bits	76,8			; $P$T0$1[69] @ 552
	.bits	101,8			; $P$T0$1[70] @ 560
	.bits	110,8			; $P$T0$1[71] @ 568
	.bits	103,8			; $P$T0$1[72] @ 576
	.bits	116,8			; $P$T0$1[73] @ 584
	.bits	104,8			; $P$T0$1[74] @ 592
	.bits	58,8			; $P$T0$1[75] @ 600
	.bits	32,8			; $P$T0$1[76] @ 608
	.bits	0,8			; $P$T0$1[77] @ 616

$C$DW$15	.dwtag  DW_TAG_variable, DW_AT_name("$P$T0$1")
	.dwattr $C$DW$15, DW_AT_TI_symbol_name("$P$T0$1")
	.dwattr $C$DW$15, DW_AT_type(*$C$DW$T$91)
	.dwattr $C$DW$15, DW_AT_location[DW_OP_addr ||$P$T0$1||]
	.dwattr $C$DW$15, DW_AT_decl_file("../http.c")
	.dwattr $C$DW$15, DW_AT_decl_line(0x59)
	.dwattr $C$DW$15, DW_AT_decl_column(0x08)
;	C:\ti\ccsv6\tools\compiler\ti-cgt-arm_5.2.4\bin\armacpia.exe -@C:\\Users\\VALVAN~1\\AppData\\Local\\Temp\\0306812 
	.sect	".text"
	.clink
	.thumbfunc HTTP_ServePage
	.thumb
	.global	HTTP_ServePage

$C$DW$16	.dwtag  DW_TAG_subprogram, DW_AT_name("HTTP_ServePage")
	.dwattr $C$DW$16, DW_AT_low_pc(HTTP_ServePage)
	.dwattr $C$DW$16, DW_AT_high_pc(0x00)
	.dwattr $C$DW$16, DW_AT_TI_symbol_name("HTTP_ServePage")
	.dwattr $C$DW$16, DW_AT_external
	.dwattr $C$DW$16, DW_AT_TI_begin_file("../http.c")
	.dwattr $C$DW$16, DW_AT_TI_begin_line(0x58)
	.dwattr $C$DW$16, DW_AT_TI_begin_column(0x06)
	.dwattr $C$DW$16, DW_AT_decl_file("../http.c")
	.dwattr $C$DW$16, DW_AT_decl_line(0x58)
	.dwattr $C$DW$16, DW_AT_decl_column(0x06)
	.dwattr $C$DW$16, DW_AT_TI_max_frame_size(0x70)
	.dwpsn	file "../http.c",line 88,column 38,is_stmt,address HTTP_ServePage,isa 1

	.dwfde $C$DW$CIE, HTTP_ServePage
$C$DW$17	.dwtag  DW_TAG_formal_parameter, DW_AT_name("body")
	.dwattr $C$DW$17, DW_AT_TI_symbol_name("body")
	.dwattr $C$DW$17, DW_AT_type(*$C$DW$T$34)
	.dwattr $C$DW$17, DW_AT_location[DW_OP_reg0]

;*****************************************************************************
;* FUNCTION NAME: HTTP_ServePage                                             *
;*                                                                           *
;*   Regs Modified     : A1,A2,A3,A4,V1,V2,V9,SP,LR,SR,D0,D0_hi,D1,D1_hi,D2, *
;*                           D2_hi,D3,D3_hi,D4,D4_hi,D5,D5_hi,D6,D6_hi,D7,   *
;*                           D7_hi,FPEXC,FPSCR                               *
;*   Regs Used         : A1,A2,A3,A4,V1,V2,V9,SP,LR,SR,D0,D0_hi,D1,D1_hi,D2, *
;*                           D2_hi,D3,D3_hi,D4,D4_hi,D5,D5_hi,D6,D6_hi,D7,   *
;*                           D7_hi,FPEXC,FPSCR                               *
;*   Local Frame Size  : 0 Args + 100 Auto + 12 Save = 112 byte              *
;*****************************************************************************
HTTP_ServePage:
;* --------------------------------------------------------------------------*
	.dwcfi	cfa_offset, 0
        PUSH      {V1, V2, LR}          ; [DPU_3_PIPE] 
	.dwcfi	cfa_offset, 12
	.dwcfi	save_reg_to_mem, 14, -4
	.dwcfi	save_reg_to_mem, 5, -8
	.dwcfi	save_reg_to_mem, 4, -12
        SUB       SP, SP, #100          ; [DPU_3_PIPE] 
	.dwcfi	cfa_offset, 112
$C$DW$18	.dwtag  DW_TAG_variable, DW_AT_name("body")
	.dwattr $C$DW$18, DW_AT_TI_symbol_name("body")
	.dwattr $C$DW$18, DW_AT_type(*$C$DW$T$34)
	.dwattr $C$DW$18, DW_AT_location[DW_OP_breg13 0]
$C$DW$19	.dwtag  DW_TAG_variable, DW_AT_name("header")
	.dwattr $C$DW$19, DW_AT_TI_symbol_name("header")
	.dwattr $C$DW$19, DW_AT_type(*$C$DW$T$95)
	.dwattr $C$DW$19, DW_AT_location[DW_OP_breg13 4]
$C$DW$20	.dwtag  DW_TAG_variable, DW_AT_name("contentLength")
	.dwattr $C$DW$20, DW_AT_TI_symbol_name("contentLength")
	.dwattr $C$DW$20, DW_AT_type(*$C$DW$T$96)
	.dwattr $C$DW$20, DW_AT_location[DW_OP_breg13 84]
;----------------------------------------------------------------------
;  88 | void HTTP_ServePage(const char* body){                                 
;----------------------------------------------------------------------
        STR       A1, [SP, #0]          ; [DPU_3_PIPE] |88| 
	.dwpsn	file "../http.c",line 89,column 8,is_stmt,isa 1
;----------------------------------------------------------------------
;  89 | char header[] = "HTTP/1.1 200 OK\r\nContent-Type: text/html\r\nConnecti
;     | on: close\r\nContent-Length: ";                                        
;  91 | char contentLength[16];                                                
;----------------------------------------------------------------------
        LDR       A2, $C$CON1           ; [DPU_3_PIPE] |89| 
        MOVS      A3, #78               ; [DPU_3_PIPE] |89| 
        ADD       A1, SP, #4            ; [DPU_3_PIPE] |89| 
$C$DW$21	.dwtag  DW_TAG_TI_branch
	.dwattr $C$DW$21, DW_AT_low_pc(0x00)
	.dwattr $C$DW$21, DW_AT_name("memcpy")
	.dwattr $C$DW$21, DW_AT_TI_call
        BL        memcpy                ; [DPU_3_PIPE] |89| 
        ; CALL OCCURS {memcpy }          ; [] |89| 
	.dwpsn	file "../http.c",line 92,column 3,is_stmt,isa 1
;----------------------------------------------------------------------
;  92 | sprintf(contentLength, "%d\r\n\r\n", strlen(body));                    
;----------------------------------------------------------------------
        LDR       A1, [SP, #0]          ; [DPU_3_PIPE] |92| 
$C$DW$22	.dwtag  DW_TAG_TI_branch
	.dwattr $C$DW$22, DW_AT_low_pc(0x00)
	.dwattr $C$DW$22, DW_AT_name("strlen")
	.dwattr $C$DW$22, DW_AT_TI_call
        BL        strlen                ; [DPU_3_PIPE] |92| 
        ; CALL OCCURS {strlen }          ; [] |92| 
        MOV       A3, A1                ; [DPU_3_PIPE] |92| 
        ADR       A2, $C$SL1            ; [DPU_3_PIPE] |92| 
        ADD       A1, SP, #84           ; [DPU_3_PIPE] |92| 
$C$DW$23	.dwtag  DW_TAG_TI_branch
	.dwattr $C$DW$23, DW_AT_low_pc(0x00)
	.dwattr $C$DW$23, DW_AT_name("sprintf")
	.dwattr $C$DW$23, DW_AT_TI_call
        BL        sprintf               ; [DPU_3_PIPE] |92| 
        ; CALL OCCURS {sprintf }         ; [] |92| 
	.dwpsn	file "../http.c",line 94,column 3,is_stmt,isa 1
;----------------------------------------------------------------------
;  94 | sprintf((char*)ESP8266_TXBuffer, "AT+CIPSEND=%d,%d\r\n", 0, strlen(body
;     | ) + strlen(contentLength) + strlen(header));                           
;----------------------------------------------------------------------
        LDR       A1, [SP, #0]          ; [DPU_3_PIPE] |94| 
$C$DW$24	.dwtag  DW_TAG_TI_branch
	.dwattr $C$DW$24, DW_AT_low_pc(0x00)
	.dwattr $C$DW$24, DW_AT_name("strlen")
	.dwattr $C$DW$24, DW_AT_TI_call
        BL        strlen                ; [DPU_3_PIPE] |94| 
        ; CALL OCCURS {strlen }          ; [] |94| 
        MOV       V2, A1                ; [DPU_3_PIPE] |94| 
        ADD       A1, SP, #84           ; [DPU_3_PIPE] |94| 
$C$DW$25	.dwtag  DW_TAG_TI_branch
	.dwattr $C$DW$25, DW_AT_low_pc(0x00)
	.dwattr $C$DW$25, DW_AT_name("strlen")
	.dwattr $C$DW$25, DW_AT_TI_call
        BL        strlen                ; [DPU_3_PIPE] |94| 
        ; CALL OCCURS {strlen }          ; [] |94| 
        MOV       V1, A1                ; [DPU_3_PIPE] |94| 
        ADD       A1, SP, #4            ; [DPU_3_PIPE] |94| 
$C$DW$26	.dwtag  DW_TAG_TI_branch
	.dwattr $C$DW$26, DW_AT_low_pc(0x00)
	.dwattr $C$DW$26, DW_AT_name("strlen")
	.dwattr $C$DW$26, DW_AT_TI_call
        BL        strlen                ; [DPU_3_PIPE] |94| 
        ; CALL OCCURS {strlen }          ; [] |94| 
        ADDS      V1, V1, V2            ; [DPU_3_PIPE] |94| 
        ADDS      A4, A1, V1            ; [DPU_3_PIPE] |94| 
        LDR       A1, $C$CON2           ; [DPU_3_PIPE] |94| 
        ADR       A2, $C$SL2            ; [DPU_3_PIPE] |94| 
        MOVS      A3, #0                ; [DPU_3_PIPE] |94| 
$C$DW$27	.dwtag  DW_TAG_TI_branch
	.dwattr $C$DW$27, DW_AT_low_pc(0x00)
	.dwattr $C$DW$27, DW_AT_name("sprintf")
	.dwattr $C$DW$27, DW_AT_TI_call
        BL        sprintf               ; [DPU_3_PIPE] |94| 
        ; CALL OCCURS {sprintf }         ; [] |94| 
	.dwpsn	file "../http.c",line 95,column 3,is_stmt,isa 1
;----------------------------------------------------------------------
;  95 | ESP8266SendCommand((const char*)ESP8266_TXBuffer);                     
;----------------------------------------------------------------------
        LDR       A1, $C$CON2           ; [DPU_3_PIPE] |95| 
$C$DW$28	.dwtag  DW_TAG_TI_branch
	.dwattr $C$DW$28, DW_AT_low_pc(0x00)
	.dwattr $C$DW$28, DW_AT_name("ESP8266SendCommand")
	.dwattr $C$DW$28, DW_AT_TI_call
        BL        ESP8266SendCommand    ; [DPU_3_PIPE] |95| 
        ; CALL OCCURS {ESP8266SendCommand }  ; [] |95| 
	.dwpsn	file "../http.c",line 97,column 3,is_stmt,isa 1
;----------------------------------------------------------------------
;  97 | DelayMs(100);                                                          
;----------------------------------------------------------------------
        MOVS      A1, #100              ; [DPU_3_PIPE] |97| 
$C$DW$29	.dwtag  DW_TAG_TI_branch
	.dwattr $C$DW$29, DW_AT_low_pc(0x00)
	.dwattr $C$DW$29, DW_AT_name("DelayMs")
	.dwattr $C$DW$29, DW_AT_TI_call
        BL        DelayMs               ; [DPU_3_PIPE] |97| 
        ; CALL OCCURS {DelayMs }         ; [] |97| 
	.dwpsn	file "../http.c",line 99,column 3,is_stmt,isa 1
;----------------------------------------------------------------------
;  99 | ESP8266SendCommand(header);                                            
;----------------------------------------------------------------------
        ADD       A1, SP, #4            ; [DPU_3_PIPE] |99| 
$C$DW$30	.dwtag  DW_TAG_TI_branch
	.dwattr $C$DW$30, DW_AT_low_pc(0x00)
	.dwattr $C$DW$30, DW_AT_name("ESP8266SendCommand")
	.dwattr $C$DW$30, DW_AT_TI_call
        BL        ESP8266SendCommand    ; [DPU_3_PIPE] |99| 
        ; CALL OCCURS {ESP8266SendCommand }  ; [] |99| 
	.dwpsn	file "../http.c",line 100,column 3,is_stmt,isa 1
;----------------------------------------------------------------------
; 100 | ESP8266SendCommand(contentLength);                                     
;----------------------------------------------------------------------
        ADD       A1, SP, #84           ; [DPU_3_PIPE] |100| 
$C$DW$31	.dwtag  DW_TAG_TI_branch
	.dwattr $C$DW$31, DW_AT_low_pc(0x00)
	.dwattr $C$DW$31, DW_AT_name("ESP8266SendCommand")
	.dwattr $C$DW$31, DW_AT_TI_call
        BL        ESP8266SendCommand    ; [DPU_3_PIPE] |100| 
        ; CALL OCCURS {ESP8266SendCommand }  ; [] |100| 
;* --------------------------------------------------------------------------*
	.dwpsn	file "../http.c",line 101,column 3,is_stmt,isa 1
;----------------------------------------------------------------------
; 101 | ESP8266SendCommand(body);                                              
;----------------------------------------------------------------------
        LDR       A1, [SP, #0]          ; [DPU_3_PIPE] |101| 
$C$DW$32	.dwtag  DW_TAG_TI_branch
	.dwattr $C$DW$32, DW_AT_low_pc(0x00)
	.dwattr $C$DW$32, DW_AT_name("ESP8266SendCommand")
	.dwattr $C$DW$32, DW_AT_TI_call
        BL        ESP8266SendCommand    ; [DPU_3_PIPE] |101| 
        ; CALL OCCURS {ESP8266SendCommand }  ; [] |101| 
	.dwpsn	file "../http.c",line 102,column 1,is_stmt,isa 1
        ADD       SP, SP, #100          ; [DPU_3_PIPE] 
	.dwcfi	cfa_offset, 12
$C$DW$33	.dwtag  DW_TAG_TI_branch
	.dwattr $C$DW$33, DW_AT_low_pc(0x00)
	.dwattr $C$DW$33, DW_AT_TI_return
        POP       {V1, V2, PC}          ; [DPU_3_PIPE] 
	.dwcfi	cfa_offset, 0
        ; BRANCH OCCURS                  ; [] 
	.dwattr $C$DW$16, DW_AT_TI_end_file("../http.c")
	.dwattr $C$DW$16, DW_AT_TI_end_line(0x66)
	.dwattr $C$DW$16, DW_AT_TI_end_column(0x01)
	.dwendentry
	.dwendtag $C$DW$16

;******************************************************************************
;* STRINGS                                                                    *
;******************************************************************************
	.sect	".text"
	.align	4
||$C$SL1||:	.string	"%d",13,10,13,10,0
	.align	4
||$C$SL2||:	.string	"AT+CIPSEND=%d,%d",13,10,0
;******************************************************************************
;* CONSTANT TABLE                                                             *
;******************************************************************************
	.sect	".text"
	.align	4
||$C$CON1||:	.bits	||$P$T0$1||,32
	.align	4
||$C$CON2||:	.bits	ESP8266_TXBuffer,32
;*****************************************************************************
;* UNDEFINED EXTERNAL REFERENCES                                             *
;*****************************************************************************
	.global	strlen
	.global	sprintf
	.global	DelayMs
	.global	ESP8266SendCommand
	.global	ESP8266_TXBuffer
	.global	memcpy

;******************************************************************************
;* BUILD ATTRIBUTES                                                           *
;******************************************************************************
	.battr "aeabi", Tag_File, 1, Tag_ABI_PCS_wchar_t(2)
	.battr "aeabi", Tag_File, 1, Tag_ABI_FP_rounding(0)
	.battr "aeabi", Tag_File, 1, Tag_ABI_FP_denormal(0)
	.battr "aeabi", Tag_File, 1, Tag_ABI_FP_exceptions(0)
	.battr "aeabi", Tag_File, 1, Tag_ABI_FP_number_model(1)
	.battr "aeabi", Tag_File, 1, Tag_ABI_enum_size(0)
	.battr "aeabi", Tag_File, 1, Tag_ABI_optimization_goals(5)
	.battr "aeabi", Tag_File, 1, Tag_ABI_FP_optimization_goals(0)
	.battr "TI", Tag_File, 1, Tag_Bitfield_layout(2)
	.battr "TI", Tag_File, 1, Tag_FP_interface(1)

;******************************************************************************
;* TYPE INFORMATION                                                           *
;******************************************************************************

$C$DW$T$19	.dwtag  DW_TAG_structure_type
	.dwattr $C$DW$T$19, DW_AT_byte_size(0x08)
$C$DW$34	.dwtag  DW_TAG_member
	.dwattr $C$DW$34, DW_AT_type(*$C$DW$T$10)
	.dwattr $C$DW$34, DW_AT_name("quot")
	.dwattr $C$DW$34, DW_AT_TI_symbol_name("quot")
	.dwattr $C$DW$34, DW_AT_data_member_location[DW_OP_plus_uconst 0x0]
	.dwattr $C$DW$34, DW_AT_accessibility(DW_ACCESS_public)
	.dwattr $C$DW$34, DW_AT_decl_file("C:/ti/ccsv6/tools/compiler/ti-cgt-arm_5.2.4/include/stdlib.h")
	.dwattr $C$DW$34, DW_AT_decl_line(0x59)
	.dwattr $C$DW$34, DW_AT_decl_column(0x16)
$C$DW$35	.dwtag  DW_TAG_member
	.dwattr $C$DW$35, DW_AT_type(*$C$DW$T$10)
	.dwattr $C$DW$35, DW_AT_name("rem")
	.dwattr $C$DW$35, DW_AT_TI_symbol_name("rem")
	.dwattr $C$DW$35, DW_AT_data_member_location[DW_OP_plus_uconst 0x4]
	.dwattr $C$DW$35, DW_AT_accessibility(DW_ACCESS_public)
	.dwattr $C$DW$35, DW_AT_decl_file("C:/ti/ccsv6/tools/compiler/ti-cgt-arm_5.2.4/include/stdlib.h")
	.dwattr $C$DW$35, DW_AT_decl_line(0x59)
	.dwattr $C$DW$35, DW_AT_decl_column(0x1c)
	.dwendtag $C$DW$T$19

	.dwattr $C$DW$T$19, DW_AT_decl_file("C:/ti/ccsv6/tools/compiler/ti-cgt-arm_5.2.4/include/stdlib.h")
	.dwattr $C$DW$T$19, DW_AT_decl_line(0x59)
	.dwattr $C$DW$T$19, DW_AT_decl_column(0x10)
$C$DW$T$25	.dwtag  DW_TAG_typedef, DW_AT_name("div_t")
	.dwattr $C$DW$T$25, DW_AT_type(*$C$DW$T$19)
	.dwattr $C$DW$T$25, DW_AT_language(DW_LANG_C)
	.dwattr $C$DW$T$25, DW_AT_decl_file("C:/ti/ccsv6/tools/compiler/ti-cgt-arm_5.2.4/include/stdlib.h")
	.dwattr $C$DW$T$25, DW_AT_decl_line(0x59)
	.dwattr $C$DW$T$25, DW_AT_decl_column(0x23)

$C$DW$T$20	.dwtag  DW_TAG_structure_type
	.dwattr $C$DW$T$20, DW_AT_byte_size(0x08)
$C$DW$36	.dwtag  DW_TAG_member
	.dwattr $C$DW$36, DW_AT_type(*$C$DW$T$10)
	.dwattr $C$DW$36, DW_AT_name("quot")
	.dwattr $C$DW$36, DW_AT_TI_symbol_name("quot")
	.dwattr $C$DW$36, DW_AT_data_member_location[DW_OP_plus_uconst 0x0]
	.dwattr $C$DW$36, DW_AT_accessibility(DW_ACCESS_public)
	.dwattr $C$DW$36, DW_AT_decl_file("C:/ti/ccsv6/tools/compiler/ti-cgt-arm_5.2.4/include/stdlib.h")
	.dwattr $C$DW$36, DW_AT_decl_line(0x5b)
	.dwattr $C$DW$36, DW_AT_decl_column(0x16)
$C$DW$37	.dwtag  DW_TAG_member
	.dwattr $C$DW$37, DW_AT_type(*$C$DW$T$10)
	.dwattr $C$DW$37, DW_AT_name("rem")
	.dwattr $C$DW$37, DW_AT_TI_symbol_name("rem")
	.dwattr $C$DW$37, DW_AT_data_member_location[DW_OP_plus_uconst 0x4]
	.dwattr $C$DW$37, DW_AT_accessibility(DW_ACCESS_public)
	.dwattr $C$DW$37, DW_AT_decl_file("C:/ti/ccsv6/tools/compiler/ti-cgt-arm_5.2.4/include/stdlib.h")
	.dwattr $C$DW$37, DW_AT_decl_line(0x5b)
	.dwattr $C$DW$37, DW_AT_decl_column(0x1c)
	.dwendtag $C$DW$T$20

	.dwattr $C$DW$T$20, DW_AT_decl_file("C:/ti/ccsv6/tools/compiler/ti-cgt-arm_5.2.4/include/stdlib.h")
	.dwattr $C$DW$T$20, DW_AT_decl_line(0x5b)
	.dwattr $C$DW$T$20, DW_AT_decl_column(0x10)
$C$DW$T$26	.dwtag  DW_TAG_typedef, DW_AT_name("ldiv_t")
	.dwattr $C$DW$T$26, DW_AT_type(*$C$DW$T$20)
	.dwattr $C$DW$T$26, DW_AT_language(DW_LANG_C)
	.dwattr $C$DW$T$26, DW_AT_decl_file("C:/ti/ccsv6/tools/compiler/ti-cgt-arm_5.2.4/include/stdlib.h")
	.dwattr $C$DW$T$26, DW_AT_decl_line(0x5b)
	.dwattr $C$DW$T$26, DW_AT_decl_column(0x23)

$C$DW$T$21	.dwtag  DW_TAG_structure_type
	.dwattr $C$DW$T$21, DW_AT_byte_size(0x10)
$C$DW$38	.dwtag  DW_TAG_member
	.dwattr $C$DW$38, DW_AT_type(*$C$DW$T$14)
	.dwattr $C$DW$38, DW_AT_name("quot")
	.dwattr $C$DW$38, DW_AT_TI_symbol_name("quot")
	.dwattr $C$DW$38, DW_AT_data_member_location[DW_OP_plus_uconst 0x0]
	.dwattr $C$DW$38, DW_AT_accessibility(DW_ACCESS_public)
	.dwattr $C$DW$38, DW_AT_decl_file("C:/ti/ccsv6/tools/compiler/ti-cgt-arm_5.2.4/include/stdlib.h")
	.dwattr $C$DW$38, DW_AT_decl_line(0x5e)
	.dwattr $C$DW$38, DW_AT_decl_column(0x1c)
$C$DW$39	.dwtag  DW_TAG_member
	.dwattr $C$DW$39, DW_AT_type(*$C$DW$T$14)
	.dwattr $C$DW$39, DW_AT_name("rem")
	.dwattr $C$DW$39, DW_AT_TI_symbol_name("rem")
	.dwattr $C$DW$39, DW_AT_data_member_location[DW_OP_plus_uconst 0x8]
	.dwattr $C$DW$39, DW_AT_accessibility(DW_ACCESS_public)
	.dwattr $C$DW$39, DW_AT_decl_file("C:/ti/ccsv6/tools/compiler/ti-cgt-arm_5.2.4/include/stdlib.h")
	.dwattr $C$DW$39, DW_AT_decl_line(0x5e)
	.dwattr $C$DW$39, DW_AT_decl_column(0x22)
	.dwendtag $C$DW$T$21

	.dwattr $C$DW$T$21, DW_AT_decl_file("C:/ti/ccsv6/tools/compiler/ti-cgt-arm_5.2.4/include/stdlib.h")
	.dwattr $C$DW$T$21, DW_AT_decl_line(0x5e)
	.dwattr $C$DW$T$21, DW_AT_decl_column(0x10)
$C$DW$T$27	.dwtag  DW_TAG_typedef, DW_AT_name("lldiv_t")
	.dwattr $C$DW$T$27, DW_AT_type(*$C$DW$T$21)
	.dwattr $C$DW$T$27, DW_AT_language(DW_LANG_C)
	.dwattr $C$DW$T$27, DW_AT_decl_file("C:/ti/ccsv6/tools/compiler/ti-cgt-arm_5.2.4/include/stdlib.h")
	.dwattr $C$DW$T$27, DW_AT_decl_line(0x5e)
	.dwattr $C$DW$T$27, DW_AT_decl_column(0x29)

$C$DW$T$23	.dwtag  DW_TAG_structure_type
	.dwattr $C$DW$T$23, DW_AT_byte_size(0x18)
$C$DW$40	.dwtag  DW_TAG_member
	.dwattr $C$DW$40, DW_AT_type(*$C$DW$T$10)
	.dwattr $C$DW$40, DW_AT_name("fd")
	.dwattr $C$DW$40, DW_AT_TI_symbol_name("fd")
	.dwattr $C$DW$40, DW_AT_data_member_location[DW_OP_plus_uconst 0x0]
	.dwattr $C$DW$40, DW_AT_accessibility(DW_ACCESS_public)
	.dwattr $C$DW$40, DW_AT_decl_file("C:/ti/ccsv6/tools/compiler/ti-cgt-arm_5.2.4/include/stdio.h")
	.dwattr $C$DW$40, DW_AT_decl_line(0x5c)
	.dwattr $C$DW$40, DW_AT_decl_column(0x0b)
$C$DW$41	.dwtag  DW_TAG_member
	.dwattr $C$DW$41, DW_AT_type(*$C$DW$T$22)
	.dwattr $C$DW$41, DW_AT_name("buf")
	.dwattr $C$DW$41, DW_AT_TI_symbol_name("buf")
	.dwattr $C$DW$41, DW_AT_data_member_location[DW_OP_plus_uconst 0x4]
	.dwattr $C$DW$41, DW_AT_accessibility(DW_ACCESS_public)
	.dwattr $C$DW$41, DW_AT_decl_file("C:/ti/ccsv6/tools/compiler/ti-cgt-arm_5.2.4/include/stdio.h")
	.dwattr $C$DW$41, DW_AT_decl_line(0x5d)
	.dwattr $C$DW$41, DW_AT_decl_column(0x16)
$C$DW$42	.dwtag  DW_TAG_member
	.dwattr $C$DW$42, DW_AT_type(*$C$DW$T$22)
	.dwattr $C$DW$42, DW_AT_name("pos")
	.dwattr $C$DW$42, DW_AT_TI_symbol_name("pos")
	.dwattr $C$DW$42, DW_AT_data_member_location[DW_OP_plus_uconst 0x8]
	.dwattr $C$DW$42, DW_AT_accessibility(DW_ACCESS_public)
	.dwattr $C$DW$42, DW_AT_decl_file("C:/ti/ccsv6/tools/compiler/ti-cgt-arm_5.2.4/include/stdio.h")
	.dwattr $C$DW$42, DW_AT_decl_line(0x5e)
	.dwattr $C$DW$42, DW_AT_decl_column(0x16)
$C$DW$43	.dwtag  DW_TAG_member
	.dwattr $C$DW$43, DW_AT_type(*$C$DW$T$22)
	.dwattr $C$DW$43, DW_AT_name("bufend")
	.dwattr $C$DW$43, DW_AT_TI_symbol_name("bufend")
	.dwattr $C$DW$43, DW_AT_data_member_location[DW_OP_plus_uconst 0xc]
	.dwattr $C$DW$43, DW_AT_accessibility(DW_ACCESS_public)
	.dwattr $C$DW$43, DW_AT_decl_file("C:/ti/ccsv6/tools/compiler/ti-cgt-arm_5.2.4/include/stdio.h")
	.dwattr $C$DW$43, DW_AT_decl_line(0x5f)
	.dwattr $C$DW$43, DW_AT_decl_column(0x16)
$C$DW$44	.dwtag  DW_TAG_member
	.dwattr $C$DW$44, DW_AT_type(*$C$DW$T$22)
	.dwattr $C$DW$44, DW_AT_name("buff_stop")
	.dwattr $C$DW$44, DW_AT_TI_symbol_name("buff_stop")
	.dwattr $C$DW$44, DW_AT_data_member_location[DW_OP_plus_uconst 0x10]
	.dwattr $C$DW$44, DW_AT_accessibility(DW_ACCESS_public)
	.dwattr $C$DW$44, DW_AT_decl_file("C:/ti/ccsv6/tools/compiler/ti-cgt-arm_5.2.4/include/stdio.h")
	.dwattr $C$DW$44, DW_AT_decl_line(0x60)
	.dwattr $C$DW$44, DW_AT_decl_column(0x16)
$C$DW$45	.dwtag  DW_TAG_member
	.dwattr $C$DW$45, DW_AT_type(*$C$DW$T$11)
	.dwattr $C$DW$45, DW_AT_name("flags")
	.dwattr $C$DW$45, DW_AT_TI_symbol_name("flags")
	.dwattr $C$DW$45, DW_AT_data_member_location[DW_OP_plus_uconst 0x14]
	.dwattr $C$DW$45, DW_AT_accessibility(DW_ACCESS_public)
	.dwattr $C$DW$45, DW_AT_decl_file("C:/ti/ccsv6/tools/compiler/ti-cgt-arm_5.2.4/include/stdio.h")
	.dwattr $C$DW$45, DW_AT_decl_line(0x61)
	.dwattr $C$DW$45, DW_AT_decl_column(0x16)
	.dwendtag $C$DW$T$23

	.dwattr $C$DW$T$23, DW_AT_decl_file("C:/ti/ccsv6/tools/compiler/ti-cgt-arm_5.2.4/include/stdio.h")
	.dwattr $C$DW$T$23, DW_AT_decl_line(0x5b)
	.dwattr $C$DW$T$23, DW_AT_decl_column(0x10)
$C$DW$T$28	.dwtag  DW_TAG_typedef, DW_AT_name("FILE")
	.dwattr $C$DW$T$28, DW_AT_type(*$C$DW$T$23)
	.dwattr $C$DW$T$28, DW_AT_language(DW_LANG_C)
	.dwattr $C$DW$T$28, DW_AT_decl_file("C:/ti/ccsv6/tools/compiler/ti-cgt-arm_5.2.4/include/stdio.h")
	.dwattr $C$DW$T$28, DW_AT_decl_line(0x62)
	.dwattr $C$DW$T$28, DW_AT_decl_column(0x03)
$C$DW$T$2	.dwtag  DW_TAG_unspecified_type
	.dwattr $C$DW$T$2, DW_AT_name("void")
$C$DW$T$3	.dwtag  DW_TAG_pointer_type
	.dwattr $C$DW$T$3, DW_AT_type(*$C$DW$T$2)
	.dwattr $C$DW$T$3, DW_AT_address_class(0x20)

$C$DW$T$37	.dwtag  DW_TAG_subroutine_type
	.dwattr $C$DW$T$37, DW_AT_language(DW_LANG_C)
$C$DW$T$38	.dwtag  DW_TAG_pointer_type
	.dwattr $C$DW$T$38, DW_AT_type(*$C$DW$T$37)
	.dwattr $C$DW$T$38, DW_AT_address_class(0x20)
$C$DW$T$39	.dwtag  DW_TAG_typedef, DW_AT_name("__TI_atexit_fn")
	.dwattr $C$DW$T$39, DW_AT_type(*$C$DW$T$38)
	.dwattr $C$DW$T$39, DW_AT_language(DW_LANG_C)
	.dwattr $C$DW$T$39, DW_AT_decl_file("C:/ti/ccsv6/tools/compiler/ti-cgt-arm_5.2.4/include/stdlib.h")
	.dwattr $C$DW$T$39, DW_AT_decl_line(0xb2)
	.dwattr $C$DW$T$39, DW_AT_decl_column(0x14)
$C$DW$T$40	.dwtag  DW_TAG_const_type
	.dwattr $C$DW$T$40, DW_AT_type(*$C$DW$T$2)
$C$DW$T$41	.dwtag  DW_TAG_pointer_type
	.dwattr $C$DW$T$41, DW_AT_type(*$C$DW$T$40)
	.dwattr $C$DW$T$41, DW_AT_address_class(0x20)
$C$DW$T$4	.dwtag  DW_TAG_base_type
	.dwattr $C$DW$T$4, DW_AT_encoding(DW_ATE_boolean)
	.dwattr $C$DW$T$4, DW_AT_name("bool")
	.dwattr $C$DW$T$4, DW_AT_byte_size(0x01)
$C$DW$T$5	.dwtag  DW_TAG_base_type
	.dwattr $C$DW$T$5, DW_AT_encoding(DW_ATE_signed_char)
	.dwattr $C$DW$T$5, DW_AT_name("signed char")
	.dwattr $C$DW$T$5, DW_AT_byte_size(0x01)
$C$DW$T$42	.dwtag  DW_TAG_typedef, DW_AT_name("int8_t")
	.dwattr $C$DW$T$42, DW_AT_type(*$C$DW$T$5)
	.dwattr $C$DW$T$42, DW_AT_language(DW_LANG_C)
	.dwattr $C$DW$T$42, DW_AT_decl_file("C:/ti/ccsv6/tools/compiler/ti-cgt-arm_5.2.4/include/stdint.h")
	.dwattr $C$DW$T$42, DW_AT_decl_line(0x2a)
	.dwattr $C$DW$T$42, DW_AT_decl_column(0x1d)
$C$DW$T$43	.dwtag  DW_TAG_typedef, DW_AT_name("int_least8_t")
	.dwattr $C$DW$T$43, DW_AT_type(*$C$DW$T$42)
	.dwattr $C$DW$T$43, DW_AT_language(DW_LANG_C)
	.dwattr $C$DW$T$43, DW_AT_decl_file("C:/ti/ccsv6/tools/compiler/ti-cgt-arm_5.2.4/include/stdint.h")
	.dwattr $C$DW$T$43, DW_AT_decl_line(0x37)
	.dwattr $C$DW$T$43, DW_AT_decl_column(0x17)
$C$DW$T$6	.dwtag  DW_TAG_base_type
	.dwattr $C$DW$T$6, DW_AT_encoding(DW_ATE_unsigned_char)
	.dwattr $C$DW$T$6, DW_AT_name("unsigned char")
	.dwattr $C$DW$T$6, DW_AT_byte_size(0x01)
$C$DW$T$22	.dwtag  DW_TAG_pointer_type
	.dwattr $C$DW$T$22, DW_AT_type(*$C$DW$T$6)
	.dwattr $C$DW$T$22, DW_AT_address_class(0x20)
$C$DW$T$44	.dwtag  DW_TAG_typedef, DW_AT_name("uint8_t")
	.dwattr $C$DW$T$44, DW_AT_type(*$C$DW$T$6)
	.dwattr $C$DW$T$44, DW_AT_language(DW_LANG_C)
	.dwattr $C$DW$T$44, DW_AT_decl_file("C:/ti/ccsv6/tools/compiler/ti-cgt-arm_5.2.4/include/stdint.h")
	.dwattr $C$DW$T$44, DW_AT_decl_line(0x2b)
	.dwattr $C$DW$T$44, DW_AT_decl_column(0x1c)
$C$DW$T$45	.dwtag  DW_TAG_typedef, DW_AT_name("uint_least8_t")
	.dwattr $C$DW$T$45, DW_AT_type(*$C$DW$T$44)
	.dwattr $C$DW$T$45, DW_AT_language(DW_LANG_C)
	.dwattr $C$DW$T$45, DW_AT_decl_file("C:/ti/ccsv6/tools/compiler/ti-cgt-arm_5.2.4/include/stdint.h")
	.dwattr $C$DW$T$45, DW_AT_decl_line(0x38)
	.dwattr $C$DW$T$45, DW_AT_decl_column(0x16)
$C$DW$T$7	.dwtag  DW_TAG_base_type
	.dwattr $C$DW$T$7, DW_AT_encoding(DW_ATE_signed_char)
	.dwattr $C$DW$T$7, DW_AT_name("wchar_t")
	.dwattr $C$DW$T$7, DW_AT_byte_size(0x02)
$C$DW$T$8	.dwtag  DW_TAG_base_type
	.dwattr $C$DW$T$8, DW_AT_encoding(DW_ATE_signed)
	.dwattr $C$DW$T$8, DW_AT_name("short")
	.dwattr $C$DW$T$8, DW_AT_byte_size(0x02)
$C$DW$T$46	.dwtag  DW_TAG_typedef, DW_AT_name("int16_t")
	.dwattr $C$DW$T$46, DW_AT_type(*$C$DW$T$8)
	.dwattr $C$DW$T$46, DW_AT_language(DW_LANG_C)
	.dwattr $C$DW$T$46, DW_AT_decl_file("C:/ti/ccsv6/tools/compiler/ti-cgt-arm_5.2.4/include/stdint.h")
	.dwattr $C$DW$T$46, DW_AT_decl_line(0x2c)
	.dwattr $C$DW$T$46, DW_AT_decl_column(0x1d)
$C$DW$T$47	.dwtag  DW_TAG_typedef, DW_AT_name("int_least16_t")
	.dwattr $C$DW$T$47, DW_AT_type(*$C$DW$T$46)
	.dwattr $C$DW$T$47, DW_AT_language(DW_LANG_C)
	.dwattr $C$DW$T$47, DW_AT_decl_file("C:/ti/ccsv6/tools/compiler/ti-cgt-arm_5.2.4/include/stdint.h")
	.dwattr $C$DW$T$47, DW_AT_decl_line(0x3a)
	.dwattr $C$DW$T$47, DW_AT_decl_column(0x17)
$C$DW$T$9	.dwtag  DW_TAG_base_type
	.dwattr $C$DW$T$9, DW_AT_encoding(DW_ATE_unsigned)
	.dwattr $C$DW$T$9, DW_AT_name("unsigned short")
	.dwattr $C$DW$T$9, DW_AT_byte_size(0x02)
$C$DW$T$48	.dwtag  DW_TAG_typedef, DW_AT_name("_Wchart")
	.dwattr $C$DW$T$48, DW_AT_type(*$C$DW$T$9)
	.dwattr $C$DW$T$48, DW_AT_language(DW_LANG_C)
	.dwattr $C$DW$T$48, DW_AT_decl_file("C:/ti/ccsv6/tools/compiler/ti-cgt-arm_5.2.4/include/yvals.h")
	.dwattr $C$DW$T$48, DW_AT_decl_line(0x1e5)
	.dwattr $C$DW$T$48, DW_AT_decl_column(0x21)
$C$DW$T$49	.dwtag  DW_TAG_typedef, DW_AT_name("_Wintt")
	.dwattr $C$DW$T$49, DW_AT_type(*$C$DW$T$9)
	.dwattr $C$DW$T$49, DW_AT_language(DW_LANG_C)
	.dwattr $C$DW$T$49, DW_AT_decl_file("C:/ti/ccsv6/tools/compiler/ti-cgt-arm_5.2.4/include/yvals.h")
	.dwattr $C$DW$T$49, DW_AT_decl_line(0x1e6)
	.dwattr $C$DW$T$49, DW_AT_decl_column(0x21)
$C$DW$T$50	.dwtag  DW_TAG_typedef, DW_AT_name("uint16_t")
	.dwattr $C$DW$T$50, DW_AT_type(*$C$DW$T$9)
	.dwattr $C$DW$T$50, DW_AT_language(DW_LANG_C)
	.dwattr $C$DW$T$50, DW_AT_decl_file("C:/ti/ccsv6/tools/compiler/ti-cgt-arm_5.2.4/include/stdint.h")
	.dwattr $C$DW$T$50, DW_AT_decl_line(0x2d)
	.dwattr $C$DW$T$50, DW_AT_decl_column(0x1c)
$C$DW$T$51	.dwtag  DW_TAG_typedef, DW_AT_name("uint_least16_t")
	.dwattr $C$DW$T$51, DW_AT_type(*$C$DW$T$50)
	.dwattr $C$DW$T$51, DW_AT_language(DW_LANG_C)
	.dwattr $C$DW$T$51, DW_AT_decl_file("C:/ti/ccsv6/tools/compiler/ti-cgt-arm_5.2.4/include/stdint.h")
	.dwattr $C$DW$T$51, DW_AT_decl_line(0x3b)
	.dwattr $C$DW$T$51, DW_AT_decl_column(0x16)
$C$DW$T$52	.dwtag  DW_TAG_typedef, DW_AT_name("wchar_t")
	.dwattr $C$DW$T$52, DW_AT_type(*$C$DW$T$9)
	.dwattr $C$DW$T$52, DW_AT_language(DW_LANG_C)
	.dwattr $C$DW$T$52, DW_AT_decl_file("C:/ti/ccsv6/tools/compiler/ti-cgt-arm_5.2.4/include/stdlib.h")
	.dwattr $C$DW$T$52, DW_AT_decl_line(0x75)
	.dwattr $C$DW$T$52, DW_AT_decl_column(0x1a)
$C$DW$T$10	.dwtag  DW_TAG_base_type
	.dwattr $C$DW$T$10, DW_AT_encoding(DW_ATE_signed)
	.dwattr $C$DW$T$10, DW_AT_name("int")
	.dwattr $C$DW$T$10, DW_AT_byte_size(0x04)
$C$DW$T$53	.dwtag  DW_TAG_typedef, DW_AT_name("_Ptrdifft")
	.dwattr $C$DW$T$53, DW_AT_type(*$C$DW$T$10)
	.dwattr $C$DW$T$53, DW_AT_language(DW_LANG_C)
	.dwattr $C$DW$T$53, DW_AT_decl_file("C:/ti/ccsv6/tools/compiler/ti-cgt-arm_5.2.4/include/yvals.h")
	.dwattr $C$DW$T$53, DW_AT_decl_line(0xa9)
	.dwattr $C$DW$T$53, DW_AT_decl_column(0x1e)

$C$DW$T$57	.dwtag  DW_TAG_subroutine_type
	.dwattr $C$DW$T$57, DW_AT_type(*$C$DW$T$10)
	.dwattr $C$DW$T$57, DW_AT_language(DW_LANG_C)
$C$DW$46	.dwtag  DW_TAG_formal_parameter
	.dwattr $C$DW$46, DW_AT_type(*$C$DW$T$41)
$C$DW$47	.dwtag  DW_TAG_formal_parameter
	.dwattr $C$DW$47, DW_AT_type(*$C$DW$T$41)
	.dwendtag $C$DW$T$57

$C$DW$T$58	.dwtag  DW_TAG_pointer_type
	.dwattr $C$DW$T$58, DW_AT_type(*$C$DW$T$57)
	.dwattr $C$DW$T$58, DW_AT_address_class(0x20)
$C$DW$T$59	.dwtag  DW_TAG_typedef, DW_AT_name("__TI_compar_fn")
	.dwattr $C$DW$T$59, DW_AT_type(*$C$DW$T$58)
	.dwattr $C$DW$T$59, DW_AT_language(DW_LANG_C)
	.dwattr $C$DW$T$59, DW_AT_decl_file("C:/ti/ccsv6/tools/compiler/ti-cgt-arm_5.2.4/include/stdlib.h")
	.dwattr $C$DW$T$59, DW_AT_decl_line(0xb5)
	.dwattr $C$DW$T$59, DW_AT_decl_column(0x13)
$C$DW$T$60	.dwtag  DW_TAG_typedef, DW_AT_name("int32_t")
	.dwattr $C$DW$T$60, DW_AT_type(*$C$DW$T$10)
	.dwattr $C$DW$T$60, DW_AT_language(DW_LANG_C)
	.dwattr $C$DW$T$60, DW_AT_decl_file("C:/ti/ccsv6/tools/compiler/ti-cgt-arm_5.2.4/include/stdint.h")
	.dwattr $C$DW$T$60, DW_AT_decl_line(0x2e)
	.dwattr $C$DW$T$60, DW_AT_decl_column(0x1d)
$C$DW$T$61	.dwtag  DW_TAG_typedef, DW_AT_name("int_fast16_t")
	.dwattr $C$DW$T$61, DW_AT_type(*$C$DW$T$60)
	.dwattr $C$DW$T$61, DW_AT_language(DW_LANG_C)
	.dwattr $C$DW$T$61, DW_AT_decl_file("C:/ti/ccsv6/tools/compiler/ti-cgt-arm_5.2.4/include/stdint.h")
	.dwattr $C$DW$T$61, DW_AT_decl_line(0x47)
	.dwattr $C$DW$T$61, DW_AT_decl_column(0x17)
$C$DW$T$62	.dwtag  DW_TAG_typedef, DW_AT_name("int_fast32_t")
	.dwattr $C$DW$T$62, DW_AT_type(*$C$DW$T$60)
	.dwattr $C$DW$T$62, DW_AT_language(DW_LANG_C)
	.dwattr $C$DW$T$62, DW_AT_decl_file("C:/ti/ccsv6/tools/compiler/ti-cgt-arm_5.2.4/include/stdint.h")
	.dwattr $C$DW$T$62, DW_AT_decl_line(0x4a)
	.dwattr $C$DW$T$62, DW_AT_decl_column(0x17)
$C$DW$T$63	.dwtag  DW_TAG_typedef, DW_AT_name("int_fast8_t")
	.dwattr $C$DW$T$63, DW_AT_type(*$C$DW$T$60)
	.dwattr $C$DW$T$63, DW_AT_language(DW_LANG_C)
	.dwattr $C$DW$T$63, DW_AT_decl_file("C:/ti/ccsv6/tools/compiler/ti-cgt-arm_5.2.4/include/stdint.h")
	.dwattr $C$DW$T$63, DW_AT_decl_line(0x45)
	.dwattr $C$DW$T$63, DW_AT_decl_column(0x17)
$C$DW$T$64	.dwtag  DW_TAG_typedef, DW_AT_name("int_least32_t")
	.dwattr $C$DW$T$64, DW_AT_type(*$C$DW$T$60)
	.dwattr $C$DW$T$64, DW_AT_language(DW_LANG_C)
	.dwattr $C$DW$T$64, DW_AT_decl_file("C:/ti/ccsv6/tools/compiler/ti-cgt-arm_5.2.4/include/stdint.h")
	.dwattr $C$DW$T$64, DW_AT_decl_line(0x3c)
	.dwattr $C$DW$T$64, DW_AT_decl_column(0x17)
$C$DW$T$65	.dwtag  DW_TAG_typedef, DW_AT_name("intptr_t")
	.dwattr $C$DW$T$65, DW_AT_type(*$C$DW$T$10)
	.dwattr $C$DW$T$65, DW_AT_language(DW_LANG_C)
	.dwattr $C$DW$T$65, DW_AT_decl_file("C:/ti/ccsv6/tools/compiler/ti-cgt-arm_5.2.4/include/stdint.h")
	.dwattr $C$DW$T$65, DW_AT_decl_line(0x52)
	.dwattr $C$DW$T$65, DW_AT_decl_column(0x1a)
$C$DW$T$11	.dwtag  DW_TAG_base_type
	.dwattr $C$DW$T$11, DW_AT_encoding(DW_ATE_unsigned)
	.dwattr $C$DW$T$11, DW_AT_name("unsigned int")
	.dwattr $C$DW$T$11, DW_AT_byte_size(0x04)
$C$DW$T$66	.dwtag  DW_TAG_typedef, DW_AT_name("_Sizet")
	.dwattr $C$DW$T$66, DW_AT_type(*$C$DW$T$11)
	.dwattr $C$DW$T$66, DW_AT_language(DW_LANG_C)
	.dwattr $C$DW$T$66, DW_AT_decl_file("C:/ti/ccsv6/tools/compiler/ti-cgt-arm_5.2.4/include/yvals.h")
	.dwattr $C$DW$T$66, DW_AT_decl_line(0xab)
	.dwattr $C$DW$T$66, DW_AT_decl_column(0x1a)
$C$DW$T$68	.dwtag  DW_TAG_typedef, DW_AT_name("size_t")
	.dwattr $C$DW$T$68, DW_AT_type(*$C$DW$T$11)
	.dwattr $C$DW$T$68, DW_AT_language(DW_LANG_C)
	.dwattr $C$DW$T$68, DW_AT_decl_file("C:/ti/ccsv6/tools/compiler/ti-cgt-arm_5.2.4/include/string.h")
	.dwattr $C$DW$T$68, DW_AT_decl_line(0x3d)
	.dwattr $C$DW$T$68, DW_AT_decl_column(0x19)
$C$DW$T$29	.dwtag  DW_TAG_typedef, DW_AT_name("uint32_t")
	.dwattr $C$DW$T$29, DW_AT_type(*$C$DW$T$11)
	.dwattr $C$DW$T$29, DW_AT_language(DW_LANG_C)
	.dwattr $C$DW$T$29, DW_AT_decl_file("C:/ti/ccsv6/tools/compiler/ti-cgt-arm_5.2.4/include/stdint.h")
	.dwattr $C$DW$T$29, DW_AT_decl_line(0x2f)
	.dwattr $C$DW$T$29, DW_AT_decl_column(0x1c)
$C$DW$T$71	.dwtag  DW_TAG_typedef, DW_AT_name("uint_fast16_t")
	.dwattr $C$DW$T$71, DW_AT_type(*$C$DW$T$29)
	.dwattr $C$DW$T$71, DW_AT_language(DW_LANG_C)
	.dwattr $C$DW$T$71, DW_AT_decl_file("C:/ti/ccsv6/tools/compiler/ti-cgt-arm_5.2.4/include/stdint.h")
	.dwattr $C$DW$T$71, DW_AT_decl_line(0x48)
	.dwattr $C$DW$T$71, DW_AT_decl_column(0x16)
$C$DW$T$72	.dwtag  DW_TAG_typedef, DW_AT_name("uint_fast32_t")
	.dwattr $C$DW$T$72, DW_AT_type(*$C$DW$T$29)
	.dwattr $C$DW$T$72, DW_AT_language(DW_LANG_C)
	.dwattr $C$DW$T$72, DW_AT_decl_file("C:/ti/ccsv6/tools/compiler/ti-cgt-arm_5.2.4/include/stdint.h")
	.dwattr $C$DW$T$72, DW_AT_decl_line(0x4b)
	.dwattr $C$DW$T$72, DW_AT_decl_column(0x16)
$C$DW$T$73	.dwtag  DW_TAG_typedef, DW_AT_name("uint_fast8_t")
	.dwattr $C$DW$T$73, DW_AT_type(*$C$DW$T$29)
	.dwattr $C$DW$T$73, DW_AT_language(DW_LANG_C)
	.dwattr $C$DW$T$73, DW_AT_decl_file("C:/ti/ccsv6/tools/compiler/ti-cgt-arm_5.2.4/include/stdint.h")
	.dwattr $C$DW$T$73, DW_AT_decl_line(0x46)
	.dwattr $C$DW$T$73, DW_AT_decl_column(0x16)
$C$DW$T$74	.dwtag  DW_TAG_typedef, DW_AT_name("uint_least32_t")
	.dwattr $C$DW$T$74, DW_AT_type(*$C$DW$T$29)
	.dwattr $C$DW$T$74, DW_AT_language(DW_LANG_C)
	.dwattr $C$DW$T$74, DW_AT_decl_file("C:/ti/ccsv6/tools/compiler/ti-cgt-arm_5.2.4/include/stdint.h")
	.dwattr $C$DW$T$74, DW_AT_decl_line(0x3d)
	.dwattr $C$DW$T$74, DW_AT_decl_column(0x16)
$C$DW$T$75	.dwtag  DW_TAG_typedef, DW_AT_name("uintptr_t")
	.dwattr $C$DW$T$75, DW_AT_type(*$C$DW$T$11)
	.dwattr $C$DW$T$75, DW_AT_language(DW_LANG_C)
	.dwattr $C$DW$T$75, DW_AT_decl_file("C:/ti/ccsv6/tools/compiler/ti-cgt-arm_5.2.4/include/stdint.h")
	.dwattr $C$DW$T$75, DW_AT_decl_line(0x53)
	.dwattr $C$DW$T$75, DW_AT_decl_column(0x1a)
$C$DW$T$12	.dwtag  DW_TAG_base_type
	.dwattr $C$DW$T$12, DW_AT_encoding(DW_ATE_signed)
	.dwattr $C$DW$T$12, DW_AT_name("long")
	.dwattr $C$DW$T$12, DW_AT_byte_size(0x04)
$C$DW$T$76	.dwtag  DW_TAG_typedef, DW_AT_name("_Int32t")
	.dwattr $C$DW$T$76, DW_AT_type(*$C$DW$T$12)
	.dwattr $C$DW$T$76, DW_AT_language(DW_LANG_C)
	.dwattr $C$DW$T$76, DW_AT_decl_file("C:/ti/ccsv6/tools/compiler/ti-cgt-arm_5.2.4/include/yvals.h")
	.dwattr $C$DW$T$76, DW_AT_decl_line(0xa6)
	.dwattr $C$DW$T$76, DW_AT_decl_column(0x0e)
$C$DW$T$77	.dwtag  DW_TAG_typedef, DW_AT_name("fpos_t")
	.dwattr $C$DW$T$77, DW_AT_type(*$C$DW$T$12)
	.dwattr $C$DW$T$77, DW_AT_language(DW_LANG_C)
	.dwattr $C$DW$T$77, DW_AT_decl_file("C:/ti/ccsv6/tools/compiler/ti-cgt-arm_5.2.4/include/stdio.h")
	.dwattr $C$DW$T$77, DW_AT_decl_line(0x6e)
	.dwattr $C$DW$T$77, DW_AT_decl_column(0x0e)
$C$DW$T$13	.dwtag  DW_TAG_base_type
	.dwattr $C$DW$T$13, DW_AT_encoding(DW_ATE_unsigned)
	.dwattr $C$DW$T$13, DW_AT_name("unsigned long")
	.dwattr $C$DW$T$13, DW_AT_byte_size(0x04)
$C$DW$T$78	.dwtag  DW_TAG_typedef, DW_AT_name("_Uint32t")
	.dwattr $C$DW$T$78, DW_AT_type(*$C$DW$T$13)
	.dwattr $C$DW$T$78, DW_AT_language(DW_LANG_C)
	.dwattr $C$DW$T$78, DW_AT_decl_file("C:/ti/ccsv6/tools/compiler/ti-cgt-arm_5.2.4/include/yvals.h")
	.dwattr $C$DW$T$78, DW_AT_decl_line(0xa7)
	.dwattr $C$DW$T$78, DW_AT_decl_column(0x17)
$C$DW$T$14	.dwtag  DW_TAG_base_type
	.dwattr $C$DW$T$14, DW_AT_encoding(DW_ATE_signed)
	.dwattr $C$DW$T$14, DW_AT_name("long long")
	.dwattr $C$DW$T$14, DW_AT_byte_size(0x08)
$C$DW$T$79	.dwtag  DW_TAG_typedef, DW_AT_name("_Longlong")
	.dwattr $C$DW$T$79, DW_AT_type(*$C$DW$T$14)
	.dwattr $C$DW$T$79, DW_AT_language(DW_LANG_C)
	.dwattr $C$DW$T$79, DW_AT_decl_file("C:/ti/ccsv6/tools/compiler/ti-cgt-arm_5.2.4/include/yvals.h")
	.dwattr $C$DW$T$79, DW_AT_decl_line(0x1b5)
	.dwattr $C$DW$T$79, DW_AT_decl_column(0x13)
$C$DW$T$80	.dwtag  DW_TAG_typedef, DW_AT_name("int64_t")
	.dwattr $C$DW$T$80, DW_AT_type(*$C$DW$T$14)
	.dwattr $C$DW$T$80, DW_AT_language(DW_LANG_C)
	.dwattr $C$DW$T$80, DW_AT_decl_file("C:/ti/ccsv6/tools/compiler/ti-cgt-arm_5.2.4/include/stdint.h")
	.dwattr $C$DW$T$80, DW_AT_decl_line(0x32)
	.dwattr $C$DW$T$80, DW_AT_decl_column(0x21)
$C$DW$T$81	.dwtag  DW_TAG_typedef, DW_AT_name("int_fast64_t")
	.dwattr $C$DW$T$81, DW_AT_type(*$C$DW$T$80)
	.dwattr $C$DW$T$81, DW_AT_language(DW_LANG_C)
	.dwattr $C$DW$T$81, DW_AT_decl_file("C:/ti/ccsv6/tools/compiler/ti-cgt-arm_5.2.4/include/stdint.h")
	.dwattr $C$DW$T$81, DW_AT_decl_line(0x4e)
	.dwattr $C$DW$T$81, DW_AT_decl_column(0x17)
$C$DW$T$82	.dwtag  DW_TAG_typedef, DW_AT_name("int_least64_t")
	.dwattr $C$DW$T$82, DW_AT_type(*$C$DW$T$80)
	.dwattr $C$DW$T$82, DW_AT_language(DW_LANG_C)
	.dwattr $C$DW$T$82, DW_AT_decl_file("C:/ti/ccsv6/tools/compiler/ti-cgt-arm_5.2.4/include/stdint.h")
	.dwattr $C$DW$T$82, DW_AT_decl_line(0x40)
	.dwattr $C$DW$T$82, DW_AT_decl_column(0x17)
$C$DW$T$83	.dwtag  DW_TAG_typedef, DW_AT_name("intmax_t")
	.dwattr $C$DW$T$83, DW_AT_type(*$C$DW$T$14)
	.dwattr $C$DW$T$83, DW_AT_language(DW_LANG_C)
	.dwattr $C$DW$T$83, DW_AT_decl_file("C:/ti/ccsv6/tools/compiler/ti-cgt-arm_5.2.4/include/stdint.h")
	.dwattr $C$DW$T$83, DW_AT_decl_line(0x56)
	.dwattr $C$DW$T$83, DW_AT_decl_column(0x20)
$C$DW$T$15	.dwtag  DW_TAG_base_type
	.dwattr $C$DW$T$15, DW_AT_encoding(DW_ATE_unsigned)
	.dwattr $C$DW$T$15, DW_AT_name("unsigned long long")
	.dwattr $C$DW$T$15, DW_AT_byte_size(0x08)
$C$DW$T$84	.dwtag  DW_TAG_typedef, DW_AT_name("_ULonglong")
	.dwattr $C$DW$T$84, DW_AT_type(*$C$DW$T$15)
	.dwattr $C$DW$T$84, DW_AT_language(DW_LANG_C)
	.dwattr $C$DW$T$84, DW_AT_decl_file("C:/ti/ccsv6/tools/compiler/ti-cgt-arm_5.2.4/include/yvals.h")
	.dwattr $C$DW$T$84, DW_AT_decl_line(0x1b6)
	.dwattr $C$DW$T$84, DW_AT_decl_column(0x14)
$C$DW$T$85	.dwtag  DW_TAG_typedef, DW_AT_name("uint64_t")
	.dwattr $C$DW$T$85, DW_AT_type(*$C$DW$T$15)
	.dwattr $C$DW$T$85, DW_AT_language(DW_LANG_C)
	.dwattr $C$DW$T$85, DW_AT_decl_file("C:/ti/ccsv6/tools/compiler/ti-cgt-arm_5.2.4/include/stdint.h")
	.dwattr $C$DW$T$85, DW_AT_decl_line(0x33)
	.dwattr $C$DW$T$85, DW_AT_decl_column(0x20)
$C$DW$T$86	.dwtag  DW_TAG_typedef, DW_AT_name("uint_fast64_t")
	.dwattr $C$DW$T$86, DW_AT_type(*$C$DW$T$85)
	.dwattr $C$DW$T$86, DW_AT_language(DW_LANG_C)
	.dwattr $C$DW$T$86, DW_AT_decl_file("C:/ti/ccsv6/tools/compiler/ti-cgt-arm_5.2.4/include/stdint.h")
	.dwattr $C$DW$T$86, DW_AT_decl_line(0x4f)
	.dwattr $C$DW$T$86, DW_AT_decl_column(0x16)
$C$DW$T$87	.dwtag  DW_TAG_typedef, DW_AT_name("uint_least64_t")
	.dwattr $C$DW$T$87, DW_AT_type(*$C$DW$T$85)
	.dwattr $C$DW$T$87, DW_AT_language(DW_LANG_C)
	.dwattr $C$DW$T$87, DW_AT_decl_file("C:/ti/ccsv6/tools/compiler/ti-cgt-arm_5.2.4/include/stdint.h")
	.dwattr $C$DW$T$87, DW_AT_decl_line(0x41)
	.dwattr $C$DW$T$87, DW_AT_decl_column(0x16)
$C$DW$T$88	.dwtag  DW_TAG_typedef, DW_AT_name("uintmax_t")
	.dwattr $C$DW$T$88, DW_AT_type(*$C$DW$T$15)
	.dwattr $C$DW$T$88, DW_AT_language(DW_LANG_C)
	.dwattr $C$DW$T$88, DW_AT_decl_file("C:/ti/ccsv6/tools/compiler/ti-cgt-arm_5.2.4/include/stdint.h")
	.dwattr $C$DW$T$88, DW_AT_decl_line(0x57)
	.dwattr $C$DW$T$88, DW_AT_decl_column(0x20)
$C$DW$T$16	.dwtag  DW_TAG_base_type
	.dwattr $C$DW$T$16, DW_AT_encoding(DW_ATE_float)
	.dwattr $C$DW$T$16, DW_AT_name("float")
	.dwattr $C$DW$T$16, DW_AT_byte_size(0x04)
$C$DW$T$17	.dwtag  DW_TAG_base_type
	.dwattr $C$DW$T$17, DW_AT_encoding(DW_ATE_float)
	.dwattr $C$DW$T$17, DW_AT_name("double")
	.dwattr $C$DW$T$17, DW_AT_byte_size(0x08)
$C$DW$T$18	.dwtag  DW_TAG_base_type
	.dwattr $C$DW$T$18, DW_AT_encoding(DW_ATE_float)
	.dwattr $C$DW$T$18, DW_AT_name("long double")
	.dwattr $C$DW$T$18, DW_AT_byte_size(0x08)
$C$DW$T$89	.dwtag  DW_TAG_typedef, DW_AT_name("_Sysch_t")
	.dwattr $C$DW$T$89, DW_AT_type(*$C$DW$T$6)
	.dwattr $C$DW$T$89, DW_AT_language(DW_LANG_C)
	.dwattr $C$DW$T$89, DW_AT_decl_file("C:/ti/ccsv6/tools/compiler/ti-cgt-arm_5.2.4/include/yvals.h")
	.dwattr $C$DW$T$89, DW_AT_decl_line(0x218)
	.dwattr $C$DW$T$89, DW_AT_decl_column(0x0e)
$C$DW$T$33	.dwtag  DW_TAG_const_type
	.dwattr $C$DW$T$33, DW_AT_type(*$C$DW$T$6)
$C$DW$T$34	.dwtag  DW_TAG_pointer_type
	.dwattr $C$DW$T$34, DW_AT_type(*$C$DW$T$33)
	.dwattr $C$DW$T$34, DW_AT_address_class(0x20)

$C$DW$T$90	.dwtag  DW_TAG_array_type
	.dwattr $C$DW$T$90, DW_AT_type(*$C$DW$T$33)
	.dwattr $C$DW$T$90, DW_AT_language(DW_LANG_C)
	.dwattr $C$DW$T$90, DW_AT_byte_size(0xec)
$C$DW$48	.dwtag  DW_TAG_subrange_type
	.dwattr $C$DW$48, DW_AT_upper_bound(0xeb)
	.dwendtag $C$DW$T$90


$C$DW$T$91	.dwtag  DW_TAG_array_type
	.dwattr $C$DW$T$91, DW_AT_type(*$C$DW$T$33)
	.dwattr $C$DW$T$91, DW_AT_language(DW_LANG_C)
	.dwattr $C$DW$T$91, DW_AT_byte_size(0x4e)
$C$DW$49	.dwtag  DW_TAG_subrange_type
	.dwattr $C$DW$49, DW_AT_upper_bound(0x4d)
	.dwendtag $C$DW$T$91

$C$DW$T$54	.dwtag  DW_TAG_pointer_type
	.dwattr $C$DW$T$54, DW_AT_type(*$C$DW$T$6)
	.dwattr $C$DW$T$54, DW_AT_address_class(0x20)
$C$DW$T$92	.dwtag  DW_TAG_typedef, DW_AT_name("__builtin_va_list")
	.dwattr $C$DW$T$92, DW_AT_type(*$C$DW$T$54)
	.dwattr $C$DW$T$92, DW_AT_language(DW_LANG_C)
	.dwattr $C$DW$T$92, DW_AT_decl_file("../http.c")
	.dwattr $C$DW$T$92, DW_AT_decl_line(0x66)
	.dwattr $C$DW$T$92, DW_AT_decl_column(0x01)

$C$DW$T$93	.dwtag  DW_TAG_array_type
	.dwattr $C$DW$T$93, DW_AT_type(*$C$DW$T$6)
	.dwattr $C$DW$T$93, DW_AT_language(DW_LANG_C)
$C$DW$50	.dwtag  DW_TAG_subrange_type
	.dwendtag $C$DW$T$93


$C$DW$T$95	.dwtag  DW_TAG_array_type
	.dwattr $C$DW$T$95, DW_AT_type(*$C$DW$T$6)
	.dwattr $C$DW$T$95, DW_AT_language(DW_LANG_C)
	.dwattr $C$DW$T$95, DW_AT_byte_size(0x4e)
$C$DW$51	.dwtag  DW_TAG_subrange_type
	.dwattr $C$DW$51, DW_AT_upper_bound(0x4d)
	.dwendtag $C$DW$T$95


$C$DW$T$96	.dwtag  DW_TAG_array_type
	.dwattr $C$DW$T$96, DW_AT_type(*$C$DW$T$6)
	.dwattr $C$DW$T$96, DW_AT_language(DW_LANG_C)
	.dwattr $C$DW$T$96, DW_AT_byte_size(0x10)
$C$DW$52	.dwtag  DW_TAG_subrange_type
	.dwattr $C$DW$52, DW_AT_upper_bound(0x0f)
	.dwendtag $C$DW$T$96


$C$DW$T$24	.dwtag  DW_TAG_structure_type
	.dwattr $C$DW$T$24, DW_AT_name("__va_list")
	.dwattr $C$DW$T$24, DW_AT_byte_size(0x04)
$C$DW$53	.dwtag  DW_TAG_member
	.dwattr $C$DW$53, DW_AT_type(*$C$DW$T$3)
	.dwattr $C$DW$53, DW_AT_name("__ap")
	.dwattr $C$DW$53, DW_AT_TI_symbol_name("__ap")
	.dwattr $C$DW$53, DW_AT_data_member_location[DW_OP_plus_uconst 0x0]
	.dwattr $C$DW$53, DW_AT_accessibility(DW_ACCESS_public)
	.dwattr $C$DW$53, DW_AT_decl_file("C:/ti/ccsv6/tools/compiler/ti-cgt-arm_5.2.4/include/stdarg.h")
	.dwattr $C$DW$53, DW_AT_decl_line(0x36)
	.dwattr $C$DW$53, DW_AT_decl_column(0x0c)
	.dwendtag $C$DW$T$24

	.dwattr $C$DW$T$24, DW_AT_decl_file("C:/ti/ccsv6/tools/compiler/ti-cgt-arm_5.2.4/include/stdarg.h")
	.dwattr $C$DW$T$24, DW_AT_decl_line(0x35)
	.dwattr $C$DW$T$24, DW_AT_decl_column(0x10)
$C$DW$T$101	.dwtag  DW_TAG_typedef, DW_AT_name("va_list")
	.dwattr $C$DW$T$101, DW_AT_type(*$C$DW$T$24)
	.dwattr $C$DW$T$101, DW_AT_language(DW_LANG_C)
	.dwattr $C$DW$T$101, DW_AT_decl_file("C:/ti/ccsv6/tools/compiler/ti-cgt-arm_5.2.4/include/stdarg.h")
	.dwattr $C$DW$T$101, DW_AT_decl_line(0x37)
	.dwattr $C$DW$T$101, DW_AT_decl_column(0x03)
$C$DW$T$102	.dwtag  DW_TAG_typedef, DW_AT_name("_Va_list")
	.dwattr $C$DW$T$102, DW_AT_type(*$C$DW$T$101)
	.dwattr $C$DW$T$102, DW_AT_language(DW_LANG_C)
	.dwattr $C$DW$T$102, DW_AT_decl_file("C:/ti/ccsv6/tools/compiler/ti-cgt-arm_5.2.4/include/yvals.h")
	.dwattr $C$DW$T$102, DW_AT_decl_line(0x1f6)
	.dwattr $C$DW$T$102, DW_AT_decl_column(0x17)
	.dwattr $C$DW$CU, DW_AT_language(DW_LANG_C)

;***************************************************************
;* DWARF CIE ENTRIES                                           *
;***************************************************************

$C$DW$CIE	.dwcie 14
	.dwcfi	cfa_register, 13
	.dwcfi	cfa_offset, 0
	.dwcfi	undefined, 0
	.dwcfi	undefined, 1
	.dwcfi	undefined, 2
	.dwcfi	undefined, 3
	.dwcfi	same_value, 4
	.dwcfi	same_value, 5
	.dwcfi	same_value, 6
	.dwcfi	same_value, 7
	.dwcfi	same_value, 8
	.dwcfi	same_value, 9
	.dwcfi	same_value, 10
	.dwcfi	same_value, 11
	.dwcfi	undefined, 12
	.dwcfi	undefined, 13
	.dwcfi	undefined, 14
	.dwcfi	undefined, 14
	.dwcfi	undefined, 7
	.dwcfi	undefined, 64
	.dwcfi	undefined, 65
	.dwcfi	undefined, 66
	.dwcfi	undefined, 67
	.dwcfi	undefined, 68
	.dwcfi	undefined, 69
	.dwcfi	undefined, 70
	.dwcfi	undefined, 71
	.dwcfi	undefined, 72
	.dwcfi	undefined, 73
	.dwcfi	undefined, 74
	.dwcfi	undefined, 75
	.dwcfi	undefined, 76
	.dwcfi	undefined, 77
	.dwcfi	undefined, 78
	.dwcfi	undefined, 79
	.dwcfi	same_value, 80
	.dwcfi	same_value, 81
	.dwcfi	same_value, 82
	.dwcfi	same_value, 83
	.dwcfi	same_value, 84
	.dwcfi	same_value, 85
	.dwcfi	same_value, 86
	.dwcfi	same_value, 87
	.dwcfi	same_value, 88
	.dwcfi	same_value, 89
	.dwcfi	same_value, 90
	.dwcfi	same_value, 91
	.dwcfi	same_value, 92
	.dwcfi	same_value, 93
	.dwcfi	same_value, 94
	.dwcfi	same_value, 95
	.dwendentry
	.dwendtag $C$DW$CU

