TI ARM Assembler PC v5.2.4 Mon Jun 29 08:44:35 2015

Tools Copyright (c) 1996-2015 Texas Instruments Incorporated
tm4c123gh6pm_startup_ccs.asm                                         PAGE    1

       1                    ;******************************************************************************
       2                    ;* TI ARM C/C++ Codegen                                             PC v5.2.4 *
       3                    ;* Date/Time created: Mon Jun 29 08:44:35 2015                                *
       4                    ;******************************************************************************
       5                            .compiler_opts --abi=eabi --arm_vmrs_si_workaround=off --code_state=16 --diag_wrap=off --disab
       6 00000000                   .thumb
       7                    
       8                    $C$DW$CU        .dwtag  DW_TAG_compile_unit
       9                            .dwattr $C$DW$CU, DW_AT_name("../tm4c123gh6pm_startup_ccs.c")
      10                            .dwattr $C$DW$CU, DW_AT_producer("TI TI ARM C/C++ Codegen PC v5.2.4 Copyright (c) 1996-2015 Te
      11                            .dwattr $C$DW$CU, DW_AT_TI_version(0x01)
      12                            .dwattr $C$DW$CU, DW_AT_comp_dir("C:\Dropbox\ArmBook\LaunchPad\ValvanoWareTM4C123\Switch_4C123
      13                    $C$DW$1 .dwtag  DW_TAG_variable, DW_AT_name("__STACK_TOP")
      14                            .dwattr $C$DW$1, DW_AT_TI_symbol_name("__STACK_TOP")
      15                            .dwattr $C$DW$1, DW_AT_type(*$C$DW$T$37)
      16                            .dwattr $C$DW$1, DW_AT_declaration
      17                            .dwattr $C$DW$1, DW_AT_external
      18                            .dwattr $C$DW$1, DW_AT_decl_file("../tm4c123gh6pm_startup_ccs.c")
      19                            .dwattr $C$DW$1, DW_AT_decl_line(0x39)
      20                            .dwattr $C$DW$1, DW_AT_decl_column(0x11)
      21                            .global g_pfnVectors
      22 00000000                   .sect   ".intvecs"
      23                            .align  4
      24                            .elfsym g_pfnVectors,SYM_SIZE(620)
      25 00000000           g_pfnVectors:
      26 00000000 00000000!         .bits   __STACK_TOP,32          ; g_pfnVectors[0] @ 0
      27 00000004 00000000!         .bits   ResetISR,32             ; g_pfnVectors[1] @ 32
      28 00000008 00000000!         .bits   NmiSR,32                ; g_pfnVectors[2] @ 64
      29 0000000c 00000000!         .bits   FaultISR,32             ; g_pfnVectors[3] @ 96
      30 00000010 00000000!         .bits   IntDefaultHandler,32            ; g_pfnVectors[4] @ 128
      31 00000014 00000000!         .bits   IntDefaultHandler,32            ; g_pfnVectors[5] @ 160
      32 00000018 00000000!         .bits   IntDefaultHandler,32            ; g_pfnVectors[6] @ 192
      33 0000001c 00000000          .bits   0,32                    ; g_pfnVectors[7] @ 224
      34 00000020 00000000          .bits   0,32                    ; g_pfnVectors[8] @ 256
      35 00000024 00000000          .bits   0,32                    ; g_pfnVectors[9] @ 288
      36 00000028 00000000          .bits   0,32                    ; g_pfnVectors[10] @ 320
      37 0000002c 00000000!         .bits   SVC_Handler,32          ; g_pfnVectors[11] @ 352
      38 00000030 00000000!         .bits   DebugMon_Handler,32             ; g_pfnVectors[12] @ 384
      39 00000034 00000000          .bits   0,32                    ; g_pfnVectors[13] @ 416
      40 00000038 00000000!         .bits   PendSV_Handler,32               ; g_pfnVectors[14] @ 448
      41 0000003c 00000000!         .bits   SysTick_Handler,32              ; g_pfnVectors[15] @ 480
      42 00000040 00000000!         .bits   GPIOPortA_Handler,32            ; g_pfnVectors[16] @ 512
      43 00000044 00000000!         .bits   GPIOPortB_Handler,32            ; g_pfnVectors[17] @ 544
      44 00000048 00000000!         .bits   GPIOPortC_Handler,32            ; g_pfnVectors[18] @ 576
      45 0000004c 00000000!         .bits   GPIOPortD_Handler,32            ; g_pfnVectors[19] @ 608
      46 00000050 00000000!         .bits   GPIOPortE_Handler,32            ; g_pfnVectors[20] @ 640
      47 00000054 00000000!         .bits   UART0_Handler,32                ; g_pfnVectors[21] @ 672
      48 00000058 00000000!         .bits   UART1_Handler,32                ; g_pfnVectors[22] @ 704
      49 0000005c 00000000!         .bits   SSI0_Handler,32         ; g_pfnVectors[23] @ 736
      50 00000060 00000000!         .bits   I2C0_Handler,32         ; g_pfnVectors[24] @ 768
      51 00000064 00000000!         .bits   PWM0Fault_Handler,32            ; g_pfnVectors[25] @ 800
      52 00000068 00000000!         .bits   PWM0Generator0_Handler,32               ; g_pfnVectors[26] @ 832
      53 0000006c 00000000!         .bits   PWM0Generator1_Handler,32               ; g_pfnVectors[27] @ 864
      54 00000070 00000000!         .bits   PWM0Generator2_Handler,32               ; g_pfnVectors[28] @ 896
      55 00000074 00000000!         .bits   Quadrature0_Handler,32          ; g_pfnVectors[29] @ 928
TI ARM Assembler PC v5.2.4 Mon Jun 29 08:44:35 2015

Tools Copyright (c) 1996-2015 Texas Instruments Incorporated
tm4c123gh6pm_startup_ccs.asm                                         PAGE    2

      56 00000078 00000000!         .bits   ADC0Seq0_Handler,32             ; g_pfnVectors[30] @ 960
      57 0000007c 00000000!         .bits   ADC0Seq1_Handler,32             ; g_pfnVectors[31] @ 992
      58 00000080 00000000!         .bits   ADC0Seq2_Handler,32             ; g_pfnVectors[32] @ 1024
      59 00000084 00000000!         .bits   ADC0Seq3_Handler,32             ; g_pfnVectors[33] @ 1056
      60 00000088 00000000!         .bits   WDT_Handler,32          ; g_pfnVectors[34] @ 1088
      61 0000008c 00000000!         .bits   Timer0A_Handler,32              ; g_pfnVectors[35] @ 1120
      62 00000090 00000000!         .bits   Timer0B_Handler,32              ; g_pfnVectors[36] @ 1152
      63 00000094 00000000!         .bits   Timer1A_Handler,32              ; g_pfnVectors[37] @ 1184
      64 00000098 00000000!         .bits   Timer1B_Handler,32              ; g_pfnVectors[38] @ 1216
      65 0000009c 00000000!         .bits   Timer2A_Handler,32              ; g_pfnVectors[39] @ 1248
      66 000000a0 00000000!         .bits   Timer2B_Handler,32              ; g_pfnVectors[40] @ 1280
      67 000000a4 00000000!         .bits   Comp0_Handler,32                ; g_pfnVectors[41] @ 1312
      68 000000a8 00000000!         .bits   Comp1_Handler,32                ; g_pfnVectors[42] @ 1344
      69 000000ac 00000000!         .bits   Comp2_Handler,32                ; g_pfnVectors[43] @ 1376
      70 000000b0 00000000!         .bits   SysCtl_Handler,32               ; g_pfnVectors[44] @ 1408
      71 000000b4 00000000!         .bits   FlashCtl_Handler,32             ; g_pfnVectors[45] @ 1440
      72 000000b8 00000000!         .bits   GPIOPortF_Handler,32            ; g_pfnVectors[46] @ 1472
      73 000000bc 00000000!         .bits   GPIOPortG_Handler,32            ; g_pfnVectors[47] @ 1504
      74 000000c0 00000000!         .bits   GPIOPortH_Handler,32            ; g_pfnVectors[48] @ 1536
      75 000000c4 00000000!         .bits   UART2_Handler,32                ; g_pfnVectors[49] @ 1568
      76 000000c8 00000000!         .bits   SSI1_Handler,32         ; g_pfnVectors[50] @ 1600
      77 000000cc 00000000!         .bits   Timer3A_Handler,32              ; g_pfnVectors[51] @ 1632
      78 000000d0 00000000!         .bits   Timer3B_Handler,32              ; g_pfnVectors[52] @ 1664
      79 000000d4 00000000!         .bits   I2C1_Handler,32         ; g_pfnVectors[53] @ 1696
      80 000000d8 00000000!         .bits   Quadrature1_Handler,32          ; g_pfnVectors[54] @ 1728
      81 000000dc 00000000!         .bits   CAN0_Handler,32         ; g_pfnVectors[55] @ 1760
      82 000000e0 00000000!         .bits   CAN1_Handler,32         ; g_pfnVectors[56] @ 1792
      83 000000e4 00000000!         .bits   CAN2_Handler,32         ; g_pfnVectors[57] @ 1824
      84 000000e8 00000000!         .bits   Ethernet_Handler,32             ; g_pfnVectors[58] @ 1856
      85 000000ec 00000000!         .bits   Hibernate_Handler,32            ; g_pfnVectors[59] @ 1888
      86 000000f0 00000000!         .bits   USB0_Handler,32         ; g_pfnVectors[60] @ 1920
      87 000000f4 00000000!         .bits   PWM0Generator3_Handler,32               ; g_pfnVectors[61] @ 1952
      88 000000f8 00000000!         .bits   uDMA_Handler,32         ; g_pfnVectors[62] @ 1984
      89 000000fc 00000000!         .bits   uDMA_Error,32           ; g_pfnVectors[63] @ 2016
      90 00000100 00000000!         .bits   ADC1Seq0_Handler,32             ; g_pfnVectors[64] @ 2048
      91 00000104 00000000!         .bits   ADC1Seq1_Handler,32             ; g_pfnVectors[65] @ 2080
      92 00000108 00000000!         .bits   ADC1Seq2_Handler,32             ; g_pfnVectors[66] @ 2112
      93 0000010c 00000000!         .bits   ADC1Seq3_Handler,32             ; g_pfnVectors[67] @ 2144
      94 00000110 00000000!         .bits   I2S0_Handler,32         ; g_pfnVectors[68] @ 2176
      95 00000114 00000000!         .bits   ExtBus_Handler,32               ; g_pfnVectors[69] @ 2208
      96 00000118 00000000!         .bits   GPIOPortJ_Handler,32            ; g_pfnVectors[70] @ 2240
      97 0000011c 00000000!         .bits   GPIOPortK_Handler,32            ; g_pfnVectors[71] @ 2272
      98 00000120 00000000!         .bits   GPIOPortL_Handler,32            ; g_pfnVectors[72] @ 2304
      99 00000124 00000000!         .bits   SSI2_Handler,32         ; g_pfnVectors[73] @ 2336
     100 00000128 00000000!         .bits   SSI3_Handler,32         ; g_pfnVectors[74] @ 2368
     101 0000012c 00000000!         .bits   UART3_Handler,32                ; g_pfnVectors[75] @ 2400
     102 00000130 00000000!         .bits   UART4_Handler,32                ; g_pfnVectors[76] @ 2432
     103 00000134 00000000!         .bits   UART5_Handler,32                ; g_pfnVectors[77] @ 2464
     104 00000138 00000000!         .bits   UART6_Handler,32                ; g_pfnVectors[78] @ 2496
     105 0000013c 00000000!         .bits   UART7_Handler,32                ; g_pfnVectors[79] @ 2528
     106 00000140 00000000          .bits   0,32                    ; g_pfnVectors[80] @ 2560
     107 00000144 00000000          .bits   0,32                    ; g_pfnVectors[81] @ 2592
     108 00000148 00000000          .bits   0,32                    ; g_pfnVectors[82] @ 2624
     109 0000014c 00000000          .bits   0,32                    ; g_pfnVectors[83] @ 2656
     110 00000150 00000000!         .bits   I2C2_Handler,32         ; g_pfnVectors[84] @ 2688
TI ARM Assembler PC v5.2.4 Mon Jun 29 08:44:35 2015

Tools Copyright (c) 1996-2015 Texas Instruments Incorporated
tm4c123gh6pm_startup_ccs.asm                                         PAGE    3

     111 00000154 00000000!         .bits   I2C3_Handler,32         ; g_pfnVectors[85] @ 2720
     112 00000158 00000000!         .bits   Timer4A_Handler,32              ; g_pfnVectors[86] @ 2752
     113 0000015c 00000000!         .bits   Timer4B_Handler,32              ; g_pfnVectors[87] @ 2784
     114 00000160 00000000          .bits   0,32                    ; g_pfnVectors[88] @ 2816
     115 00000164 00000000          .bits   0,32                    ; g_pfnVectors[89] @ 2848
     116 00000168 00000000          .bits   0,32                    ; g_pfnVectors[90] @ 2880
     117 0000016c 00000000          .bits   0,32                    ; g_pfnVectors[91] @ 2912
     118 00000170 00000000          .bits   0,32                    ; g_pfnVectors[92] @ 2944
     119 00000174 00000000          .bits   0,32                    ; g_pfnVectors[93] @ 2976
     120 00000178 00000000          .bits   0,32                    ; g_pfnVectors[94] @ 3008
     121 0000017c 00000000          .bits   0,32                    ; g_pfnVectors[95] @ 3040
     122 00000180 00000000          .bits   0,32                    ; g_pfnVectors[96] @ 3072
     123 00000184 00000000          .bits   0,32                    ; g_pfnVectors[97] @ 3104
     124 00000188 00000000          .bits   0,32                    ; g_pfnVectors[98] @ 3136
     125 0000018c 00000000          .bits   0,32                    ; g_pfnVectors[99] @ 3168
     126 00000190 00000000          .bits   0,32                    ; g_pfnVectors[100] @ 3200
     127 00000194 00000000          .bits   0,32                    ; g_pfnVectors[101] @ 3232
     128 00000198 00000000          .bits   0,32                    ; g_pfnVectors[102] @ 3264
     129 0000019c 00000000          .bits   0,32                    ; g_pfnVectors[103] @ 3296
     130 000001a0 00000000          .bits   0,32                    ; g_pfnVectors[104] @ 3328
     131 000001a4 00000000          .bits   0,32                    ; g_pfnVectors[105] @ 3360
     132 000001a8 00000000          .bits   0,32                    ; g_pfnVectors[106] @ 3392
     133 000001ac 00000000          .bits   0,32                    ; g_pfnVectors[107] @ 3424
     134 000001b0 00000000!         .bits   Timer5A_Handler,32              ; g_pfnVectors[108] @ 3456
     135 000001b4 00000000!         .bits   Timer5B_Handler,32              ; g_pfnVectors[109] @ 3488
     136 000001b8 00000000!         .bits   WideTimer0A_Handler,32          ; g_pfnVectors[110] @ 3520
     137 000001bc 00000000!         .bits   WideTimer0B_Handler,32          ; g_pfnVectors[111] @ 3552
     138 000001c0 00000000!         .bits   WideTimer1A_Handler,32          ; g_pfnVectors[112] @ 3584
     139 000001c4 00000000!         .bits   WideTimer1B_Handler,32          ; g_pfnVectors[113] @ 3616
     140 000001c8 00000000!         .bits   WideTimer2A_Handler,32          ; g_pfnVectors[114] @ 3648
     141 000001cc 00000000!         .bits   WideTimer2B_Handler,32          ; g_pfnVectors[115] @ 3680
     142 000001d0 00000000!         .bits   WideTimer3A_Handler,32          ; g_pfnVectors[116] @ 3712
     143 000001d4 00000000!         .bits   WideTimer3B_Handler,32          ; g_pfnVectors[117] @ 3744
     144 000001d8 00000000!         .bits   WideTimer4A_Handler,32          ; g_pfnVectors[118] @ 3776
     145 000001dc 00000000!         .bits   WideTimer4B_Handler,32          ; g_pfnVectors[119] @ 3808
     146 000001e0 00000000!         .bits   WideTimer5A_Handler,32          ; g_pfnVectors[120] @ 3840
     147 000001e4 00000000!         .bits   WideTimer5B_Handler,32          ; g_pfnVectors[121] @ 3872
     148 000001e8 00000000!         .bits   FPU_Handler,32          ; g_pfnVectors[122] @ 3904
     149 000001ec 00000000!         .bits   PECI0_Handler,32                ; g_pfnVectors[123] @ 3936
     150 000001f0 00000000!         .bits   LPC0_Handler,32         ; g_pfnVectors[124] @ 3968
     151 000001f4 00000000!         .bits   I2C4_Handler,32         ; g_pfnVectors[125] @ 4000
     152 000001f8 00000000!         .bits   I2C5_Handler,32         ; g_pfnVectors[126] @ 4032
     153 000001fc 00000000!         .bits   GPIOPortM_Handler,32            ; g_pfnVectors[127] @ 4064
     154 00000200 00000000!         .bits   GPIOPortN_Handler,32            ; g_pfnVectors[128] @ 4096
     155 00000204 00000000!         .bits   Quadrature2_Handler,32          ; g_pfnVectors[129] @ 4128
     156 00000208 00000000!         .bits   Fan0_Handler,32         ; g_pfnVectors[130] @ 4160
     157 0000020c 00000000          .bits   0,32                    ; g_pfnVectors[131] @ 4192
     158 00000210 00000000!         .bits   GPIOPortP_Handler,32            ; g_pfnVectors[132] @ 4224
     159 00000214 00000000!         .bits   GPIOPortP1_Handler,32           ; g_pfnVectors[133] @ 4256
     160 00000218 00000000!         .bits   GPIOPortP2_Handler,32           ; g_pfnVectors[134] @ 4288
     161 0000021c 00000000!         .bits   GPIOPortP3_Handler,32           ; g_pfnVectors[135] @ 4320
     162 00000220 00000000!         .bits   GPIOPortP4_Handler,32           ; g_pfnVectors[136] @ 4352
     163 00000224 00000000!         .bits   GPIOPortP5_Handler,32           ; g_pfnVectors[137] @ 4384
     164 00000228 00000000!         .bits   GPIOPortP6_Handler,32           ; g_pfnVectors[138] @ 4416
     165 0000022c 00000000!         .bits   GPIOPortP7_Handler,32           ; g_pfnVectors[139] @ 4448
TI ARM Assembler PC v5.2.4 Mon Jun 29 08:44:35 2015

Tools Copyright (c) 1996-2015 Texas Instruments Incorporated
tm4c123gh6pm_startup_ccs.asm                                         PAGE    4

     166 00000230 00000000!         .bits   GPIOPortQ_Handler,32            ; g_pfnVectors[140] @ 4480
     167 00000234 00000000!         .bits   GPIOPortQ1_Handler,32           ; g_pfnVectors[141] @ 4512
     168 00000238 00000000!         .bits   GPIOPortQ2_Handler,32           ; g_pfnVectors[142] @ 4544
     169 0000023c 00000000!         .bits   GPIOPortQ3_Handler,32           ; g_pfnVectors[143] @ 4576
     170 00000240 00000000!         .bits   GPIOPortQ4_Handler,32           ; g_pfnVectors[144] @ 4608
     171 00000244 00000000!         .bits   GPIOPortQ5_Handler,32           ; g_pfnVectors[145] @ 4640
     172 00000248 00000000!         .bits   GPIOPortQ6_Handler,32           ; g_pfnVectors[146] @ 4672
     173 0000024c 00000000!         .bits   GPIOPortQ7_Handler,32           ; g_pfnVectors[147] @ 4704
     174 00000250 00000000!         .bits   GPIOPortR_Handler,32            ; g_pfnVectors[148] @ 4736
     175 00000254 00000000!         .bits   GPIOPortS_Handler,32            ; g_pfnVectors[149] @ 4768
     176 00000258 00000000!         .bits   PWM1Generator0_Handler,32               ; g_pfnVectors[150] @ 4800
     177 0000025c 00000000!         .bits   PWM1Generator1_Handler,32               ; g_pfnVectors[151] @ 4832
     178 00000260 00000000!         .bits   PWM1Generator2_Handler,32               ; g_pfnVectors[152] @ 4864
     179 00000264 00000000!         .bits   PWM1Generator3_Handler,32               ; g_pfnVectors[153] @ 4896
     180 00000268 00000000!         .bits   PWM1Fault_Handler,32            ; g_pfnVectors[154] @ 4928
     181                    
     182                    $C$DW$2 .dwtag  DW_TAG_variable, DW_AT_name("g_pfnVectors")
     183                            .dwattr $C$DW$2, DW_AT_TI_symbol_name("g_pfnVectors")
     184                            .dwattr $C$DW$2, DW_AT_location[DW_OP_addr g_pfnVectors]
     185                            .dwattr $C$DW$2, DW_AT_type(*$C$DW$T$22)
     186                            .dwattr $C$DW$2, DW_AT_external
     187                            .dwattr $C$DW$2, DW_AT_decl_file("../tm4c123gh6pm_startup_ccs.c")
     188                            .dwattr $C$DW$2, DW_AT_decl_line(0xc2)
     189                            .dwattr $C$DW$2, DW_AT_decl_column(0x0f)
     190                    ;       C:\ti\ccsv6\tools\compiler\ti-cgt-arm_5.2.4\bin\armacpia.exe -@C:\\Users\\VALVAN~1\\AppData\\L
     191 00000000                   .sect   ".text"
     192                            .clink
     193                            .thumbfunc ResetISR
     194 00000000                   .thumb
     195                            .global ResetISR
     196                    
     197                    $C$DW$3 .dwtag  DW_TAG_subprogram, DW_AT_name("ResetISR")
     198                            .dwattr $C$DW$3, DW_AT_low_pc(ResetISR)
     199                            .dwattr $C$DW$3, DW_AT_high_pc(0x00)
     200                            .dwattr $C$DW$3, DW_AT_TI_symbol_name("ResetISR")
     201                            .dwattr $C$DW$3, DW_AT_external
     202                            .dwattr $C$DW$3, DW_AT_TI_begin_file("../tm4c123gh6pm_startup_ccs.c")
     203                            .dwattr $C$DW$3, DW_AT_TI_begin_line(0x173)
     204                            .dwattr $C$DW$3, DW_AT_TI_begin_column(0x01)
     205                            .dwattr $C$DW$3, DW_AT_decl_file("../tm4c123gh6pm_startup_ccs.c")
     206                            .dwattr $C$DW$3, DW_AT_decl_line(0x173)
     207                            .dwattr $C$DW$3, DW_AT_decl_column(0x01)
     208                            .dwattr $C$DW$3, DW_AT_TI_max_frame_size(0x00)
     209                            .dwpsn  file "../tm4c123gh6pm_startup_ccs.c",line 372,column 1,is_stmt,address ResetISR,isa 1
     210                    
     211                            .dwfde $C$DW$CIE, ResetISR
     212                    
     213                    ;*****************************************************************************
     214                    ;* FUNCTION NAME: ResetISR                                                   *
     215                    ;*                                                                           *
     216                    ;*   Regs Modified     :                                                     *
     217                    ;*   Regs Used         : LR                                                  *
     218                    ;*   Local Frame Size  : 0 Args + 0 Auto + 0 Save = 0 byte                   *
     219                    ;*****************************************************************************
     220 00000000           ResetISR:
TI ARM Assembler PC v5.2.4 Mon Jun 29 08:44:35 2015

Tools Copyright (c) 1996-2015 Texas Instruments Incorporated
tm4c123gh6pm_startup_ccs.asm                                         PAGE    5

     221                    ;* --------------------------------------------------------------------------*
     222                            .dwcfi  cfa_offset, 0
     223                            .dwpsn  file "../tm4c123gh6pm_startup_ccs.c",line 377,column 5,is_stmt,isa 1
     224                        .global _c_int00
     225 00000000 BFFEF7FF!     b.w     _c_int00 ; [KEEP 32-BIT INS]
     226                            .dwpsn  file "../tm4c123gh6pm_startup_ccs.c",line 379,column 1,is_stmt,isa 1
     227                    $C$DW$4 .dwtag  DW_TAG_TI_branch
     228                            .dwattr $C$DW$4, DW_AT_low_pc(0x00)
     229                            .dwattr $C$DW$4, DW_AT_TI_return
     230 00000004 4770              BX        LR                    ; [DPU_3_PIPE]  ; [ORIG 16-BIT INS]
     231                            ; BRANCH OCCURS                  ; [] 
     232                            .dwattr $C$DW$3, DW_AT_TI_end_file("../tm4c123gh6pm_startup_ccs.c")
     233                            .dwattr $C$DW$3, DW_AT_TI_end_line(0x17b)
     234                            .dwattr $C$DW$3, DW_AT_TI_end_column(0x01)
     235                            .dwendentry
     236                            .dwendtag $C$DW$3
     237                    
     238 00000006                   .sect   ".text"
     239                            .clink
     240                            .thumbfunc NmiSR
     241 00000006                   .thumb
     242                    
     243                    $C$DW$5 .dwtag  DW_TAG_subprogram, DW_AT_name("NmiSR")
     244                            .dwattr $C$DW$5, DW_AT_low_pc(NmiSR)
     245                            .dwattr $C$DW$5, DW_AT_high_pc(0x00)
     246                            .dwattr $C$DW$5, DW_AT_TI_symbol_name("NmiSR")
     247                            .dwattr $C$DW$5, DW_AT_TI_begin_file("../tm4c123gh6pm_startup_ccs.c")
     248                            .dwattr $C$DW$5, DW_AT_TI_begin_line(0x185)
     249                            .dwattr $C$DW$5, DW_AT_TI_begin_column(0x01)
     250                            .dwattr $C$DW$5, DW_AT_decl_file("../tm4c123gh6pm_startup_ccs.c")
     251                            .dwattr $C$DW$5, DW_AT_decl_line(0x185)
     252                            .dwattr $C$DW$5, DW_AT_decl_column(0x01)
     253                            .dwattr $C$DW$5, DW_AT_TI_max_frame_size(0x00)
     254                            .dwpsn  file "../tm4c123gh6pm_startup_ccs.c",line 390,column 1,is_stmt,address NmiSR,isa 1
     255                    
     256                            .dwfde $C$DW$CIE, NmiSR
     257                    
     258                    ;*****************************************************************************
     259                    ;* FUNCTION NAME: NmiSR                                                      *
     260                    ;*                                                                           *
     261                    ;*   Regs Modified     :                                                     *
     262                    ;*   Regs Used         : LR                                                  *
     263                    ;*   Local Frame Size  : 0 Args + 0 Auto + 0 Save = 0 byte                   *
     264                    ;*****************************************************************************
     265 00000006           NmiSR:
     266                    ;* --------------------------------------------------------------------------*
     267                            .dwcfi  cfa_offset, 0
     268                            .dwpsn  file "../tm4c123gh6pm_startup_ccs.c",line 394,column 11,is_stmt,isa 1
     269                    ;* --------------------------------------------------------------------------*
     270                    ;*   BEGIN LOOP ||$C$L1||
     271                    ;*
     272                    ;*   Loop source line                : 394
     273                    ;*   Loop closing brace source line  : 396
     274                    ;*   Known Minimum Trip Count        : 1
     275                    ;*   Known Maximum Trip Count        : 4294967295
TI ARM Assembler PC v5.2.4 Mon Jun 29 08:44:35 2015

Tools Copyright (c) 1996-2015 Texas Instruments Incorporated
tm4c123gh6pm_startup_ccs.asm                                         PAGE    6

     276                    ;*   Known Max Trip Count Factor     : 1
     277                    ;* --------------------------------------------------------------------------*
     278 00000006           ||$C$L1||:    
     279 00000006 E7FE              B         ||$C$L1||             ; [DPU_3_PIPE] |394|  ; [ORIG 16-BIT INS]
     280                            ; BRANCH OCCURS {||$C$L1||}      ; [] |394| 
     281                    ;* --------------------------------------------------------------------------*
     282                            .dwattr $C$DW$5, DW_AT_TI_end_file("../tm4c123gh6pm_startup_ccs.c")
     283                            .dwattr $C$DW$5, DW_AT_TI_end_line(0x18d)
     284                            .dwattr $C$DW$5, DW_AT_TI_end_column(0x01)
     285                            .dwendentry
     286                            .dwendtag $C$DW$5
     287                    
     288 00000008                   .sect   ".text"
     289                            .clink
     290                            .thumbfunc FaultISR
     291 00000008                   .thumb
     292                    
     293                    $C$DW$6 .dwtag  DW_TAG_subprogram, DW_AT_name("FaultISR")
     294                            .dwattr $C$DW$6, DW_AT_low_pc(FaultISR)
     295                            .dwattr $C$DW$6, DW_AT_high_pc(0x00)
     296                            .dwattr $C$DW$6, DW_AT_TI_symbol_name("FaultISR")
     297                            .dwattr $C$DW$6, DW_AT_TI_begin_file("../tm4c123gh6pm_startup_ccs.c")
     298                            .dwattr $C$DW$6, DW_AT_TI_begin_line(0x197)
     299                            .dwattr $C$DW$6, DW_AT_TI_begin_column(0x01)
     300                            .dwattr $C$DW$6, DW_AT_decl_file("../tm4c123gh6pm_startup_ccs.c")
     301                            .dwattr $C$DW$6, DW_AT_decl_line(0x197)
     302                            .dwattr $C$DW$6, DW_AT_decl_column(0x01)
     303                            .dwattr $C$DW$6, DW_AT_TI_max_frame_size(0x00)
     304                            .dwpsn  file "../tm4c123gh6pm_startup_ccs.c",line 408,column 1,is_stmt,address FaultISR,isa 1
     305                    
     306                            .dwfde $C$DW$CIE, FaultISR
     307                    
     308                    ;*****************************************************************************
     309                    ;* FUNCTION NAME: FaultISR                                                   *
     310                    ;*                                                                           *
     311                    ;*   Regs Modified     :                                                     *
     312                    ;*   Regs Used         : LR                                                  *
     313                    ;*   Local Frame Size  : 0 Args + 0 Auto + 0 Save = 0 byte                   *
     314                    ;*****************************************************************************
     315 00000008           FaultISR:
     316                    ;* --------------------------------------------------------------------------*
     317                            .dwcfi  cfa_offset, 0
     318                            .dwpsn  file "../tm4c123gh6pm_startup_ccs.c",line 412,column 11,is_stmt,isa 1
     319                    ;* --------------------------------------------------------------------------*
     320                    ;*   BEGIN LOOP ||$C$L2||
     321                    ;*
     322                    ;*   Loop source line                : 412
     323                    ;*   Loop closing brace source line  : 414
     324                    ;*   Known Minimum Trip Count        : 1
     325                    ;*   Known Maximum Trip Count        : 4294967295
     326                    ;*   Known Max Trip Count Factor     : 1
     327                    ;* --------------------------------------------------------------------------*
     328 00000008           ||$C$L2||:    
     329 00000008 E7FE              B         ||$C$L2||             ; [DPU_3_PIPE] |412|  ; [ORIG 16-BIT INS]
     330                            ; BRANCH OCCURS {||$C$L2||}      ; [] |412| 
TI ARM Assembler PC v5.2.4 Mon Jun 29 08:44:35 2015

Tools Copyright (c) 1996-2015 Texas Instruments Incorporated
tm4c123gh6pm_startup_ccs.asm                                         PAGE    7

     331                    ;* --------------------------------------------------------------------------*
     332                            .dwattr $C$DW$6, DW_AT_TI_end_file("../tm4c123gh6pm_startup_ccs.c")
     333                            .dwattr $C$DW$6, DW_AT_TI_end_line(0x19f)
     334                            .dwattr $C$DW$6, DW_AT_TI_end_column(0x01)
     335                            .dwendentry
     336                            .dwendtag $C$DW$6
     337                    
     338 0000000a                   .sect   ".text"
     339                            .clink
     340                            .thumbfunc IntDefaultHandler
     341 0000000a                   .thumb
     342                    
     343                    $C$DW$7 .dwtag  DW_TAG_subprogram, DW_AT_name("IntDefaultHandler")
     344                            .dwattr $C$DW$7, DW_AT_low_pc(IntDefaultHandler)
     345                            .dwattr $C$DW$7, DW_AT_high_pc(0x00)
     346                            .dwattr $C$DW$7, DW_AT_TI_symbol_name("IntDefaultHandler")
     347                            .dwattr $C$DW$7, DW_AT_TI_begin_file("../tm4c123gh6pm_startup_ccs.c")
     348                            .dwattr $C$DW$7, DW_AT_TI_begin_line(0x1a9)
     349                            .dwattr $C$DW$7, DW_AT_TI_begin_column(0x01)
     350                            .dwattr $C$DW$7, DW_AT_decl_file("../tm4c123gh6pm_startup_ccs.c")
     351                            .dwattr $C$DW$7, DW_AT_decl_line(0x1a9)
     352                            .dwattr $C$DW$7, DW_AT_decl_column(0x01)
     353                            .dwattr $C$DW$7, DW_AT_TI_max_frame_size(0x00)
     354                            .dwpsn  file "../tm4c123gh6pm_startup_ccs.c",line 426,column 1,is_stmt,address IntDefaultHandl
     355                    
     356                            .dwfde $C$DW$CIE, IntDefaultHandler
     357                    
     358                    ;*****************************************************************************
     359                    ;* FUNCTION NAME: IntDefaultHandler                                          *
     360                    ;*                                                                           *
     361                    ;*   Regs Modified     :                                                     *
     362                    ;*   Regs Used         : LR                                                  *
     363                    ;*   Local Frame Size  : 0 Args + 0 Auto + 0 Save = 0 byte                   *
     364                    ;*****************************************************************************
     365 0000000a           IntDefaultHandler:
     366                    ;* --------------------------------------------------------------------------*
     367                            .dwcfi  cfa_offset, 0
     368                            .dwpsn  file "../tm4c123gh6pm_startup_ccs.c",line 430,column 11,is_stmt,isa 1
     369                    ;* --------------------------------------------------------------------------*
     370                    ;*   BEGIN LOOP ||$C$L3||
     371                    ;*
     372                    ;*   Loop source line                : 430
     373                    ;*   Loop closing brace source line  : 432
     374                    ;*   Known Minimum Trip Count        : 1
     375                    ;*   Known Maximum Trip Count        : 4294967295
     376                    ;*   Known Max Trip Count Factor     : 1
     377                    ;* --------------------------------------------------------------------------*
     378 0000000a           ||$C$L3||:    
     379 0000000a E7FE              B         ||$C$L3||             ; [DPU_3_PIPE] |430|  ; [ORIG 16-BIT INS]
     380                            ; BRANCH OCCURS {||$C$L3||}      ; [] |430| 
     381                    ;* --------------------------------------------------------------------------*
     382                            .dwattr $C$DW$7, DW_AT_TI_end_file("../tm4c123gh6pm_startup_ccs.c")
     383                            .dwattr $C$DW$7, DW_AT_TI_end_line(0x1b1)
     384                            .dwattr $C$DW$7, DW_AT_TI_end_column(0x01)
     385                            .dwendentry
TI ARM Assembler PC v5.2.4 Mon Jun 29 08:44:35 2015

Tools Copyright (c) 1996-2015 Texas Instruments Incorporated
tm4c123gh6pm_startup_ccs.asm                                         PAGE    8

     386                            .dwendtag $C$DW$7
     387                    
     388 0000000c                   .sect   ".text"
     389                            .clink
     390                            .thumbfunc SVC_Handler
     391 0000000c                   .thumb
     392                            .weak   SVC_Handler
     393                    
     394                    $C$DW$8 .dwtag  DW_TAG_subprogram, DW_AT_name("SVC_Handler")
     395                            .dwattr $C$DW$8, DW_AT_low_pc(SVC_Handler)
     396                            .dwattr $C$DW$8, DW_AT_high_pc(0x00)
     397                            .dwattr $C$DW$8, DW_AT_TI_symbol_name("SVC_Handler")
     398                            .dwattr $C$DW$8, DW_AT_external
     399                            .dwattr $C$DW$8, DW_AT_TI_begin_file("../tm4c123gh6pm_startup_ccs.c")
     400                            .dwattr $C$DW$8, DW_AT_TI_begin_line(0x1b7)
     401                            .dwattr $C$DW$8, DW_AT_TI_begin_column(0x06)
     402                            .dwattr $C$DW$8, DW_AT_decl_file("../tm4c123gh6pm_startup_ccs.c")
     403                            .dwattr $C$DW$8, DW_AT_decl_line(0x1b7)
     404                            .dwattr $C$DW$8, DW_AT_decl_column(0x06)
     405                            .dwattr $C$DW$8, DW_AT_TI_max_frame_size(0x00)
     406                            .dwpsn  file "../tm4c123gh6pm_startup_ccs.c",line 439,column 23,is_stmt,address SVC_Handler,is
     407                    
     408                            .dwfde $C$DW$CIE, SVC_Handler
     409                    
     410                    ;*****************************************************************************
     411                    ;* FUNCTION NAME: SVC_Handler                                                *
     412                    ;*                                                                           *
     413                    ;*   Regs Modified     :                                                     *
     414                    ;*   Regs Used         : LR                                                  *
     415                    ;*   Local Frame Size  : 0 Args + 0 Auto + 0 Save = 0 byte                   *
     416                    ;*****************************************************************************
     417 0000000c           SVC_Handler:
     418                    ;* --------------------------------------------------------------------------*
     419                            .dwcfi  cfa_offset, 0
     420                            .dwpsn  file "../tm4c123gh6pm_startup_ccs.c",line 439,column 31,is_stmt,isa 1
     421                    ;* --------------------------------------------------------------------------*
     422                    ;*   BEGIN LOOP ||$C$L4||
     423                    ;*
     424                    ;*   Loop source line                : 439
     425                    ;*   Loop closing brace source line  : 439
     426                    ;*   Known Minimum Trip Count        : 1
     427                    ;*   Known Maximum Trip Count        : 4294967295
     428                    ;*   Known Max Trip Count Factor     : 1
     429                    ;* --------------------------------------------------------------------------*
     430 0000000c           ||$C$L4||:    
     431 0000000c E7FE              B         ||$C$L4||             ; [DPU_3_PIPE] |439|  ; [ORIG 16-BIT INS]
     432                            ; BRANCH OCCURS {||$C$L4||}      ; [] |439| 
     433                    ;* --------------------------------------------------------------------------*
     434                            .dwattr $C$DW$8, DW_AT_TI_end_file("../tm4c123gh6pm_startup_ccs.c")
     435                            .dwattr $C$DW$8, DW_AT_TI_end_line(0x1b7)
     436                            .dwattr $C$DW$8, DW_AT_TI_end_column(0x23)
     437                            .dwendentry
     438                            .dwendtag $C$DW$8
     439                    
     440 0000000e                   .sect   ".text"
TI ARM Assembler PC v5.2.4 Mon Jun 29 08:44:35 2015

Tools Copyright (c) 1996-2015 Texas Instruments Incorporated
tm4c123gh6pm_startup_ccs.asm                                         PAGE    9

     441                            .clink
     442                            .thumbfunc DebugMon_Handler
     443 0000000e                   .thumb
     444                            .weak   DebugMon_Handler
     445                    
     446                    $C$DW$9 .dwtag  DW_TAG_subprogram, DW_AT_name("DebugMon_Handler")
     447                            .dwattr $C$DW$9, DW_AT_low_pc(DebugMon_Handler)
     448                            .dwattr $C$DW$9, DW_AT_high_pc(0x00)
     449                            .dwattr $C$DW$9, DW_AT_TI_symbol_name("DebugMon_Handler")
     450                            .dwattr $C$DW$9, DW_AT_external
     451                            .dwattr $C$DW$9, DW_AT_TI_begin_file("../tm4c123gh6pm_startup_ccs.c")
     452                            .dwattr $C$DW$9, DW_AT_TI_begin_line(0x1b8)
     453                            .dwattr $C$DW$9, DW_AT_TI_begin_column(0x06)
     454                            .dwattr $C$DW$9, DW_AT_decl_file("../tm4c123gh6pm_startup_ccs.c")
     455                            .dwattr $C$DW$9, DW_AT_decl_line(0x1b8)
     456                            .dwattr $C$DW$9, DW_AT_decl_column(0x06)
     457                            .dwattr $C$DW$9, DW_AT_TI_max_frame_size(0x00)
     458                            .dwpsn  file "../tm4c123gh6pm_startup_ccs.c",line 440,column 28,is_stmt,address DebugMon_Handl
     459                    
     460                            .dwfde $C$DW$CIE, DebugMon_Handler
     461                    
     462                    ;*****************************************************************************
     463                    ;* FUNCTION NAME: DebugMon_Handler                                           *
     464                    ;*                                                                           *
     465                    ;*   Regs Modified     :                                                     *
     466                    ;*   Regs Used         : LR                                                  *
     467                    ;*   Local Frame Size  : 0 Args + 0 Auto + 0 Save = 0 byte                   *
     468                    ;*****************************************************************************
     469 0000000e           DebugMon_Handler:
     470                    ;* --------------------------------------------------------------------------*
     471                            .dwcfi  cfa_offset, 0
     472                            .dwpsn  file "../tm4c123gh6pm_startup_ccs.c",line 440,column 36,is_stmt,isa 1
     473                    ;* --------------------------------------------------------------------------*
     474                    ;*   BEGIN LOOP ||$C$L5||
     475                    ;*
     476                    ;*   Loop source line                : 440
     477                    ;*   Loop closing brace source line  : 440
     478                    ;*   Known Minimum Trip Count        : 1
     479                    ;*   Known Maximum Trip Count        : 4294967295
     480                    ;*   Known Max Trip Count Factor     : 1
     481                    ;* --------------------------------------------------------------------------*
     482 0000000e           ||$C$L5||:    
     483 0000000e E7FE              B         ||$C$L5||             ; [DPU_3_PIPE] |440|  ; [ORIG 16-BIT INS]
     484                            ; BRANCH OCCURS {||$C$L5||}      ; [] |440| 
     485                    ;* --------------------------------------------------------------------------*
     486                            .dwattr $C$DW$9, DW_AT_TI_end_file("../tm4c123gh6pm_startup_ccs.c")
     487                            .dwattr $C$DW$9, DW_AT_TI_end_line(0x1b8)
     488                            .dwattr $C$DW$9, DW_AT_TI_end_column(0x28)
     489                            .dwendentry
     490                            .dwendtag $C$DW$9
     491                    
     492 00000010                   .sect   ".text"
     493                            .clink
     494                            .thumbfunc PendSV_Handler
     495 00000010                   .thumb
TI ARM Assembler PC v5.2.4 Mon Jun 29 08:44:35 2015

Tools Copyright (c) 1996-2015 Texas Instruments Incorporated
tm4c123gh6pm_startup_ccs.asm                                         PAGE   10

     496                            .weak   PendSV_Handler
     497                    
     498                    $C$DW$10        .dwtag  DW_TAG_subprogram, DW_AT_name("PendSV_Handler")
     499                            .dwattr $C$DW$10, DW_AT_low_pc(PendSV_Handler)
     500                            .dwattr $C$DW$10, DW_AT_high_pc(0x00)
     501                            .dwattr $C$DW$10, DW_AT_TI_symbol_name("PendSV_Handler")
     502                            .dwattr $C$DW$10, DW_AT_external
     503                            .dwattr $C$DW$10, DW_AT_TI_begin_file("../tm4c123gh6pm_startup_ccs.c")
     504                            .dwattr $C$DW$10, DW_AT_TI_begin_line(0x1b9)
     505                            .dwattr $C$DW$10, DW_AT_TI_begin_column(0x06)
     506                            .dwattr $C$DW$10, DW_AT_decl_file("../tm4c123gh6pm_startup_ccs.c")
     507                            .dwattr $C$DW$10, DW_AT_decl_line(0x1b9)
     508                            .dwattr $C$DW$10, DW_AT_decl_column(0x06)
     509                            .dwattr $C$DW$10, DW_AT_TI_max_frame_size(0x00)
     510                            .dwpsn  file "../tm4c123gh6pm_startup_ccs.c",line 441,column 26,is_stmt,address PendSV_Handler
     511                    
     512                            .dwfde $C$DW$CIE, PendSV_Handler
     513                    
     514                    ;*****************************************************************************
     515                    ;* FUNCTION NAME: PendSV_Handler                                             *
     516                    ;*                                                                           *
     517                    ;*   Regs Modified     :                                                     *
     518                    ;*   Regs Used         : LR                                                  *
     519                    ;*   Local Frame Size  : 0 Args + 0 Auto + 0 Save = 0 byte                   *
     520                    ;*****************************************************************************
     521 00000010           PendSV_Handler:
     522                    ;* --------------------------------------------------------------------------*
     523                            .dwcfi  cfa_offset, 0
     524                            .dwpsn  file "../tm4c123gh6pm_startup_ccs.c",line 441,column 34,is_stmt,isa 1
     525                    ;* --------------------------------------------------------------------------*
     526                    ;*   BEGIN LOOP ||$C$L6||
     527                    ;*
     528                    ;*   Loop source line                : 441
     529                    ;*   Loop closing brace source line  : 441
     530                    ;*   Known Minimum Trip Count        : 1
     531                    ;*   Known Maximum Trip Count        : 4294967295
     532                    ;*   Known Max Trip Count Factor     : 1
     533                    ;* --------------------------------------------------------------------------*
     534 00000010           ||$C$L6||:    
     535 00000010 E7FE              B         ||$C$L6||             ; [DPU_3_PIPE] |441|  ; [ORIG 16-BIT INS]
     536                            ; BRANCH OCCURS {||$C$L6||}      ; [] |441| 
     537                    ;* --------------------------------------------------------------------------*
     538                            .dwattr $C$DW$10, DW_AT_TI_end_file("../tm4c123gh6pm_startup_ccs.c")
     539                            .dwattr $C$DW$10, DW_AT_TI_end_line(0x1b9)
     540                            .dwattr $C$DW$10, DW_AT_TI_end_column(0x26)
     541                            .dwendentry
     542                            .dwendtag $C$DW$10
     543                    
     544 00000012                   .sect   ".text"
     545                            .clink
     546                            .thumbfunc SysTick_Handler
     547 00000012                   .thumb
     548                            .weak   SysTick_Handler
     549                    
     550                    $C$DW$11        .dwtag  DW_TAG_subprogram, DW_AT_name("SysTick_Handler")
TI ARM Assembler PC v5.2.4 Mon Jun 29 08:44:35 2015

Tools Copyright (c) 1996-2015 Texas Instruments Incorporated
tm4c123gh6pm_startup_ccs.asm                                         PAGE   11

     551                            .dwattr $C$DW$11, DW_AT_low_pc(SysTick_Handler)
     552                            .dwattr $C$DW$11, DW_AT_high_pc(0x00)
     553                            .dwattr $C$DW$11, DW_AT_TI_symbol_name("SysTick_Handler")
     554                            .dwattr $C$DW$11, DW_AT_external
     555                            .dwattr $C$DW$11, DW_AT_TI_begin_file("../tm4c123gh6pm_startup_ccs.c")
     556                            .dwattr $C$DW$11, DW_AT_TI_begin_line(0x1ba)
     557                            .dwattr $C$DW$11, DW_AT_TI_begin_column(0x06)
     558                            .dwattr $C$DW$11, DW_AT_decl_file("../tm4c123gh6pm_startup_ccs.c")
     559                            .dwattr $C$DW$11, DW_AT_decl_line(0x1ba)
     560                            .dwattr $C$DW$11, DW_AT_decl_column(0x06)
     561                            .dwattr $C$DW$11, DW_AT_TI_max_frame_size(0x00)
     562                            .dwpsn  file "../tm4c123gh6pm_startup_ccs.c",line 442,column 27,is_stmt,address SysTick_Handle
     563                    
     564                            .dwfde $C$DW$CIE, SysTick_Handler
     565                    
     566                    ;*****************************************************************************
     567                    ;* FUNCTION NAME: SysTick_Handler                                            *
     568                    ;*                                                                           *
     569                    ;*   Regs Modified     :                                                     *
     570                    ;*   Regs Used         : LR                                                  *
     571                    ;*   Local Frame Size  : 0 Args + 0 Auto + 0 Save = 0 byte                   *
     572                    ;*****************************************************************************
     573 00000012           SysTick_Handler:
     574                    ;* --------------------------------------------------------------------------*
     575                            .dwcfi  cfa_offset, 0
     576                            .dwpsn  file "../tm4c123gh6pm_startup_ccs.c",line 442,column 35,is_stmt,isa 1
     577                    ;* --------------------------------------------------------------------------*
     578                    ;*   BEGIN LOOP ||$C$L7||
     579                    ;*
     580                    ;*   Loop source line                : 442
     581                    ;*   Loop closing brace source line  : 442
     582                    ;*   Known Minimum Trip Count        : 1
     583                    ;*   Known Maximum Trip Count        : 4294967295
     584                    ;*   Known Max Trip Count Factor     : 1
     585                    ;* --------------------------------------------------------------------------*
     586 00000012           ||$C$L7||:    
     587 00000012 E7FE              B         ||$C$L7||             ; [DPU_3_PIPE] |442|  ; [ORIG 16-BIT INS]
     588                            ; BRANCH OCCURS {||$C$L7||}      ; [] |442| 
     589                    ;* --------------------------------------------------------------------------*
     590                            .dwattr $C$DW$11, DW_AT_TI_end_file("../tm4c123gh6pm_startup_ccs.c")
     591                            .dwattr $C$DW$11, DW_AT_TI_end_line(0x1ba)
     592                            .dwattr $C$DW$11, DW_AT_TI_end_column(0x27)
     593                            .dwendentry
     594                            .dwendtag $C$DW$11
     595                    
     596 00000014                   .sect   ".text"
     597                            .clink
     598                            .thumbfunc GPIOPortA_Handler
     599 00000014                   .thumb
     600                            .weak   GPIOPortA_Handler
     601                    
     602                    $C$DW$12        .dwtag  DW_TAG_subprogram, DW_AT_name("GPIOPortA_Handler")
     603                            .dwattr $C$DW$12, DW_AT_low_pc(GPIOPortA_Handler)
     604                            .dwattr $C$DW$12, DW_AT_high_pc(0x00)
     605                            .dwattr $C$DW$12, DW_AT_TI_symbol_name("GPIOPortA_Handler")
TI ARM Assembler PC v5.2.4 Mon Jun 29 08:44:35 2015

Tools Copyright (c) 1996-2015 Texas Instruments Incorporated
tm4c123gh6pm_startup_ccs.asm                                         PAGE   12

     606                            .dwattr $C$DW$12, DW_AT_external
     607                            .dwattr $C$DW$12, DW_AT_TI_begin_file("../tm4c123gh6pm_startup_ccs.c")
     608                            .dwattr $C$DW$12, DW_AT_TI_begin_line(0x1bb)
     609                            .dwattr $C$DW$12, DW_AT_TI_begin_column(0x06)
     610                            .dwattr $C$DW$12, DW_AT_decl_file("../tm4c123gh6pm_startup_ccs.c")
     611                            .dwattr $C$DW$12, DW_AT_decl_line(0x1bb)
     612                            .dwattr $C$DW$12, DW_AT_decl_column(0x06)
     613                            .dwattr $C$DW$12, DW_AT_TI_max_frame_size(0x00)
     614                            .dwpsn  file "../tm4c123gh6pm_startup_ccs.c",line 443,column 29,is_stmt,address GPIOPortA_Hand
     615                    
     616                            .dwfde $C$DW$CIE, GPIOPortA_Handler
     617                    
     618                    ;*****************************************************************************
     619                    ;* FUNCTION NAME: GPIOPortA_Handler                                          *
     620                    ;*                                                                           *
     621                    ;*   Regs Modified     :                                                     *
     622                    ;*   Regs Used         : LR                                                  *
     623                    ;*   Local Frame Size  : 0 Args + 0 Auto + 0 Save = 0 byte                   *
     624                    ;*****************************************************************************
     625 00000014           GPIOPortA_Handler:
     626                    ;* --------------------------------------------------------------------------*
     627                            .dwcfi  cfa_offset, 0
     628                            .dwpsn  file "../tm4c123gh6pm_startup_ccs.c",line 443,column 37,is_stmt,isa 1
     629                    ;* --------------------------------------------------------------------------*
     630                    ;*   BEGIN LOOP ||$C$L8||
     631                    ;*
     632                    ;*   Loop source line                : 443
     633                    ;*   Loop closing brace source line  : 443
     634                    ;*   Known Minimum Trip Count        : 1
     635                    ;*   Known Maximum Trip Count        : 4294967295
     636                    ;*   Known Max Trip Count Factor     : 1
     637                    ;* --------------------------------------------------------------------------*
     638 00000014           ||$C$L8||:    
     639 00000014 E7FE              B         ||$C$L8||             ; [DPU_3_PIPE] |443|  ; [ORIG 16-BIT INS]
     640                            ; BRANCH OCCURS {||$C$L8||}      ; [] |443| 
     641                    ;* --------------------------------------------------------------------------*
     642                            .dwattr $C$DW$12, DW_AT_TI_end_file("../tm4c123gh6pm_startup_ccs.c")
     643                            .dwattr $C$DW$12, DW_AT_TI_end_line(0x1bb)
     644                            .dwattr $C$DW$12, DW_AT_TI_end_column(0x29)
     645                            .dwendentry
     646                            .dwendtag $C$DW$12
     647                    
     648 00000016                   .sect   ".text"
     649                            .clink
     650                            .thumbfunc GPIOPortB_Handler
     651 00000016                   .thumb
     652                            .weak   GPIOPortB_Handler
     653                    
     654                    $C$DW$13        .dwtag  DW_TAG_subprogram, DW_AT_name("GPIOPortB_Handler")
     655                            .dwattr $C$DW$13, DW_AT_low_pc(GPIOPortB_Handler)
     656                            .dwattr $C$DW$13, DW_AT_high_pc(0x00)
     657                            .dwattr $C$DW$13, DW_AT_TI_symbol_name("GPIOPortB_Handler")
     658                            .dwattr $C$DW$13, DW_AT_external
     659                            .dwattr $C$DW$13, DW_AT_TI_begin_file("../tm4c123gh6pm_startup_ccs.c")
     660                            .dwattr $C$DW$13, DW_AT_TI_begin_line(0x1bc)
TI ARM Assembler PC v5.2.4 Mon Jun 29 08:44:35 2015

Tools Copyright (c) 1996-2015 Texas Instruments Incorporated
tm4c123gh6pm_startup_ccs.asm                                         PAGE   13

     661                            .dwattr $C$DW$13, DW_AT_TI_begin_column(0x06)
     662                            .dwattr $C$DW$13, DW_AT_decl_file("../tm4c123gh6pm_startup_ccs.c")
     663                            .dwattr $C$DW$13, DW_AT_decl_line(0x1bc)
     664                            .dwattr $C$DW$13, DW_AT_decl_column(0x06)
     665                            .dwattr $C$DW$13, DW_AT_TI_max_frame_size(0x00)
     666                            .dwpsn  file "../tm4c123gh6pm_startup_ccs.c",line 444,column 29,is_stmt,address GPIOPortB_Hand
     667                    
     668                            .dwfde $C$DW$CIE, GPIOPortB_Handler
     669                    
     670                    ;*****************************************************************************
     671                    ;* FUNCTION NAME: GPIOPortB_Handler                                          *
     672                    ;*                                                                           *
     673                    ;*   Regs Modified     :                                                     *
     674                    ;*   Regs Used         : LR                                                  *
     675                    ;*   Local Frame Size  : 0 Args + 0 Auto + 0 Save = 0 byte                   *
     676                    ;*****************************************************************************
     677 00000016           GPIOPortB_Handler:
     678                    ;* --------------------------------------------------------------------------*
     679                            .dwcfi  cfa_offset, 0
     680                            .dwpsn  file "../tm4c123gh6pm_startup_ccs.c",line 444,column 37,is_stmt,isa 1
     681                    ;* --------------------------------------------------------------------------*
     682                    ;*   BEGIN LOOP ||$C$L9||
     683                    ;*
     684                    ;*   Loop source line                : 444
     685                    ;*   Loop closing brace source line  : 444
     686                    ;*   Known Minimum Trip Count        : 1
     687                    ;*   Known Maximum Trip Count        : 4294967295
     688                    ;*   Known Max Trip Count Factor     : 1
     689                    ;* --------------------------------------------------------------------------*
     690 00000016           ||$C$L9||:    
     691 00000016 E7FE              B         ||$C$L9||             ; [DPU_3_PIPE] |444|  ; [ORIG 16-BIT INS]
     692                            ; BRANCH OCCURS {||$C$L9||}      ; [] |444| 
     693                    ;* --------------------------------------------------------------------------*
     694                            .dwattr $C$DW$13, DW_AT_TI_end_file("../tm4c123gh6pm_startup_ccs.c")
     695                            .dwattr $C$DW$13, DW_AT_TI_end_line(0x1bc)
     696                            .dwattr $C$DW$13, DW_AT_TI_end_column(0x29)
     697                            .dwendentry
     698                            .dwendtag $C$DW$13
     699                    
     700 00000018                   .sect   ".text"
     701                            .clink
     702                            .thumbfunc GPIOPortC_Handler
     703 00000018                   .thumb
     704                            .weak   GPIOPortC_Handler
     705                    
     706                    $C$DW$14        .dwtag  DW_TAG_subprogram, DW_AT_name("GPIOPortC_Handler")
     707                            .dwattr $C$DW$14, DW_AT_low_pc(GPIOPortC_Handler)
     708                            .dwattr $C$DW$14, DW_AT_high_pc(0x00)
     709                            .dwattr $C$DW$14, DW_AT_TI_symbol_name("GPIOPortC_Handler")
     710                            .dwattr $C$DW$14, DW_AT_external
     711                            .dwattr $C$DW$14, DW_AT_TI_begin_file("../tm4c123gh6pm_startup_ccs.c")
     712                            .dwattr $C$DW$14, DW_AT_TI_begin_line(0x1bd)
     713                            .dwattr $C$DW$14, DW_AT_TI_begin_column(0x06)
     714                            .dwattr $C$DW$14, DW_AT_decl_file("../tm4c123gh6pm_startup_ccs.c")
     715                            .dwattr $C$DW$14, DW_AT_decl_line(0x1bd)
TI ARM Assembler PC v5.2.4 Mon Jun 29 08:44:35 2015

Tools Copyright (c) 1996-2015 Texas Instruments Incorporated
tm4c123gh6pm_startup_ccs.asm                                         PAGE   14

     716                            .dwattr $C$DW$14, DW_AT_decl_column(0x06)
     717                            .dwattr $C$DW$14, DW_AT_TI_max_frame_size(0x00)
     718                            .dwpsn  file "../tm4c123gh6pm_startup_ccs.c",line 445,column 29,is_stmt,address GPIOPortC_Hand
     719                    
     720                            .dwfde $C$DW$CIE, GPIOPortC_Handler
     721                    
     722                    ;*****************************************************************************
     723                    ;* FUNCTION NAME: GPIOPortC_Handler                                          *
     724                    ;*                                                                           *
     725                    ;*   Regs Modified     :                                                     *
     726                    ;*   Regs Used         : LR                                                  *
     727                    ;*   Local Frame Size  : 0 Args + 0 Auto + 0 Save = 0 byte                   *
     728                    ;*****************************************************************************
     729 00000018           GPIOPortC_Handler:
     730                    ;* --------------------------------------------------------------------------*
     731                            .dwcfi  cfa_offset, 0
     732                            .dwpsn  file "../tm4c123gh6pm_startup_ccs.c",line 445,column 37,is_stmt,isa 1
     733                    ;* --------------------------------------------------------------------------*
     734                    ;*   BEGIN LOOP ||$C$L10||
     735                    ;*
     736                    ;*   Loop source line                : 445
     737                    ;*   Loop closing brace source line  : 445
     738                    ;*   Known Minimum Trip Count        : 1
     739                    ;*   Known Maximum Trip Count        : 4294967295
     740                    ;*   Known Max Trip Count Factor     : 1
     741                    ;* --------------------------------------------------------------------------*
     742 00000018           ||$C$L10||:    
     743 00000018 E7FE              B         ||$C$L10||            ; [DPU_3_PIPE] |445|  ; [ORIG 16-BIT INS]
     744                            ; BRANCH OCCURS {||$C$L10||}     ; [] |445| 
     745                    ;* --------------------------------------------------------------------------*
     746                            .dwattr $C$DW$14, DW_AT_TI_end_file("../tm4c123gh6pm_startup_ccs.c")
     747                            .dwattr $C$DW$14, DW_AT_TI_end_line(0x1bd)
     748                            .dwattr $C$DW$14, DW_AT_TI_end_column(0x29)
     749                            .dwendentry
     750                            .dwendtag $C$DW$14
     751                    
     752 0000001a                   .sect   ".text"
     753                            .clink
     754                            .thumbfunc GPIOPortD_Handler
     755 0000001a                   .thumb
     756                            .weak   GPIOPortD_Handler
     757                    
     758                    $C$DW$15        .dwtag  DW_TAG_subprogram, DW_AT_name("GPIOPortD_Handler")
     759                            .dwattr $C$DW$15, DW_AT_low_pc(GPIOPortD_Handler)
     760                            .dwattr $C$DW$15, DW_AT_high_pc(0x00)
     761                            .dwattr $C$DW$15, DW_AT_TI_symbol_name("GPIOPortD_Handler")
     762                            .dwattr $C$DW$15, DW_AT_external
     763                            .dwattr $C$DW$15, DW_AT_TI_begin_file("../tm4c123gh6pm_startup_ccs.c")
     764                            .dwattr $C$DW$15, DW_AT_TI_begin_line(0x1be)
     765                            .dwattr $C$DW$15, DW_AT_TI_begin_column(0x06)
     766                            .dwattr $C$DW$15, DW_AT_decl_file("../tm4c123gh6pm_startup_ccs.c")
     767                            .dwattr $C$DW$15, DW_AT_decl_line(0x1be)
     768                            .dwattr $C$DW$15, DW_AT_decl_column(0x06)
     769                            .dwattr $C$DW$15, DW_AT_TI_max_frame_size(0x00)
     770                            .dwpsn  file "../tm4c123gh6pm_startup_ccs.c",line 446,column 29,is_stmt,address GPIOPortD_Hand
TI ARM Assembler PC v5.2.4 Mon Jun 29 08:44:35 2015

Tools Copyright (c) 1996-2015 Texas Instruments Incorporated
tm4c123gh6pm_startup_ccs.asm                                         PAGE   15

     771                    
     772                            .dwfde $C$DW$CIE, GPIOPortD_Handler
     773                    
     774                    ;*****************************************************************************
     775                    ;* FUNCTION NAME: GPIOPortD_Handler                                          *
     776                    ;*                                                                           *
     777                    ;*   Regs Modified     :                                                     *
     778                    ;*   Regs Used         : LR                                                  *
     779                    ;*   Local Frame Size  : 0 Args + 0 Auto + 0 Save = 0 byte                   *
     780                    ;*****************************************************************************
     781 0000001a           GPIOPortD_Handler:
     782                    ;* --------------------------------------------------------------------------*
     783                            .dwcfi  cfa_offset, 0
     784                            .dwpsn  file "../tm4c123gh6pm_startup_ccs.c",line 446,column 37,is_stmt,isa 1
     785                    ;* --------------------------------------------------------------------------*
     786                    ;*   BEGIN LOOP ||$C$L11||
     787                    ;*
     788                    ;*   Loop source line                : 446
     789                    ;*   Loop closing brace source line  : 446
     790                    ;*   Known Minimum Trip Count        : 1
     791                    ;*   Known Maximum Trip Count        : 4294967295
     792                    ;*   Known Max Trip Count Factor     : 1
     793                    ;* --------------------------------------------------------------------------*
     794 0000001a           ||$C$L11||:    
     795 0000001a E7FE              B         ||$C$L11||            ; [DPU_3_PIPE] |446|  ; [ORIG 16-BIT INS]
     796                            ; BRANCH OCCURS {||$C$L11||}     ; [] |446| 
     797                    ;* --------------------------------------------------------------------------*
     798                            .dwattr $C$DW$15, DW_AT_TI_end_file("../tm4c123gh6pm_startup_ccs.c")
     799                            .dwattr $C$DW$15, DW_AT_TI_end_line(0x1be)
     800                            .dwattr $C$DW$15, DW_AT_TI_end_column(0x29)
     801                            .dwendentry
     802                            .dwendtag $C$DW$15
     803                    
     804 0000001c                   .sect   ".text"
     805                            .clink
     806                            .thumbfunc GPIOPortE_Handler
     807 0000001c                   .thumb
     808                            .weak   GPIOPortE_Handler
     809                    
     810                    $C$DW$16        .dwtag  DW_TAG_subprogram, DW_AT_name("GPIOPortE_Handler")
     811                            .dwattr $C$DW$16, DW_AT_low_pc(GPIOPortE_Handler)
     812                            .dwattr $C$DW$16, DW_AT_high_pc(0x00)
     813                            .dwattr $C$DW$16, DW_AT_TI_symbol_name("GPIOPortE_Handler")
     814                            .dwattr $C$DW$16, DW_AT_external
     815                            .dwattr $C$DW$16, DW_AT_TI_begin_file("../tm4c123gh6pm_startup_ccs.c")
     816                            .dwattr $C$DW$16, DW_AT_TI_begin_line(0x1bf)
     817                            .dwattr $C$DW$16, DW_AT_TI_begin_column(0x06)
     818                            .dwattr $C$DW$16, DW_AT_decl_file("../tm4c123gh6pm_startup_ccs.c")
     819                            .dwattr $C$DW$16, DW_AT_decl_line(0x1bf)
     820                            .dwattr $C$DW$16, DW_AT_decl_column(0x06)
     821                            .dwattr $C$DW$16, DW_AT_TI_max_frame_size(0x00)
     822                            .dwpsn  file "../tm4c123gh6pm_startup_ccs.c",line 447,column 29,is_stmt,address GPIOPortE_Hand
     823                    
     824                            .dwfde $C$DW$CIE, GPIOPortE_Handler
     825                    
TI ARM Assembler PC v5.2.4 Mon Jun 29 08:44:35 2015

Tools Copyright (c) 1996-2015 Texas Instruments Incorporated
tm4c123gh6pm_startup_ccs.asm                                         PAGE   16

     826                    ;*****************************************************************************
     827                    ;* FUNCTION NAME: GPIOPortE_Handler                                          *
     828                    ;*                                                                           *
     829                    ;*   Regs Modified     :                                                     *
     830                    ;*   Regs Used         : LR                                                  *
     831                    ;*   Local Frame Size  : 0 Args + 0 Auto + 0 Save = 0 byte                   *
     832                    ;*****************************************************************************
     833 0000001c           GPIOPortE_Handler:
     834                    ;* --------------------------------------------------------------------------*
     835                            .dwcfi  cfa_offset, 0
     836                            .dwpsn  file "../tm4c123gh6pm_startup_ccs.c",line 447,column 37,is_stmt,isa 1
     837                    ;* --------------------------------------------------------------------------*
     838                    ;*   BEGIN LOOP ||$C$L12||
     839                    ;*
     840                    ;*   Loop source line                : 447
     841                    ;*   Loop closing brace source line  : 447
     842                    ;*   Known Minimum Trip Count        : 1
     843                    ;*   Known Maximum Trip Count        : 4294967295
     844                    ;*   Known Max Trip Count Factor     : 1
     845                    ;* --------------------------------------------------------------------------*
     846 0000001c           ||$C$L12||:    
     847 0000001c E7FE              B         ||$C$L12||            ; [DPU_3_PIPE] |447|  ; [ORIG 16-BIT INS]
     848                            ; BRANCH OCCURS {||$C$L12||}     ; [] |447| 
     849                    ;* --------------------------------------------------------------------------*
     850                            .dwattr $C$DW$16, DW_AT_TI_end_file("../tm4c123gh6pm_startup_ccs.c")
     851                            .dwattr $C$DW$16, DW_AT_TI_end_line(0x1bf)
     852                            .dwattr $C$DW$16, DW_AT_TI_end_column(0x29)
     853                            .dwendentry
     854                            .dwendtag $C$DW$16
     855                    
     856 0000001e                   .sect   ".text"
     857                            .clink
     858                            .thumbfunc UART0_Handler
     859 0000001e                   .thumb
     860                            .weak   UART0_Handler
     861                    
     862                    $C$DW$17        .dwtag  DW_TAG_subprogram, DW_AT_name("UART0_Handler")
     863                            .dwattr $C$DW$17, DW_AT_low_pc(UART0_Handler)
     864                            .dwattr $C$DW$17, DW_AT_high_pc(0x00)
     865                            .dwattr $C$DW$17, DW_AT_TI_symbol_name("UART0_Handler")
     866                            .dwattr $C$DW$17, DW_AT_external
     867                            .dwattr $C$DW$17, DW_AT_TI_begin_file("../tm4c123gh6pm_startup_ccs.c")
     868                            .dwattr $C$DW$17, DW_AT_TI_begin_line(0x1c0)
     869                            .dwattr $C$DW$17, DW_AT_TI_begin_column(0x06)
     870                            .dwattr $C$DW$17, DW_AT_decl_file("../tm4c123gh6pm_startup_ccs.c")
     871                            .dwattr $C$DW$17, DW_AT_decl_line(0x1c0)
     872                            .dwattr $C$DW$17, DW_AT_decl_column(0x06)
     873                            .dwattr $C$DW$17, DW_AT_TI_max_frame_size(0x00)
     874                            .dwpsn  file "../tm4c123gh6pm_startup_ccs.c",line 448,column 25,is_stmt,address UART0_Handler,
     875                    
     876                            .dwfde $C$DW$CIE, UART0_Handler
     877                    
     878                    ;*****************************************************************************
     879                    ;* FUNCTION NAME: UART0_Handler                                              *
     880                    ;*                                                                           *
TI ARM Assembler PC v5.2.4 Mon Jun 29 08:44:35 2015

Tools Copyright (c) 1996-2015 Texas Instruments Incorporated
tm4c123gh6pm_startup_ccs.asm                                         PAGE   17

     881                    ;*   Regs Modified     :                                                     *
     882                    ;*   Regs Used         : LR                                                  *
     883                    ;*   Local Frame Size  : 0 Args + 0 Auto + 0 Save = 0 byte                   *
     884                    ;*****************************************************************************
     885 0000001e           UART0_Handler:
     886                    ;* --------------------------------------------------------------------------*
     887                            .dwcfi  cfa_offset, 0
     888                            .dwpsn  file "../tm4c123gh6pm_startup_ccs.c",line 448,column 33,is_stmt,isa 1
     889                    ;* --------------------------------------------------------------------------*
     890                    ;*   BEGIN LOOP ||$C$L13||
     891                    ;*
     892                    ;*   Loop source line                : 448
     893                    ;*   Loop closing brace source line  : 448
     894                    ;*   Known Minimum Trip Count        : 1
     895                    ;*   Known Maximum Trip Count        : 4294967295
     896                    ;*   Known Max Trip Count Factor     : 1
     897                    ;* --------------------------------------------------------------------------*
     898 0000001e           ||$C$L13||:    
     899 0000001e E7FE              B         ||$C$L13||            ; [DPU_3_PIPE] |448|  ; [ORIG 16-BIT INS]
     900                            ; BRANCH OCCURS {||$C$L13||}     ; [] |448| 
     901                    ;* --------------------------------------------------------------------------*
     902                            .dwattr $C$DW$17, DW_AT_TI_end_file("../tm4c123gh6pm_startup_ccs.c")
     903                            .dwattr $C$DW$17, DW_AT_TI_end_line(0x1c0)
     904                            .dwattr $C$DW$17, DW_AT_TI_end_column(0x25)
     905                            .dwendentry
     906                            .dwendtag $C$DW$17
     907                    
     908 00000020                   .sect   ".text"
     909                            .clink
     910                            .thumbfunc UART1_Handler
     911 00000020                   .thumb
     912                            .weak   UART1_Handler
     913                    
     914                    $C$DW$18        .dwtag  DW_TAG_subprogram, DW_AT_name("UART1_Handler")
     915                            .dwattr $C$DW$18, DW_AT_low_pc(UART1_Handler)
     916                            .dwattr $C$DW$18, DW_AT_high_pc(0x00)
     917                            .dwattr $C$DW$18, DW_AT_TI_symbol_name("UART1_Handler")
     918                            .dwattr $C$DW$18, DW_AT_external
     919                            .dwattr $C$DW$18, DW_AT_TI_begin_file("../tm4c123gh6pm_startup_ccs.c")
     920                            .dwattr $C$DW$18, DW_AT_TI_begin_line(0x1c1)
     921                            .dwattr $C$DW$18, DW_AT_TI_begin_column(0x06)
     922                            .dwattr $C$DW$18, DW_AT_decl_file("../tm4c123gh6pm_startup_ccs.c")
     923                            .dwattr $C$DW$18, DW_AT_decl_line(0x1c1)
     924                            .dwattr $C$DW$18, DW_AT_decl_column(0x06)
     925                            .dwattr $C$DW$18, DW_AT_TI_max_frame_size(0x00)
     926                            .dwpsn  file "../tm4c123gh6pm_startup_ccs.c",line 449,column 25,is_stmt,address UART1_Handler,
     927                    
     928                            .dwfde $C$DW$CIE, UART1_Handler
     929                    
     930                    ;*****************************************************************************
     931                    ;* FUNCTION NAME: UART1_Handler                                              *
     932                    ;*                                                                           *
     933                    ;*   Regs Modified     :                                                     *
     934                    ;*   Regs Used         : LR                                                  *
     935                    ;*   Local Frame Size  : 0 Args + 0 Auto + 0 Save = 0 byte                   *
TI ARM Assembler PC v5.2.4 Mon Jun 29 08:44:35 2015

Tools Copyright (c) 1996-2015 Texas Instruments Incorporated
tm4c123gh6pm_startup_ccs.asm                                         PAGE   18

     936                    ;*****************************************************************************
     937 00000020           UART1_Handler:
     938                    ;* --------------------------------------------------------------------------*
     939                            .dwcfi  cfa_offset, 0
     940                            .dwpsn  file "../tm4c123gh6pm_startup_ccs.c",line 449,column 33,is_stmt,isa 1
     941                    ;* --------------------------------------------------------------------------*
     942                    ;*   BEGIN LOOP ||$C$L14||
     943                    ;*
     944                    ;*   Loop source line                : 449
     945                    ;*   Loop closing brace source line  : 449
     946                    ;*   Known Minimum Trip Count        : 1
     947                    ;*   Known Maximum Trip Count        : 4294967295
     948                    ;*   Known Max Trip Count Factor     : 1
     949                    ;* --------------------------------------------------------------------------*
     950 00000020           ||$C$L14||:    
     951 00000020 E7FE              B         ||$C$L14||            ; [DPU_3_PIPE] |449|  ; [ORIG 16-BIT INS]
     952                            ; BRANCH OCCURS {||$C$L14||}     ; [] |449| 
     953                    ;* --------------------------------------------------------------------------*
     954                            .dwattr $C$DW$18, DW_AT_TI_end_file("../tm4c123gh6pm_startup_ccs.c")
     955                            .dwattr $C$DW$18, DW_AT_TI_end_line(0x1c1)
     956                            .dwattr $C$DW$18, DW_AT_TI_end_column(0x25)
     957                            .dwendentry
     958                            .dwendtag $C$DW$18
     959                    
     960 00000022                   .sect   ".text"
     961                            .clink
     962                            .thumbfunc SSI0_Handler
     963 00000022                   .thumb
     964                            .weak   SSI0_Handler
     965                    
     966                    $C$DW$19        .dwtag  DW_TAG_subprogram, DW_AT_name("SSI0_Handler")
     967                            .dwattr $C$DW$19, DW_AT_low_pc(SSI0_Handler)
     968                            .dwattr $C$DW$19, DW_AT_high_pc(0x00)
     969                            .dwattr $C$DW$19, DW_AT_TI_symbol_name("SSI0_Handler")
     970                            .dwattr $C$DW$19, DW_AT_external
     971                            .dwattr $C$DW$19, DW_AT_TI_begin_file("../tm4c123gh6pm_startup_ccs.c")
     972                            .dwattr $C$DW$19, DW_AT_TI_begin_line(0x1c2)
     973                            .dwattr $C$DW$19, DW_AT_TI_begin_column(0x06)
     974                            .dwattr $C$DW$19, DW_AT_decl_file("../tm4c123gh6pm_startup_ccs.c")
     975                            .dwattr $C$DW$19, DW_AT_decl_line(0x1c2)
     976                            .dwattr $C$DW$19, DW_AT_decl_column(0x06)
     977                            .dwattr $C$DW$19, DW_AT_TI_max_frame_size(0x00)
     978                            .dwpsn  file "../tm4c123gh6pm_startup_ccs.c",line 450,column 24,is_stmt,address SSI0_Handler,i
     979                    
     980                            .dwfde $C$DW$CIE, SSI0_Handler
     981                    
     982                    ;*****************************************************************************
     983                    ;* FUNCTION NAME: SSI0_Handler                                               *
     984                    ;*                                                                           *
     985                    ;*   Regs Modified     :                                                     *
     986                    ;*   Regs Used         : LR                                                  *
     987                    ;*   Local Frame Size  : 0 Args + 0 Auto + 0 Save = 0 byte                   *
     988                    ;*****************************************************************************
     989 00000022           SSI0_Handler:
     990                    ;* --------------------------------------------------------------------------*
TI ARM Assembler PC v5.2.4 Mon Jun 29 08:44:35 2015

Tools Copyright (c) 1996-2015 Texas Instruments Incorporated
tm4c123gh6pm_startup_ccs.asm                                         PAGE   19

     991                            .dwcfi  cfa_offset, 0
     992                            .dwpsn  file "../tm4c123gh6pm_startup_ccs.c",line 450,column 32,is_stmt,isa 1
     993                    ;* --------------------------------------------------------------------------*
     994                    ;*   BEGIN LOOP ||$C$L15||
     995                    ;*
     996                    ;*   Loop source line                : 450
     997                    ;*   Loop closing brace source line  : 450
     998                    ;*   Known Minimum Trip Count        : 1
     999                    ;*   Known Maximum Trip Count        : 4294967295
    1000                    ;*   Known Max Trip Count Factor     : 1
    1001                    ;* --------------------------------------------------------------------------*
    1002 00000022           ||$C$L15||:    
    1003 00000022 E7FE              B         ||$C$L15||            ; [DPU_3_PIPE] |450|  ; [ORIG 16-BIT INS]
    1004                            ; BRANCH OCCURS {||$C$L15||}     ; [] |450| 
    1005                    ;* --------------------------------------------------------------------------*
    1006                            .dwattr $C$DW$19, DW_AT_TI_end_file("../tm4c123gh6pm_startup_ccs.c")
    1007                            .dwattr $C$DW$19, DW_AT_TI_end_line(0x1c2)
    1008                            .dwattr $C$DW$19, DW_AT_TI_end_column(0x24)
    1009                            .dwendentry
    1010                            .dwendtag $C$DW$19
    1011                    
    1012 00000024                   .sect   ".text"
    1013                            .clink
    1014                            .thumbfunc I2C0_Handler
    1015 00000024                   .thumb
    1016                            .weak   I2C0_Handler
    1017                    
    1018                    $C$DW$20        .dwtag  DW_TAG_subprogram, DW_AT_name("I2C0_Handler")
    1019                            .dwattr $C$DW$20, DW_AT_low_pc(I2C0_Handler)
    1020                            .dwattr $C$DW$20, DW_AT_high_pc(0x00)
    1021                            .dwattr $C$DW$20, DW_AT_TI_symbol_name("I2C0_Handler")
    1022                            .dwattr $C$DW$20, DW_AT_external
    1023                            .dwattr $C$DW$20, DW_AT_TI_begin_file("../tm4c123gh6pm_startup_ccs.c")
    1024                            .dwattr $C$DW$20, DW_AT_TI_begin_line(0x1c3)
    1025                            .dwattr $C$DW$20, DW_AT_TI_begin_column(0x06)
    1026                            .dwattr $C$DW$20, DW_AT_decl_file("../tm4c123gh6pm_startup_ccs.c")
    1027                            .dwattr $C$DW$20, DW_AT_decl_line(0x1c3)
    1028                            .dwattr $C$DW$20, DW_AT_decl_column(0x06)
    1029                            .dwattr $C$DW$20, DW_AT_TI_max_frame_size(0x00)
    1030                            .dwpsn  file "../tm4c123gh6pm_startup_ccs.c",line 451,column 24,is_stmt,address I2C0_Handler,i
    1031                    
    1032                            .dwfde $C$DW$CIE, I2C0_Handler
    1033                    
    1034                    ;*****************************************************************************
    1035                    ;* FUNCTION NAME: I2C0_Handler                                               *
    1036                    ;*                                                                           *
    1037                    ;*   Regs Modified     :                                                     *
    1038                    ;*   Regs Used         : LR                                                  *
    1039                    ;*   Local Frame Size  : 0 Args + 0 Auto + 0 Save = 0 byte                   *
    1040                    ;*****************************************************************************
    1041 00000024           I2C0_Handler:
    1042                    ;* --------------------------------------------------------------------------*
    1043                            .dwcfi  cfa_offset, 0
    1044                            .dwpsn  file "../tm4c123gh6pm_startup_ccs.c",line 451,column 32,is_stmt,isa 1
    1045                    ;* --------------------------------------------------------------------------*
TI ARM Assembler PC v5.2.4 Mon Jun 29 08:44:35 2015

Tools Copyright (c) 1996-2015 Texas Instruments Incorporated
tm4c123gh6pm_startup_ccs.asm                                         PAGE   20

    1046                    ;*   BEGIN LOOP ||$C$L16||
    1047                    ;*
    1048                    ;*   Loop source line                : 451
    1049                    ;*   Loop closing brace source line  : 451
    1050                    ;*   Known Minimum Trip Count        : 1
    1051                    ;*   Known Maximum Trip Count        : 4294967295
    1052                    ;*   Known Max Trip Count Factor     : 1
    1053                    ;* --------------------------------------------------------------------------*
    1054 00000024           ||$C$L16||:    
    1055 00000024 E7FE              B         ||$C$L16||            ; [DPU_3_PIPE] |451|  ; [ORIG 16-BIT INS]
    1056                            ; BRANCH OCCURS {||$C$L16||}     ; [] |451| 
    1057                    ;* --------------------------------------------------------------------------*
    1058                            .dwattr $C$DW$20, DW_AT_TI_end_file("../tm4c123gh6pm_startup_ccs.c")
    1059                            .dwattr $C$DW$20, DW_AT_TI_end_line(0x1c3)
    1060                            .dwattr $C$DW$20, DW_AT_TI_end_column(0x24)
    1061                            .dwendentry
    1062                            .dwendtag $C$DW$20
    1063                    
    1064 00000026                   .sect   ".text"
    1065                            .clink
    1066                            .thumbfunc PWM0Fault_Handler
    1067 00000026                   .thumb
    1068                            .weak   PWM0Fault_Handler
    1069                    
    1070                    $C$DW$21        .dwtag  DW_TAG_subprogram, DW_AT_name("PWM0Fault_Handler")
    1071                            .dwattr $C$DW$21, DW_AT_low_pc(PWM0Fault_Handler)
    1072                            .dwattr $C$DW$21, DW_AT_high_pc(0x00)
    1073                            .dwattr $C$DW$21, DW_AT_TI_symbol_name("PWM0Fault_Handler")
    1074                            .dwattr $C$DW$21, DW_AT_external
    1075                            .dwattr $C$DW$21, DW_AT_TI_begin_file("../tm4c123gh6pm_startup_ccs.c")
    1076                            .dwattr $C$DW$21, DW_AT_TI_begin_line(0x1c4)
    1077                            .dwattr $C$DW$21, DW_AT_TI_begin_column(0x06)
    1078                            .dwattr $C$DW$21, DW_AT_decl_file("../tm4c123gh6pm_startup_ccs.c")
    1079                            .dwattr $C$DW$21, DW_AT_decl_line(0x1c4)
    1080                            .dwattr $C$DW$21, DW_AT_decl_column(0x06)
    1081                            .dwattr $C$DW$21, DW_AT_TI_max_frame_size(0x00)
    1082                            .dwpsn  file "../tm4c123gh6pm_startup_ccs.c",line 452,column 29,is_stmt,address PWM0Fault_Hand
    1083                    
    1084                            .dwfde $C$DW$CIE, PWM0Fault_Handler
    1085                    
    1086                    ;*****************************************************************************
    1087                    ;* FUNCTION NAME: PWM0Fault_Handler                                          *
    1088                    ;*                                                                           *
    1089                    ;*   Regs Modified     :                                                     *
    1090                    ;*   Regs Used         : LR                                                  *
    1091                    ;*   Local Frame Size  : 0 Args + 0 Auto + 0 Save = 0 byte                   *
    1092                    ;*****************************************************************************
    1093 00000026           PWM0Fault_Handler:
    1094                    ;* --------------------------------------------------------------------------*
    1095                            .dwcfi  cfa_offset, 0
    1096                            .dwpsn  file "../tm4c123gh6pm_startup_ccs.c",line 452,column 37,is_stmt,isa 1
    1097                    ;* --------------------------------------------------------------------------*
    1098                    ;*   BEGIN LOOP ||$C$L17||
    1099                    ;*
    1100                    ;*   Loop source line                : 452
TI ARM Assembler PC v5.2.4 Mon Jun 29 08:44:35 2015

Tools Copyright (c) 1996-2015 Texas Instruments Incorporated
tm4c123gh6pm_startup_ccs.asm                                         PAGE   21

    1101                    ;*   Loop closing brace source line  : 452
    1102                    ;*   Known Minimum Trip Count        : 1
    1103                    ;*   Known Maximum Trip Count        : 4294967295
    1104                    ;*   Known Max Trip Count Factor     : 1
    1105                    ;* --------------------------------------------------------------------------*
    1106 00000026           ||$C$L17||:    
    1107 00000026 E7FE              B         ||$C$L17||            ; [DPU_3_PIPE] |452|  ; [ORIG 16-BIT INS]
    1108                            ; BRANCH OCCURS {||$C$L17||}     ; [] |452| 
    1109                    ;* --------------------------------------------------------------------------*
    1110                            .dwattr $C$DW$21, DW_AT_TI_end_file("../tm4c123gh6pm_startup_ccs.c")
    1111                            .dwattr $C$DW$21, DW_AT_TI_end_line(0x1c4)
    1112                            .dwattr $C$DW$21, DW_AT_TI_end_column(0x29)
    1113                            .dwendentry
    1114                            .dwendtag $C$DW$21
    1115                    
    1116 00000028                   .sect   ".text"
    1117                            .clink
    1118                            .thumbfunc PWM0Generator0_Handler
    1119 00000028                   .thumb
    1120                            .weak   PWM0Generator0_Handler
    1121                    
    1122                    $C$DW$22        .dwtag  DW_TAG_subprogram, DW_AT_name("PWM0Generator0_Handler")
    1123                            .dwattr $C$DW$22, DW_AT_low_pc(PWM0Generator0_Handler)
    1124                            .dwattr $C$DW$22, DW_AT_high_pc(0x00)
    1125                            .dwattr $C$DW$22, DW_AT_TI_symbol_name("PWM0Generator0_Handler")
    1126                            .dwattr $C$DW$22, DW_AT_external
    1127                            .dwattr $C$DW$22, DW_AT_TI_begin_file("../tm4c123gh6pm_startup_ccs.c")
    1128                            .dwattr $C$DW$22, DW_AT_TI_begin_line(0x1c5)
    1129                            .dwattr $C$DW$22, DW_AT_TI_begin_column(0x06)
    1130                            .dwattr $C$DW$22, DW_AT_decl_file("../tm4c123gh6pm_startup_ccs.c")
    1131                            .dwattr $C$DW$22, DW_AT_decl_line(0x1c5)
    1132                            .dwattr $C$DW$22, DW_AT_decl_column(0x06)
    1133                            .dwattr $C$DW$22, DW_AT_TI_max_frame_size(0x00)
    1134                            .dwpsn  file "../tm4c123gh6pm_startup_ccs.c",line 453,column 34,is_stmt,address PWM0Generator0
    1135                    
    1136                            .dwfde $C$DW$CIE, PWM0Generator0_Handler
    1137                    
    1138                    ;*****************************************************************************
    1139                    ;* FUNCTION NAME: PWM0Generator0_Handler                                     *
    1140                    ;*                                                                           *
    1141                    ;*   Regs Modified     :                                                     *
    1142                    ;*   Regs Used         : LR                                                  *
    1143                    ;*   Local Frame Size  : 0 Args + 0 Auto + 0 Save = 0 byte                   *
    1144                    ;*****************************************************************************
    1145 00000028           PWM0Generator0_Handler:
    1146                    ;* --------------------------------------------------------------------------*
    1147                            .dwcfi  cfa_offset, 0
    1148                            .dwpsn  file "../tm4c123gh6pm_startup_ccs.c",line 453,column 42,is_stmt,isa 1
    1149                    ;* --------------------------------------------------------------------------*
    1150                    ;*   BEGIN LOOP ||$C$L18||
    1151                    ;*
    1152                    ;*   Loop source line                : 453
    1153                    ;*   Loop closing brace source line  : 453
    1154                    ;*   Known Minimum Trip Count        : 1
    1155                    ;*   Known Maximum Trip Count        : 4294967295
TI ARM Assembler PC v5.2.4 Mon Jun 29 08:44:35 2015

Tools Copyright (c) 1996-2015 Texas Instruments Incorporated
tm4c123gh6pm_startup_ccs.asm                                         PAGE   22

    1156                    ;*   Known Max Trip Count Factor     : 1
    1157                    ;* --------------------------------------------------------------------------*
    1158 00000028           ||$C$L18||:    
    1159 00000028 E7FE              B         ||$C$L18||            ; [DPU_3_PIPE] |453|  ; [ORIG 16-BIT INS]
    1160                            ; BRANCH OCCURS {||$C$L18||}     ; [] |453| 
    1161                    ;* --------------------------------------------------------------------------*
    1162                            .dwattr $C$DW$22, DW_AT_TI_end_file("../tm4c123gh6pm_startup_ccs.c")
    1163                            .dwattr $C$DW$22, DW_AT_TI_end_line(0x1c5)
    1164                            .dwattr $C$DW$22, DW_AT_TI_end_column(0x2e)
    1165                            .dwendentry
    1166                            .dwendtag $C$DW$22
    1167                    
    1168 0000002a                   .sect   ".text"
    1169                            .clink
    1170                            .thumbfunc PWM0Generator1_Handler
    1171 0000002a                   .thumb
    1172                            .weak   PWM0Generator1_Handler
    1173                    
    1174                    $C$DW$23        .dwtag  DW_TAG_subprogram, DW_AT_name("PWM0Generator1_Handler")
    1175                            .dwattr $C$DW$23, DW_AT_low_pc(PWM0Generator1_Handler)
    1176                            .dwattr $C$DW$23, DW_AT_high_pc(0x00)
    1177                            .dwattr $C$DW$23, DW_AT_TI_symbol_name("PWM0Generator1_Handler")
    1178                            .dwattr $C$DW$23, DW_AT_external
    1179                            .dwattr $C$DW$23, DW_AT_TI_begin_file("../tm4c123gh6pm_startup_ccs.c")
    1180                            .dwattr $C$DW$23, DW_AT_TI_begin_line(0x1c6)
    1181                            .dwattr $C$DW$23, DW_AT_TI_begin_column(0x06)
    1182                            .dwattr $C$DW$23, DW_AT_decl_file("../tm4c123gh6pm_startup_ccs.c")
    1183                            .dwattr $C$DW$23, DW_AT_decl_line(0x1c6)
    1184                            .dwattr $C$DW$23, DW_AT_decl_column(0x06)
    1185                            .dwattr $C$DW$23, DW_AT_TI_max_frame_size(0x00)
    1186                            .dwpsn  file "../tm4c123gh6pm_startup_ccs.c",line 454,column 34,is_stmt,address PWM0Generator1
    1187                    
    1188                            .dwfde $C$DW$CIE, PWM0Generator1_Handler
    1189                    
    1190                    ;*****************************************************************************
    1191                    ;* FUNCTION NAME: PWM0Generator1_Handler                                     *
    1192                    ;*                                                                           *
    1193                    ;*   Regs Modified     :                                                     *
    1194                    ;*   Regs Used         : LR                                                  *
    1195                    ;*   Local Frame Size  : 0 Args + 0 Auto + 0 Save = 0 byte                   *
    1196                    ;*****************************************************************************
    1197 0000002a           PWM0Generator1_Handler:
    1198                    ;* --------------------------------------------------------------------------*
    1199                            .dwcfi  cfa_offset, 0
    1200                            .dwpsn  file "../tm4c123gh6pm_startup_ccs.c",line 454,column 42,is_stmt,isa 1
    1201                    ;* --------------------------------------------------------------------------*
    1202                    ;*   BEGIN LOOP ||$C$L19||
    1203                    ;*
    1204                    ;*   Loop source line                : 454
    1205                    ;*   Loop closing brace source line  : 454
    1206                    ;*   Known Minimum Trip Count        : 1
    1207                    ;*   Known Maximum Trip Count        : 4294967295
    1208                    ;*   Known Max Trip Count Factor     : 1
    1209                    ;* --------------------------------------------------------------------------*
    1210 0000002a           ||$C$L19||:    
TI ARM Assembler PC v5.2.4 Mon Jun 29 08:44:35 2015

Tools Copyright (c) 1996-2015 Texas Instruments Incorporated
tm4c123gh6pm_startup_ccs.asm                                         PAGE   23

    1211 0000002a E7FE              B         ||$C$L19||            ; [DPU_3_PIPE] |454|  ; [ORIG 16-BIT INS]
    1212                            ; BRANCH OCCURS {||$C$L19||}     ; [] |454| 
    1213                    ;* --------------------------------------------------------------------------*
    1214                            .dwattr $C$DW$23, DW_AT_TI_end_file("../tm4c123gh6pm_startup_ccs.c")
    1215                            .dwattr $C$DW$23, DW_AT_TI_end_line(0x1c6)
    1216                            .dwattr $C$DW$23, DW_AT_TI_end_column(0x2e)
    1217                            .dwendentry
    1218                            .dwendtag $C$DW$23
    1219                    
    1220 0000002c                   .sect   ".text"
    1221                            .clink
    1222                            .thumbfunc PWM0Generator2_Handler
    1223 0000002c                   .thumb
    1224                            .weak   PWM0Generator2_Handler
    1225                    
    1226                    $C$DW$24        .dwtag  DW_TAG_subprogram, DW_AT_name("PWM0Generator2_Handler")
    1227                            .dwattr $C$DW$24, DW_AT_low_pc(PWM0Generator2_Handler)
    1228                            .dwattr $C$DW$24, DW_AT_high_pc(0x00)
    1229                            .dwattr $C$DW$24, DW_AT_TI_symbol_name("PWM0Generator2_Handler")
    1230                            .dwattr $C$DW$24, DW_AT_external
    1231                            .dwattr $C$DW$24, DW_AT_TI_begin_file("../tm4c123gh6pm_startup_ccs.c")
    1232                            .dwattr $C$DW$24, DW_AT_TI_begin_line(0x1c7)
    1233                            .dwattr $C$DW$24, DW_AT_TI_begin_column(0x06)
    1234                            .dwattr $C$DW$24, DW_AT_decl_file("../tm4c123gh6pm_startup_ccs.c")
    1235                            .dwattr $C$DW$24, DW_AT_decl_line(0x1c7)
    1236                            .dwattr $C$DW$24, DW_AT_decl_column(0x06)
    1237                            .dwattr $C$DW$24, DW_AT_TI_max_frame_size(0x00)
    1238                            .dwpsn  file "../tm4c123gh6pm_startup_ccs.c",line 455,column 34,is_stmt,address PWM0Generator2
    1239                    
    1240                            .dwfde $C$DW$CIE, PWM0Generator2_Handler
    1241                    
    1242                    ;*****************************************************************************
    1243                    ;* FUNCTION NAME: PWM0Generator2_Handler                                     *
    1244                    ;*                                                                           *
    1245                    ;*   Regs Modified     :                                                     *
    1246                    ;*   Regs Used         : LR                                                  *
    1247                    ;*   Local Frame Size  : 0 Args + 0 Auto + 0 Save = 0 byte                   *
    1248                    ;*****************************************************************************
    1249 0000002c           PWM0Generator2_Handler:
    1250                    ;* --------------------------------------------------------------------------*
    1251                            .dwcfi  cfa_offset, 0
    1252                            .dwpsn  file "../tm4c123gh6pm_startup_ccs.c",line 455,column 42,is_stmt,isa 1
    1253                    ;* --------------------------------------------------------------------------*
    1254                    ;*   BEGIN LOOP ||$C$L20||
    1255                    ;*
    1256                    ;*   Loop source line                : 455
    1257                    ;*   Loop closing brace source line  : 455
    1258                    ;*   Known Minimum Trip Count        : 1
    1259                    ;*   Known Maximum Trip Count        : 4294967295
    1260                    ;*   Known Max Trip Count Factor     : 1
    1261                    ;* --------------------------------------------------------------------------*
    1262 0000002c           ||$C$L20||:    
    1263 0000002c E7FE              B         ||$C$L20||            ; [DPU_3_PIPE] |455|  ; [ORIG 16-BIT INS]
    1264                            ; BRANCH OCCURS {||$C$L20||}     ; [] |455| 
    1265                    ;* --------------------------------------------------------------------------*
TI ARM Assembler PC v5.2.4 Mon Jun 29 08:44:35 2015

Tools Copyright (c) 1996-2015 Texas Instruments Incorporated
tm4c123gh6pm_startup_ccs.asm                                         PAGE   24

    1266                            .dwattr $C$DW$24, DW_AT_TI_end_file("../tm4c123gh6pm_startup_ccs.c")
    1267                            .dwattr $C$DW$24, DW_AT_TI_end_line(0x1c7)
    1268                            .dwattr $C$DW$24, DW_AT_TI_end_column(0x2e)
    1269                            .dwendentry
    1270                            .dwendtag $C$DW$24
    1271                    
    1272 0000002e                   .sect   ".text"
    1273                            .clink
    1274                            .thumbfunc Quadrature0_Handler
    1275 0000002e                   .thumb
    1276                            .weak   Quadrature0_Handler
    1277                    
    1278                    $C$DW$25        .dwtag  DW_TAG_subprogram, DW_AT_name("Quadrature0_Handler")
    1279                            .dwattr $C$DW$25, DW_AT_low_pc(Quadrature0_Handler)
    1280                            .dwattr $C$DW$25, DW_AT_high_pc(0x00)
    1281                            .dwattr $C$DW$25, DW_AT_TI_symbol_name("Quadrature0_Handler")
    1282                            .dwattr $C$DW$25, DW_AT_external
    1283                            .dwattr $C$DW$25, DW_AT_TI_begin_file("../tm4c123gh6pm_startup_ccs.c")
    1284                            .dwattr $C$DW$25, DW_AT_TI_begin_line(0x1c8)
    1285                            .dwattr $C$DW$25, DW_AT_TI_begin_column(0x06)
    1286                            .dwattr $C$DW$25, DW_AT_decl_file("../tm4c123gh6pm_startup_ccs.c")
    1287                            .dwattr $C$DW$25, DW_AT_decl_line(0x1c8)
    1288                            .dwattr $C$DW$25, DW_AT_decl_column(0x06)
    1289                            .dwattr $C$DW$25, DW_AT_TI_max_frame_size(0x00)
    1290                            .dwpsn  file "../tm4c123gh6pm_startup_ccs.c",line 456,column 31,is_stmt,address Quadrature0_Ha
    1291                    
    1292                            .dwfde $C$DW$CIE, Quadrature0_Handler
    1293                    
    1294                    ;*****************************************************************************
    1295                    ;* FUNCTION NAME: Quadrature0_Handler                                        *
    1296                    ;*                                                                           *
    1297                    ;*   Regs Modified     :                                                     *
    1298                    ;*   Regs Used         : LR                                                  *
    1299                    ;*   Local Frame Size  : 0 Args + 0 Auto + 0 Save = 0 byte                   *
    1300                    ;*****************************************************************************
    1301 0000002e           Quadrature0_Handler:
    1302                    ;* --------------------------------------------------------------------------*
    1303                            .dwcfi  cfa_offset, 0
    1304                            .dwpsn  file "../tm4c123gh6pm_startup_ccs.c",line 456,column 39,is_stmt,isa 1
    1305                    ;* --------------------------------------------------------------------------*
    1306                    ;*   BEGIN LOOP ||$C$L21||
    1307                    ;*
    1308                    ;*   Loop source line                : 456
    1309                    ;*   Loop closing brace source line  : 456
    1310                    ;*   Known Minimum Trip Count        : 1
    1311                    ;*   Known Maximum Trip Count        : 4294967295
    1312                    ;*   Known Max Trip Count Factor     : 1
    1313                    ;* --------------------------------------------------------------------------*
    1314 0000002e           ||$C$L21||:    
    1315 0000002e E7FE              B         ||$C$L21||            ; [DPU_3_PIPE] |456|  ; [ORIG 16-BIT INS]
    1316                            ; BRANCH OCCURS {||$C$L21||}     ; [] |456| 
    1317                    ;* --------------------------------------------------------------------------*
    1318                            .dwattr $C$DW$25, DW_AT_TI_end_file("../tm4c123gh6pm_startup_ccs.c")
    1319                            .dwattr $C$DW$25, DW_AT_TI_end_line(0x1c8)
    1320                            .dwattr $C$DW$25, DW_AT_TI_end_column(0x2b)
TI ARM Assembler PC v5.2.4 Mon Jun 29 08:44:35 2015

Tools Copyright (c) 1996-2015 Texas Instruments Incorporated
tm4c123gh6pm_startup_ccs.asm                                         PAGE   25

    1321                            .dwendentry
    1322                            .dwendtag $C$DW$25
    1323                    
    1324 00000030                   .sect   ".text"
    1325                            .clink
    1326                            .thumbfunc ADC0Seq0_Handler
    1327 00000030                   .thumb
    1328                            .weak   ADC0Seq0_Handler
    1329                    
    1330                    $C$DW$26        .dwtag  DW_TAG_subprogram, DW_AT_name("ADC0Seq0_Handler")
    1331                            .dwattr $C$DW$26, DW_AT_low_pc(ADC0Seq0_Handler)
    1332                            .dwattr $C$DW$26, DW_AT_high_pc(0x00)
    1333                            .dwattr $C$DW$26, DW_AT_TI_symbol_name("ADC0Seq0_Handler")
    1334                            .dwattr $C$DW$26, DW_AT_external
    1335                            .dwattr $C$DW$26, DW_AT_TI_begin_file("../tm4c123gh6pm_startup_ccs.c")
    1336                            .dwattr $C$DW$26, DW_AT_TI_begin_line(0x1c9)
    1337                            .dwattr $C$DW$26, DW_AT_TI_begin_column(0x06)
    1338                            .dwattr $C$DW$26, DW_AT_decl_file("../tm4c123gh6pm_startup_ccs.c")
    1339                            .dwattr $C$DW$26, DW_AT_decl_line(0x1c9)
    1340                            .dwattr $C$DW$26, DW_AT_decl_column(0x06)
    1341                            .dwattr $C$DW$26, DW_AT_TI_max_frame_size(0x00)
    1342                            .dwpsn  file "../tm4c123gh6pm_startup_ccs.c",line 457,column 28,is_stmt,address ADC0Seq0_Handl
    1343                    
    1344                            .dwfde $C$DW$CIE, ADC0Seq0_Handler
    1345                    
    1346                    ;*****************************************************************************
    1347                    ;* FUNCTION NAME: ADC0Seq0_Handler                                           *
    1348                    ;*                                                                           *
    1349                    ;*   Regs Modified     :                                                     *
    1350                    ;*   Regs Used         : LR                                                  *
    1351                    ;*   Local Frame Size  : 0 Args + 0 Auto + 0 Save = 0 byte                   *
    1352                    ;*****************************************************************************
    1353 00000030           ADC0Seq0_Handler:
    1354                    ;* --------------------------------------------------------------------------*
    1355                            .dwcfi  cfa_offset, 0
    1356                            .dwpsn  file "../tm4c123gh6pm_startup_ccs.c",line 457,column 36,is_stmt,isa 1
    1357                    ;* --------------------------------------------------------------------------*
    1358                    ;*   BEGIN LOOP ||$C$L22||
    1359                    ;*
    1360                    ;*   Loop source line                : 457
    1361                    ;*   Loop closing brace source line  : 457
    1362                    ;*   Known Minimum Trip Count        : 1
    1363                    ;*   Known Maximum Trip Count        : 4294967295
    1364                    ;*   Known Max Trip Count Factor     : 1
    1365                    ;* --------------------------------------------------------------------------*
    1366 00000030           ||$C$L22||:    
    1367 00000030 E7FE              B         ||$C$L22||            ; [DPU_3_PIPE] |457|  ; [ORIG 16-BIT INS]
    1368                            ; BRANCH OCCURS {||$C$L22||}     ; [] |457| 
    1369                    ;* --------------------------------------------------------------------------*
    1370                            .dwattr $C$DW$26, DW_AT_TI_end_file("../tm4c123gh6pm_startup_ccs.c")
    1371                            .dwattr $C$DW$26, DW_AT_TI_end_line(0x1c9)
    1372                            .dwattr $C$DW$26, DW_AT_TI_end_column(0x28)
    1373                            .dwendentry
    1374                            .dwendtag $C$DW$26
    1375                    
TI ARM Assembler PC v5.2.4 Mon Jun 29 08:44:35 2015

Tools Copyright (c) 1996-2015 Texas Instruments Incorporated
tm4c123gh6pm_startup_ccs.asm                                         PAGE   26

    1376 00000032                   .sect   ".text"
    1377                            .clink
    1378                            .thumbfunc ADC0Seq1_Handler
    1379 00000032                   .thumb
    1380                            .weak   ADC0Seq1_Handler
    1381                    
    1382                    $C$DW$27        .dwtag  DW_TAG_subprogram, DW_AT_name("ADC0Seq1_Handler")
    1383                            .dwattr $C$DW$27, DW_AT_low_pc(ADC0Seq1_Handler)
    1384                            .dwattr $C$DW$27, DW_AT_high_pc(0x00)
    1385                            .dwattr $C$DW$27, DW_AT_TI_symbol_name("ADC0Seq1_Handler")
    1386                            .dwattr $C$DW$27, DW_AT_external
    1387                            .dwattr $C$DW$27, DW_AT_TI_begin_file("../tm4c123gh6pm_startup_ccs.c")
    1388                            .dwattr $C$DW$27, DW_AT_TI_begin_line(0x1ca)
    1389                            .dwattr $C$DW$27, DW_AT_TI_begin_column(0x06)
    1390                            .dwattr $C$DW$27, DW_AT_decl_file("../tm4c123gh6pm_startup_ccs.c")
    1391                            .dwattr $C$DW$27, DW_AT_decl_line(0x1ca)
    1392                            .dwattr $C$DW$27, DW_AT_decl_column(0x06)
    1393                            .dwattr $C$DW$27, DW_AT_TI_max_frame_size(0x00)
    1394                            .dwpsn  file "../tm4c123gh6pm_startup_ccs.c",line 458,column 28,is_stmt,address ADC0Seq1_Handl
    1395                    
    1396                            .dwfde $C$DW$CIE, ADC0Seq1_Handler
    1397                    
    1398                    ;*****************************************************************************
    1399                    ;* FUNCTION NAME: ADC0Seq1_Handler                                           *
    1400                    ;*                                                                           *
    1401                    ;*   Regs Modified     :                                                     *
    1402                    ;*   Regs Used         : LR                                                  *
    1403                    ;*   Local Frame Size  : 0 Args + 0 Auto + 0 Save = 0 byte                   *
    1404                    ;*****************************************************************************
    1405 00000032           ADC0Seq1_Handler:
    1406                    ;* --------------------------------------------------------------------------*
    1407                            .dwcfi  cfa_offset, 0
    1408                            .dwpsn  file "../tm4c123gh6pm_startup_ccs.c",line 458,column 36,is_stmt,isa 1
    1409                    ;* --------------------------------------------------------------------------*
    1410                    ;*   BEGIN LOOP ||$C$L23||
    1411                    ;*
    1412                    ;*   Loop source line                : 458
    1413                    ;*   Loop closing brace source line  : 458
    1414                    ;*   Known Minimum Trip Count        : 1
    1415                    ;*   Known Maximum Trip Count        : 4294967295
    1416                    ;*   Known Max Trip Count Factor     : 1
    1417                    ;* --------------------------------------------------------------------------*
    1418 00000032           ||$C$L23||:    
    1419 00000032 E7FE              B         ||$C$L23||            ; [DPU_3_PIPE] |458|  ; [ORIG 16-BIT INS]
    1420                            ; BRANCH OCCURS {||$C$L23||}     ; [] |458| 
    1421                    ;* --------------------------------------------------------------------------*
    1422                            .dwattr $C$DW$27, DW_AT_TI_end_file("../tm4c123gh6pm_startup_ccs.c")
    1423                            .dwattr $C$DW$27, DW_AT_TI_end_line(0x1ca)
    1424                            .dwattr $C$DW$27, DW_AT_TI_end_column(0x28)
    1425                            .dwendentry
    1426                            .dwendtag $C$DW$27
    1427                    
    1428 00000034                   .sect   ".text"
    1429                            .clink
    1430                            .thumbfunc ADC0Seq2_Handler
TI ARM Assembler PC v5.2.4 Mon Jun 29 08:44:35 2015

Tools Copyright (c) 1996-2015 Texas Instruments Incorporated
tm4c123gh6pm_startup_ccs.asm                                         PAGE   27

    1431 00000034                   .thumb
    1432                            .weak   ADC0Seq2_Handler
    1433                    
    1434                    $C$DW$28        .dwtag  DW_TAG_subprogram, DW_AT_name("ADC0Seq2_Handler")
    1435                            .dwattr $C$DW$28, DW_AT_low_pc(ADC0Seq2_Handler)
    1436                            .dwattr $C$DW$28, DW_AT_high_pc(0x00)
    1437                            .dwattr $C$DW$28, DW_AT_TI_symbol_name("ADC0Seq2_Handler")
    1438                            .dwattr $C$DW$28, DW_AT_external
    1439                            .dwattr $C$DW$28, DW_AT_TI_begin_file("../tm4c123gh6pm_startup_ccs.c")
    1440                            .dwattr $C$DW$28, DW_AT_TI_begin_line(0x1cb)
    1441                            .dwattr $C$DW$28, DW_AT_TI_begin_column(0x06)
    1442                            .dwattr $C$DW$28, DW_AT_decl_file("../tm4c123gh6pm_startup_ccs.c")
    1443                            .dwattr $C$DW$28, DW_AT_decl_line(0x1cb)
    1444                            .dwattr $C$DW$28, DW_AT_decl_column(0x06)
    1445                            .dwattr $C$DW$28, DW_AT_TI_max_frame_size(0x00)
    1446                            .dwpsn  file "../tm4c123gh6pm_startup_ccs.c",line 459,column 28,is_stmt,address ADC0Seq2_Handl
    1447                    
    1448                            .dwfde $C$DW$CIE, ADC0Seq2_Handler
    1449                    
    1450                    ;*****************************************************************************
    1451                    ;* FUNCTION NAME: ADC0Seq2_Handler                                           *
    1452                    ;*                                                                           *
    1453                    ;*   Regs Modified     :                                                     *
    1454                    ;*   Regs Used         : LR                                                  *
    1455                    ;*   Local Frame Size  : 0 Args + 0 Auto + 0 Save = 0 byte                   *
    1456                    ;*****************************************************************************
    1457 00000034           ADC0Seq2_Handler:
    1458                    ;* --------------------------------------------------------------------------*
    1459                            .dwcfi  cfa_offset, 0
    1460                            .dwpsn  file "../tm4c123gh6pm_startup_ccs.c",line 459,column 36,is_stmt,isa 1
    1461                    ;* --------------------------------------------------------------------------*
    1462                    ;*   BEGIN LOOP ||$C$L24||
    1463                    ;*
    1464                    ;*   Loop source line                : 459
    1465                    ;*   Loop closing brace source line  : 459
    1466                    ;*   Known Minimum Trip Count        : 1
    1467                    ;*   Known Maximum Trip Count        : 4294967295
    1468                    ;*   Known Max Trip Count Factor     : 1
    1469                    ;* --------------------------------------------------------------------------*
    1470 00000034           ||$C$L24||:    
    1471 00000034 E7FE              B         ||$C$L24||            ; [DPU_3_PIPE] |459|  ; [ORIG 16-BIT INS]
    1472                            ; BRANCH OCCURS {||$C$L24||}     ; [] |459| 
    1473                    ;* --------------------------------------------------------------------------*
    1474                            .dwattr $C$DW$28, DW_AT_TI_end_file("../tm4c123gh6pm_startup_ccs.c")
    1475                            .dwattr $C$DW$28, DW_AT_TI_end_line(0x1cb)
    1476                            .dwattr $C$DW$28, DW_AT_TI_end_column(0x28)
    1477                            .dwendentry
    1478                            .dwendtag $C$DW$28
    1479                    
    1480 00000036                   .sect   ".text"
    1481                            .clink
    1482                            .thumbfunc ADC0Seq3_Handler
    1483 00000036                   .thumb
    1484                            .weak   ADC0Seq3_Handler
    1485                    
TI ARM Assembler PC v5.2.4 Mon Jun 29 08:44:35 2015

Tools Copyright (c) 1996-2015 Texas Instruments Incorporated
tm4c123gh6pm_startup_ccs.asm                                         PAGE   28

    1486                    $C$DW$29        .dwtag  DW_TAG_subprogram, DW_AT_name("ADC0Seq3_Handler")
    1487                            .dwattr $C$DW$29, DW_AT_low_pc(ADC0Seq3_Handler)
    1488                            .dwattr $C$DW$29, DW_AT_high_pc(0x00)
    1489                            .dwattr $C$DW$29, DW_AT_TI_symbol_name("ADC0Seq3_Handler")
    1490                            .dwattr $C$DW$29, DW_AT_external
    1491                            .dwattr $C$DW$29, DW_AT_TI_begin_file("../tm4c123gh6pm_startup_ccs.c")
    1492                            .dwattr $C$DW$29, DW_AT_TI_begin_line(0x1cc)
    1493                            .dwattr $C$DW$29, DW_AT_TI_begin_column(0x06)
    1494                            .dwattr $C$DW$29, DW_AT_decl_file("../tm4c123gh6pm_startup_ccs.c")
    1495                            .dwattr $C$DW$29, DW_AT_decl_line(0x1cc)
    1496                            .dwattr $C$DW$29, DW_AT_decl_column(0x06)
    1497                            .dwattr $C$DW$29, DW_AT_TI_max_frame_size(0x00)
    1498                            .dwpsn  file "../tm4c123gh6pm_startup_ccs.c",line 460,column 28,is_stmt,address ADC0Seq3_Handl
    1499                    
    1500                            .dwfde $C$DW$CIE, ADC0Seq3_Handler
    1501                    
    1502                    ;*****************************************************************************
    1503                    ;* FUNCTION NAME: ADC0Seq3_Handler                                           *
    1504                    ;*                                                                           *
    1505                    ;*   Regs Modified     :                                                     *
    1506                    ;*   Regs Used         : LR                                                  *
    1507                    ;*   Local Frame Size  : 0 Args + 0 Auto + 0 Save = 0 byte                   *
    1508                    ;*****************************************************************************
    1509 00000036           ADC0Seq3_Handler:
    1510                    ;* --------------------------------------------------------------------------*
    1511                            .dwcfi  cfa_offset, 0
    1512                            .dwpsn  file "../tm4c123gh6pm_startup_ccs.c",line 460,column 36,is_stmt,isa 1
    1513                    ;* --------------------------------------------------------------------------*
    1514                    ;*   BEGIN LOOP ||$C$L25||
    1515                    ;*
    1516                    ;*   Loop source line                : 460
    1517                    ;*   Loop closing brace source line  : 460
    1518                    ;*   Known Minimum Trip Count        : 1
    1519                    ;*   Known Maximum Trip Count        : 4294967295
    1520                    ;*   Known Max Trip Count Factor     : 1
    1521                    ;* --------------------------------------------------------------------------*
    1522 00000036           ||$C$L25||:    
    1523 00000036 E7FE              B         ||$C$L25||            ; [DPU_3_PIPE] |460|  ; [ORIG 16-BIT INS]
    1524                            ; BRANCH OCCURS {||$C$L25||}     ; [] |460| 
    1525                    ;* --------------------------------------------------------------------------*
    1526                            .dwattr $C$DW$29, DW_AT_TI_end_file("../tm4c123gh6pm_startup_ccs.c")
    1527                            .dwattr $C$DW$29, DW_AT_TI_end_line(0x1cc)
    1528                            .dwattr $C$DW$29, DW_AT_TI_end_column(0x28)
    1529                            .dwendentry
    1530                            .dwendtag $C$DW$29
    1531                    
    1532 00000038                   .sect   ".text"
    1533                            .clink
    1534                            .thumbfunc WDT_Handler
    1535 00000038                   .thumb
    1536                            .weak   WDT_Handler
    1537                    
    1538                    $C$DW$30        .dwtag  DW_TAG_subprogram, DW_AT_name("WDT_Handler")
    1539                            .dwattr $C$DW$30, DW_AT_low_pc(WDT_Handler)
    1540                            .dwattr $C$DW$30, DW_AT_high_pc(0x00)
TI ARM Assembler PC v5.2.4 Mon Jun 29 08:44:35 2015

Tools Copyright (c) 1996-2015 Texas Instruments Incorporated
tm4c123gh6pm_startup_ccs.asm                                         PAGE   29

    1541                            .dwattr $C$DW$30, DW_AT_TI_symbol_name("WDT_Handler")
    1542                            .dwattr $C$DW$30, DW_AT_external
    1543                            .dwattr $C$DW$30, DW_AT_TI_begin_file("../tm4c123gh6pm_startup_ccs.c")
    1544                            .dwattr $C$DW$30, DW_AT_TI_begin_line(0x1cd)
    1545                            .dwattr $C$DW$30, DW_AT_TI_begin_column(0x06)
    1546                            .dwattr $C$DW$30, DW_AT_decl_file("../tm4c123gh6pm_startup_ccs.c")
    1547                            .dwattr $C$DW$30, DW_AT_decl_line(0x1cd)
    1548                            .dwattr $C$DW$30, DW_AT_decl_column(0x06)
    1549                            .dwattr $C$DW$30, DW_AT_TI_max_frame_size(0x00)
    1550                            .dwpsn  file "../tm4c123gh6pm_startup_ccs.c",line 461,column 23,is_stmt,address WDT_Handler,is
    1551                    
    1552                            .dwfde $C$DW$CIE, WDT_Handler
    1553                    
    1554                    ;*****************************************************************************
    1555                    ;* FUNCTION NAME: WDT_Handler                                                *
    1556                    ;*                                                                           *
    1557                    ;*   Regs Modified     :                                                     *
    1558                    ;*   Regs Used         : LR                                                  *
    1559                    ;*   Local Frame Size  : 0 Args + 0 Auto + 0 Save = 0 byte                   *
    1560                    ;*****************************************************************************
    1561 00000038           WDT_Handler:
    1562                    ;* --------------------------------------------------------------------------*
    1563                            .dwcfi  cfa_offset, 0
    1564                            .dwpsn  file "../tm4c123gh6pm_startup_ccs.c",line 461,column 31,is_stmt,isa 1
    1565                    ;* --------------------------------------------------------------------------*
    1566                    ;*   BEGIN LOOP ||$C$L26||
    1567                    ;*
    1568                    ;*   Loop source line                : 461
    1569                    ;*   Loop closing brace source line  : 461
    1570                    ;*   Known Minimum Trip Count        : 1
    1571                    ;*   Known Maximum Trip Count        : 4294967295
    1572                    ;*   Known Max Trip Count Factor     : 1
    1573                    ;* --------------------------------------------------------------------------*
    1574 00000038           ||$C$L26||:    
    1575 00000038 E7FE              B         ||$C$L26||            ; [DPU_3_PIPE] |461|  ; [ORIG 16-BIT INS]
    1576                            ; BRANCH OCCURS {||$C$L26||}     ; [] |461| 
    1577                    ;* --------------------------------------------------------------------------*
    1578                            .dwattr $C$DW$30, DW_AT_TI_end_file("../tm4c123gh6pm_startup_ccs.c")
    1579                            .dwattr $C$DW$30, DW_AT_TI_end_line(0x1cd)
    1580                            .dwattr $C$DW$30, DW_AT_TI_end_column(0x23)
    1581                            .dwendentry
    1582                            .dwendtag $C$DW$30
    1583                    
    1584 0000003a                   .sect   ".text"
    1585                            .clink
    1586                            .thumbfunc Timer0A_Handler
    1587 0000003a                   .thumb
    1588                            .weak   Timer0A_Handler
    1589                    
    1590                    $C$DW$31        .dwtag  DW_TAG_subprogram, DW_AT_name("Timer0A_Handler")
    1591                            .dwattr $C$DW$31, DW_AT_low_pc(Timer0A_Handler)
    1592                            .dwattr $C$DW$31, DW_AT_high_pc(0x00)
    1593                            .dwattr $C$DW$31, DW_AT_TI_symbol_name("Timer0A_Handler")
    1594                            .dwattr $C$DW$31, DW_AT_external
    1595                            .dwattr $C$DW$31, DW_AT_TI_begin_file("../tm4c123gh6pm_startup_ccs.c")
TI ARM Assembler PC v5.2.4 Mon Jun 29 08:44:35 2015

Tools Copyright (c) 1996-2015 Texas Instruments Incorporated
tm4c123gh6pm_startup_ccs.asm                                         PAGE   30

    1596                            .dwattr $C$DW$31, DW_AT_TI_begin_line(0x1ce)
    1597                            .dwattr $C$DW$31, DW_AT_TI_begin_column(0x06)
    1598                            .dwattr $C$DW$31, DW_AT_decl_file("../tm4c123gh6pm_startup_ccs.c")
    1599                            .dwattr $C$DW$31, DW_AT_decl_line(0x1ce)
    1600                            .dwattr $C$DW$31, DW_AT_decl_column(0x06)
    1601                            .dwattr $C$DW$31, DW_AT_TI_max_frame_size(0x00)
    1602                            .dwpsn  file "../tm4c123gh6pm_startup_ccs.c",line 462,column 27,is_stmt,address Timer0A_Handle
    1603                    
    1604                            .dwfde $C$DW$CIE, Timer0A_Handler
    1605                    
    1606                    ;*****************************************************************************
    1607                    ;* FUNCTION NAME: Timer0A_Handler                                            *
    1608                    ;*                                                                           *
    1609                    ;*   Regs Modified     :                                                     *
    1610                    ;*   Regs Used         : LR                                                  *
    1611                    ;*   Local Frame Size  : 0 Args + 0 Auto + 0 Save = 0 byte                   *
    1612                    ;*****************************************************************************
    1613 0000003a           Timer0A_Handler:
    1614                    ;* --------------------------------------------------------------------------*
    1615                            .dwcfi  cfa_offset, 0
    1616                            .dwpsn  file "../tm4c123gh6pm_startup_ccs.c",line 462,column 35,is_stmt,isa 1
    1617                    ;* --------------------------------------------------------------------------*
    1618                    ;*   BEGIN LOOP ||$C$L27||
    1619                    ;*
    1620                    ;*   Loop source line                : 462
    1621                    ;*   Loop closing brace source line  : 462
    1622                    ;*   Known Minimum Trip Count        : 1
    1623                    ;*   Known Maximum Trip Count        : 4294967295
    1624                    ;*   Known Max Trip Count Factor     : 1
    1625                    ;* --------------------------------------------------------------------------*
    1626 0000003a           ||$C$L27||:    
    1627 0000003a E7FE              B         ||$C$L27||            ; [DPU_3_PIPE] |462|  ; [ORIG 16-BIT INS]
    1628                            ; BRANCH OCCURS {||$C$L27||}     ; [] |462| 
    1629                    ;* --------------------------------------------------------------------------*
    1630                            .dwattr $C$DW$31, DW_AT_TI_end_file("../tm4c123gh6pm_startup_ccs.c")
    1631                            .dwattr $C$DW$31, DW_AT_TI_end_line(0x1ce)
    1632                            .dwattr $C$DW$31, DW_AT_TI_end_column(0x27)
    1633                            .dwendentry
    1634                            .dwendtag $C$DW$31
    1635                    
    1636 0000003c                   .sect   ".text"
    1637                            .clink
    1638                            .thumbfunc Timer0B_Handler
    1639 0000003c                   .thumb
    1640                            .weak   Timer0B_Handler
    1641                    
    1642                    $C$DW$32        .dwtag  DW_TAG_subprogram, DW_AT_name("Timer0B_Handler")
    1643                            .dwattr $C$DW$32, DW_AT_low_pc(Timer0B_Handler)
    1644                            .dwattr $C$DW$32, DW_AT_high_pc(0x00)
    1645                            .dwattr $C$DW$32, DW_AT_TI_symbol_name("Timer0B_Handler")
    1646                            .dwattr $C$DW$32, DW_AT_external
    1647                            .dwattr $C$DW$32, DW_AT_TI_begin_file("../tm4c123gh6pm_startup_ccs.c")
    1648                            .dwattr $C$DW$32, DW_AT_TI_begin_line(0x1cf)
    1649                            .dwattr $C$DW$32, DW_AT_TI_begin_column(0x06)
    1650                            .dwattr $C$DW$32, DW_AT_decl_file("../tm4c123gh6pm_startup_ccs.c")
TI ARM Assembler PC v5.2.4 Mon Jun 29 08:44:35 2015

Tools Copyright (c) 1996-2015 Texas Instruments Incorporated
tm4c123gh6pm_startup_ccs.asm                                         PAGE   31

    1651                            .dwattr $C$DW$32, DW_AT_decl_line(0x1cf)
    1652                            .dwattr $C$DW$32, DW_AT_decl_column(0x06)
    1653                            .dwattr $C$DW$32, DW_AT_TI_max_frame_size(0x00)
    1654                            .dwpsn  file "../tm4c123gh6pm_startup_ccs.c",line 463,column 27,is_stmt,address Timer0B_Handle
    1655                    
    1656                            .dwfde $C$DW$CIE, Timer0B_Handler
    1657                    
    1658                    ;*****************************************************************************
    1659                    ;* FUNCTION NAME: Timer0B_Handler                                            *
    1660                    ;*                                                                           *
    1661                    ;*   Regs Modified     :                                                     *
    1662                    ;*   Regs Used         : LR                                                  *
    1663                    ;*   Local Frame Size  : 0 Args + 0 Auto + 0 Save = 0 byte                   *
    1664                    ;*****************************************************************************
    1665 0000003c           Timer0B_Handler:
    1666                    ;* --------------------------------------------------------------------------*
    1667                            .dwcfi  cfa_offset, 0
    1668                            .dwpsn  file "../tm4c123gh6pm_startup_ccs.c",line 463,column 35,is_stmt,isa 1
    1669                    ;* --------------------------------------------------------------------------*
    1670                    ;*   BEGIN LOOP ||$C$L28||
    1671                    ;*
    1672                    ;*   Loop source line                : 463
    1673                    ;*   Loop closing brace source line  : 463
    1674                    ;*   Known Minimum Trip Count        : 1
    1675                    ;*   Known Maximum Trip Count        : 4294967295
    1676                    ;*   Known Max Trip Count Factor     : 1
    1677                    ;* --------------------------------------------------------------------------*
    1678 0000003c           ||$C$L28||:    
    1679 0000003c E7FE              B         ||$C$L28||            ; [DPU_3_PIPE] |463|  ; [ORIG 16-BIT INS]
    1680                            ; BRANCH OCCURS {||$C$L28||}     ; [] |463| 
    1681                    ;* --------------------------------------------------------------------------*
    1682                            .dwattr $C$DW$32, DW_AT_TI_end_file("../tm4c123gh6pm_startup_ccs.c")
    1683                            .dwattr $C$DW$32, DW_AT_TI_end_line(0x1cf)
    1684                            .dwattr $C$DW$32, DW_AT_TI_end_column(0x27)
    1685                            .dwendentry
    1686                            .dwendtag $C$DW$32
    1687                    
    1688 0000003e                   .sect   ".text"
    1689                            .clink
    1690                            .thumbfunc Timer1A_Handler
    1691 0000003e                   .thumb
    1692                            .weak   Timer1A_Handler
    1693                    
    1694                    $C$DW$33        .dwtag  DW_TAG_subprogram, DW_AT_name("Timer1A_Handler")
    1695                            .dwattr $C$DW$33, DW_AT_low_pc(Timer1A_Handler)
    1696                            .dwattr $C$DW$33, DW_AT_high_pc(0x00)
    1697                            .dwattr $C$DW$33, DW_AT_TI_symbol_name("Timer1A_Handler")
    1698                            .dwattr $C$DW$33, DW_AT_external
    1699                            .dwattr $C$DW$33, DW_AT_TI_begin_file("../tm4c123gh6pm_startup_ccs.c")
    1700                            .dwattr $C$DW$33, DW_AT_TI_begin_line(0x1d0)
    1701                            .dwattr $C$DW$33, DW_AT_TI_begin_column(0x06)
    1702                            .dwattr $C$DW$33, DW_AT_decl_file("../tm4c123gh6pm_startup_ccs.c")
    1703                            .dwattr $C$DW$33, DW_AT_decl_line(0x1d0)
    1704                            .dwattr $C$DW$33, DW_AT_decl_column(0x06)
    1705                            .dwattr $C$DW$33, DW_AT_TI_max_frame_size(0x00)
TI ARM Assembler PC v5.2.4 Mon Jun 29 08:44:35 2015

Tools Copyright (c) 1996-2015 Texas Instruments Incorporated
tm4c123gh6pm_startup_ccs.asm                                         PAGE   32

    1706                            .dwpsn  file "../tm4c123gh6pm_startup_ccs.c",line 464,column 27,is_stmt,address Timer1A_Handle
    1707                    
    1708                            .dwfde $C$DW$CIE, Timer1A_Handler
    1709                    
    1710                    ;*****************************************************************************
    1711                    ;* FUNCTION NAME: Timer1A_Handler                                            *
    1712                    ;*                                                                           *
    1713                    ;*   Regs Modified     :                                                     *
    1714                    ;*   Regs Used         : LR                                                  *
    1715                    ;*   Local Frame Size  : 0 Args + 0 Auto + 0 Save = 0 byte                   *
    1716                    ;*****************************************************************************
    1717 0000003e           Timer1A_Handler:
    1718                    ;* --------------------------------------------------------------------------*
    1719                            .dwcfi  cfa_offset, 0
    1720                            .dwpsn  file "../tm4c123gh6pm_startup_ccs.c",line 464,column 35,is_stmt,isa 1
    1721                    ;* --------------------------------------------------------------------------*
    1722                    ;*   BEGIN LOOP ||$C$L29||
    1723                    ;*
    1724                    ;*   Loop source line                : 464
    1725                    ;*   Loop closing brace source line  : 464
    1726                    ;*   Known Minimum Trip Count        : 1
    1727                    ;*   Known Maximum Trip Count        : 4294967295
    1728                    ;*   Known Max Trip Count Factor     : 1
    1729                    ;* --------------------------------------------------------------------------*
    1730 0000003e           ||$C$L29||:    
    1731 0000003e E7FE              B         ||$C$L29||            ; [DPU_3_PIPE] |464|  ; [ORIG 16-BIT INS]
    1732                            ; BRANCH OCCURS {||$C$L29||}     ; [] |464| 
    1733                    ;* --------------------------------------------------------------------------*
    1734                            .dwattr $C$DW$33, DW_AT_TI_end_file("../tm4c123gh6pm_startup_ccs.c")
    1735                            .dwattr $C$DW$33, DW_AT_TI_end_line(0x1d0)
    1736                            .dwattr $C$DW$33, DW_AT_TI_end_column(0x27)
    1737                            .dwendentry
    1738                            .dwendtag $C$DW$33
    1739                    
    1740 00000040                   .sect   ".text"
    1741                            .clink
    1742                            .thumbfunc Timer1B_Handler
    1743 00000040                   .thumb
    1744                            .weak   Timer1B_Handler
    1745                    
    1746                    $C$DW$34        .dwtag  DW_TAG_subprogram, DW_AT_name("Timer1B_Handler")
    1747                            .dwattr $C$DW$34, DW_AT_low_pc(Timer1B_Handler)
    1748                            .dwattr $C$DW$34, DW_AT_high_pc(0x00)
    1749                            .dwattr $C$DW$34, DW_AT_TI_symbol_name("Timer1B_Handler")
    1750                            .dwattr $C$DW$34, DW_AT_external
    1751                            .dwattr $C$DW$34, DW_AT_TI_begin_file("../tm4c123gh6pm_startup_ccs.c")
    1752                            .dwattr $C$DW$34, DW_AT_TI_begin_line(0x1d1)
    1753                            .dwattr $C$DW$34, DW_AT_TI_begin_column(0x06)
    1754                            .dwattr $C$DW$34, DW_AT_decl_file("../tm4c123gh6pm_startup_ccs.c")
    1755                            .dwattr $C$DW$34, DW_AT_decl_line(0x1d1)
    1756                            .dwattr $C$DW$34, DW_AT_decl_column(0x06)
    1757                            .dwattr $C$DW$34, DW_AT_TI_max_frame_size(0x00)
    1758                            .dwpsn  file "../tm4c123gh6pm_startup_ccs.c",line 465,column 27,is_stmt,address Timer1B_Handle
    1759                    
    1760                            .dwfde $C$DW$CIE, Timer1B_Handler
TI ARM Assembler PC v5.2.4 Mon Jun 29 08:44:35 2015

Tools Copyright (c) 1996-2015 Texas Instruments Incorporated
tm4c123gh6pm_startup_ccs.asm                                         PAGE   33

    1761                    
    1762                    ;*****************************************************************************
    1763                    ;* FUNCTION NAME: Timer1B_Handler                                            *
    1764                    ;*                                                                           *
    1765                    ;*   Regs Modified     :                                                     *
    1766                    ;*   Regs Used         : LR                                                  *
    1767                    ;*   Local Frame Size  : 0 Args + 0 Auto + 0 Save = 0 byte                   *
    1768                    ;*****************************************************************************
    1769 00000040           Timer1B_Handler:
    1770                    ;* --------------------------------------------------------------------------*
    1771                            .dwcfi  cfa_offset, 0
    1772                            .dwpsn  file "../tm4c123gh6pm_startup_ccs.c",line 465,column 35,is_stmt,isa 1
    1773                    ;* --------------------------------------------------------------------------*
    1774                    ;*   BEGIN LOOP ||$C$L30||
    1775                    ;*
    1776                    ;*   Loop source line                : 465
    1777                    ;*   Loop closing brace source line  : 465
    1778                    ;*   Known Minimum Trip Count        : 1
    1779                    ;*   Known Maximum Trip Count        : 4294967295
    1780                    ;*   Known Max Trip Count Factor     : 1
    1781                    ;* --------------------------------------------------------------------------*
    1782 00000040           ||$C$L30||:    
    1783 00000040 E7FE              B         ||$C$L30||            ; [DPU_3_PIPE] |465|  ; [ORIG 16-BIT INS]
    1784                            ; BRANCH OCCURS {||$C$L30||}     ; [] |465| 
    1785                    ;* --------------------------------------------------------------------------*
    1786                            .dwattr $C$DW$34, DW_AT_TI_end_file("../tm4c123gh6pm_startup_ccs.c")
    1787                            .dwattr $C$DW$34, DW_AT_TI_end_line(0x1d1)
    1788                            .dwattr $C$DW$34, DW_AT_TI_end_column(0x27)
    1789                            .dwendentry
    1790                            .dwendtag $C$DW$34
    1791                    
    1792 00000042                   .sect   ".text"
    1793                            .clink
    1794                            .thumbfunc Timer2A_Handler
    1795 00000042                   .thumb
    1796                            .weak   Timer2A_Handler
    1797                    
    1798                    $C$DW$35        .dwtag  DW_TAG_subprogram, DW_AT_name("Timer2A_Handler")
    1799                            .dwattr $C$DW$35, DW_AT_low_pc(Timer2A_Handler)
    1800                            .dwattr $C$DW$35, DW_AT_high_pc(0x00)
    1801                            .dwattr $C$DW$35, DW_AT_TI_symbol_name("Timer2A_Handler")
    1802                            .dwattr $C$DW$35, DW_AT_external
    1803                            .dwattr $C$DW$35, DW_AT_TI_begin_file("../tm4c123gh6pm_startup_ccs.c")
    1804                            .dwattr $C$DW$35, DW_AT_TI_begin_line(0x1d2)
    1805                            .dwattr $C$DW$35, DW_AT_TI_begin_column(0x06)
    1806                            .dwattr $C$DW$35, DW_AT_decl_file("../tm4c123gh6pm_startup_ccs.c")
    1807                            .dwattr $C$DW$35, DW_AT_decl_line(0x1d2)
    1808                            .dwattr $C$DW$35, DW_AT_decl_column(0x06)
    1809                            .dwattr $C$DW$35, DW_AT_TI_max_frame_size(0x00)
    1810                            .dwpsn  file "../tm4c123gh6pm_startup_ccs.c",line 466,column 27,is_stmt,address Timer2A_Handle
    1811                    
    1812                            .dwfde $C$DW$CIE, Timer2A_Handler
    1813                    
    1814                    ;*****************************************************************************
    1815                    ;* FUNCTION NAME: Timer2A_Handler                                            *
TI ARM Assembler PC v5.2.4 Mon Jun 29 08:44:35 2015

Tools Copyright (c) 1996-2015 Texas Instruments Incorporated
tm4c123gh6pm_startup_ccs.asm                                         PAGE   34

    1816                    ;*                                                                           *
    1817                    ;*   Regs Modified     :                                                     *
    1818                    ;*   Regs Used         : LR                                                  *
    1819                    ;*   Local Frame Size  : 0 Args + 0 Auto + 0 Save = 0 byte                   *
    1820                    ;*****************************************************************************
    1821 00000042           Timer2A_Handler:
    1822                    ;* --------------------------------------------------------------------------*
    1823                            .dwcfi  cfa_offset, 0
    1824                            .dwpsn  file "../tm4c123gh6pm_startup_ccs.c",line 466,column 35,is_stmt,isa 1
    1825                    ;* --------------------------------------------------------------------------*
    1826                    ;*   BEGIN LOOP ||$C$L31||
    1827                    ;*
    1828                    ;*   Loop source line                : 466
    1829                    ;*   Loop closing brace source line  : 466
    1830                    ;*   Known Minimum Trip Count        : 1
    1831                    ;*   Known Maximum Trip Count        : 4294967295
    1832                    ;*   Known Max Trip Count Factor     : 1
    1833                    ;* --------------------------------------------------------------------------*
    1834 00000042           ||$C$L31||:    
    1835 00000042 E7FE              B         ||$C$L31||            ; [DPU_3_PIPE] |466|  ; [ORIG 16-BIT INS]
    1836                            ; BRANCH OCCURS {||$C$L31||}     ; [] |466| 
    1837                    ;* --------------------------------------------------------------------------*
    1838                            .dwattr $C$DW$35, DW_AT_TI_end_file("../tm4c123gh6pm_startup_ccs.c")
    1839                            .dwattr $C$DW$35, DW_AT_TI_end_line(0x1d2)
    1840                            .dwattr $C$DW$35, DW_AT_TI_end_column(0x27)
    1841                            .dwendentry
    1842                            .dwendtag $C$DW$35
    1843                    
    1844 00000044                   .sect   ".text"
    1845                            .clink
    1846                            .thumbfunc Timer2B_Handler
    1847 00000044                   .thumb
    1848                            .weak   Timer2B_Handler
    1849                    
    1850                    $C$DW$36        .dwtag  DW_TAG_subprogram, DW_AT_name("Timer2B_Handler")
    1851                            .dwattr $C$DW$36, DW_AT_low_pc(Timer2B_Handler)
    1852                            .dwattr $C$DW$36, DW_AT_high_pc(0x00)
    1853                            .dwattr $C$DW$36, DW_AT_TI_symbol_name("Timer2B_Handler")
    1854                            .dwattr $C$DW$36, DW_AT_external
    1855                            .dwattr $C$DW$36, DW_AT_TI_begin_file("../tm4c123gh6pm_startup_ccs.c")
    1856                            .dwattr $C$DW$36, DW_AT_TI_begin_line(0x1d3)
    1857                            .dwattr $C$DW$36, DW_AT_TI_begin_column(0x06)
    1858                            .dwattr $C$DW$36, DW_AT_decl_file("../tm4c123gh6pm_startup_ccs.c")
    1859                            .dwattr $C$DW$36, DW_AT_decl_line(0x1d3)
    1860                            .dwattr $C$DW$36, DW_AT_decl_column(0x06)
    1861                            .dwattr $C$DW$36, DW_AT_TI_max_frame_size(0x00)
    1862                            .dwpsn  file "../tm4c123gh6pm_startup_ccs.c",line 467,column 27,is_stmt,address Timer2B_Handle
    1863                    
    1864                            .dwfde $C$DW$CIE, Timer2B_Handler
    1865                    
    1866                    ;*****************************************************************************
    1867                    ;* FUNCTION NAME: Timer2B_Handler                                            *
    1868                    ;*                                                                           *
    1869                    ;*   Regs Modified     :                                                     *
    1870                    ;*   Regs Used         : LR                                                  *
TI ARM Assembler PC v5.2.4 Mon Jun 29 08:44:35 2015

Tools Copyright (c) 1996-2015 Texas Instruments Incorporated
tm4c123gh6pm_startup_ccs.asm                                         PAGE   35

    1871                    ;*   Local Frame Size  : 0 Args + 0 Auto + 0 Save = 0 byte                   *
    1872                    ;*****************************************************************************
    1873 00000044           Timer2B_Handler:
    1874                    ;* --------------------------------------------------------------------------*
    1875                            .dwcfi  cfa_offset, 0
    1876                            .dwpsn  file "../tm4c123gh6pm_startup_ccs.c",line 467,column 35,is_stmt,isa 1
    1877                    ;* --------------------------------------------------------------------------*
    1878                    ;*   BEGIN LOOP ||$C$L32||
    1879                    ;*
    1880                    ;*   Loop source line                : 467
    1881                    ;*   Loop closing brace source line  : 467
    1882                    ;*   Known Minimum Trip Count        : 1
    1883                    ;*   Known Maximum Trip Count        : 4294967295
    1884                    ;*   Known Max Trip Count Factor     : 1
    1885                    ;* --------------------------------------------------------------------------*
    1886 00000044           ||$C$L32||:    
    1887 00000044 E7FE              B         ||$C$L32||            ; [DPU_3_PIPE] |467|  ; [ORIG 16-BIT INS]
    1888                            ; BRANCH OCCURS {||$C$L32||}     ; [] |467| 
    1889                    ;* --------------------------------------------------------------------------*
    1890                            .dwattr $C$DW$36, DW_AT_TI_end_file("../tm4c123gh6pm_startup_ccs.c")
    1891                            .dwattr $C$DW$36, DW_AT_TI_end_line(0x1d3)
    1892                            .dwattr $C$DW$36, DW_AT_TI_end_column(0x27)
    1893                            .dwendentry
    1894                            .dwendtag $C$DW$36
    1895                    
    1896 00000046                   .sect   ".text"
    1897                            .clink
    1898                            .thumbfunc Comp0_Handler
    1899 00000046                   .thumb
    1900                            .weak   Comp0_Handler
    1901                    
    1902                    $C$DW$37        .dwtag  DW_TAG_subprogram, DW_AT_name("Comp0_Handler")
    1903                            .dwattr $C$DW$37, DW_AT_low_pc(Comp0_Handler)
    1904                            .dwattr $C$DW$37, DW_AT_high_pc(0x00)
    1905                            .dwattr $C$DW$37, DW_AT_TI_symbol_name("Comp0_Handler")
    1906                            .dwattr $C$DW$37, DW_AT_external
    1907                            .dwattr $C$DW$37, DW_AT_TI_begin_file("../tm4c123gh6pm_startup_ccs.c")
    1908                            .dwattr $C$DW$37, DW_AT_TI_begin_line(0x1d4)
    1909                            .dwattr $C$DW$37, DW_AT_TI_begin_column(0x06)
    1910                            .dwattr $C$DW$37, DW_AT_decl_file("../tm4c123gh6pm_startup_ccs.c")
    1911                            .dwattr $C$DW$37, DW_AT_decl_line(0x1d4)
    1912                            .dwattr $C$DW$37, DW_AT_decl_column(0x06)
    1913                            .dwattr $C$DW$37, DW_AT_TI_max_frame_size(0x00)
    1914                            .dwpsn  file "../tm4c123gh6pm_startup_ccs.c",line 468,column 25,is_stmt,address Comp0_Handler,
    1915                    
    1916                            .dwfde $C$DW$CIE, Comp0_Handler
    1917                    
    1918                    ;*****************************************************************************
    1919                    ;* FUNCTION NAME: Comp0_Handler                                              *
    1920                    ;*                                                                           *
    1921                    ;*   Regs Modified     :                                                     *
    1922                    ;*   Regs Used         : LR                                                  *
    1923                    ;*   Local Frame Size  : 0 Args + 0 Auto + 0 Save = 0 byte                   *
    1924                    ;*****************************************************************************
    1925 00000046           Comp0_Handler:
TI ARM Assembler PC v5.2.4 Mon Jun 29 08:44:35 2015

Tools Copyright (c) 1996-2015 Texas Instruments Incorporated
tm4c123gh6pm_startup_ccs.asm                                         PAGE   36

    1926                    ;* --------------------------------------------------------------------------*
    1927                            .dwcfi  cfa_offset, 0
    1928                            .dwpsn  file "../tm4c123gh6pm_startup_ccs.c",line 468,column 33,is_stmt,isa 1
    1929                    ;* --------------------------------------------------------------------------*
    1930                    ;*   BEGIN LOOP ||$C$L33||
    1931                    ;*
    1932                    ;*   Loop source line                : 468
    1933                    ;*   Loop closing brace source line  : 468
    1934                    ;*   Known Minimum Trip Count        : 1
    1935                    ;*   Known Maximum Trip Count        : 4294967295
    1936                    ;*   Known Max Trip Count Factor     : 1
    1937                    ;* --------------------------------------------------------------------------*
    1938 00000046           ||$C$L33||:    
    1939 00000046 E7FE              B         ||$C$L33||            ; [DPU_3_PIPE] |468|  ; [ORIG 16-BIT INS]
    1940                            ; BRANCH OCCURS {||$C$L33||}     ; [] |468| 
    1941                    ;* --------------------------------------------------------------------------*
    1942                            .dwattr $C$DW$37, DW_AT_TI_end_file("../tm4c123gh6pm_startup_ccs.c")
    1943                            .dwattr $C$DW$37, DW_AT_TI_end_line(0x1d4)
    1944                            .dwattr $C$DW$37, DW_AT_TI_end_column(0x25)
    1945                            .dwendentry
    1946                            .dwendtag $C$DW$37
    1947                    
    1948 00000048                   .sect   ".text"
    1949                            .clink
    1950                            .thumbfunc Comp1_Handler
    1951 00000048                   .thumb
    1952                            .weak   Comp1_Handler
    1953                    
    1954                    $C$DW$38        .dwtag  DW_TAG_subprogram, DW_AT_name("Comp1_Handler")
    1955                            .dwattr $C$DW$38, DW_AT_low_pc(Comp1_Handler)
    1956                            .dwattr $C$DW$38, DW_AT_high_pc(0x00)
    1957                            .dwattr $C$DW$38, DW_AT_TI_symbol_name("Comp1_Handler")
    1958                            .dwattr $C$DW$38, DW_AT_external
    1959                            .dwattr $C$DW$38, DW_AT_TI_begin_file("../tm4c123gh6pm_startup_ccs.c")
    1960                            .dwattr $C$DW$38, DW_AT_TI_begin_line(0x1d5)
    1961                            .dwattr $C$DW$38, DW_AT_TI_begin_column(0x06)
    1962                            .dwattr $C$DW$38, DW_AT_decl_file("../tm4c123gh6pm_startup_ccs.c")
    1963                            .dwattr $C$DW$38, DW_AT_decl_line(0x1d5)
    1964                            .dwattr $C$DW$38, DW_AT_decl_column(0x06)
    1965                            .dwattr $C$DW$38, DW_AT_TI_max_frame_size(0x00)
    1966                            .dwpsn  file "../tm4c123gh6pm_startup_ccs.c",line 469,column 25,is_stmt,address Comp1_Handler,
    1967                    
    1968                            .dwfde $C$DW$CIE, Comp1_Handler
    1969                    
    1970                    ;*****************************************************************************
    1971                    ;* FUNCTION NAME: Comp1_Handler                                              *
    1972                    ;*                                                                           *
    1973                    ;*   Regs Modified     :                                                     *
    1974                    ;*   Regs Used         : LR                                                  *
    1975                    ;*   Local Frame Size  : 0 Args + 0 Auto + 0 Save = 0 byte                   *
    1976                    ;*****************************************************************************
    1977 00000048           Comp1_Handler:
    1978                    ;* --------------------------------------------------------------------------*
    1979                            .dwcfi  cfa_offset, 0
    1980                            .dwpsn  file "../tm4c123gh6pm_startup_ccs.c",line 469,column 33,is_stmt,isa 1
TI ARM Assembler PC v5.2.4 Mon Jun 29 08:44:35 2015

Tools Copyright (c) 1996-2015 Texas Instruments Incorporated
tm4c123gh6pm_startup_ccs.asm                                         PAGE   37

    1981                    ;* --------------------------------------------------------------------------*
    1982                    ;*   BEGIN LOOP ||$C$L34||
    1983                    ;*
    1984                    ;*   Loop source line                : 469
    1985                    ;*   Loop closing brace source line  : 469
    1986                    ;*   Known Minimum Trip Count        : 1
    1987                    ;*   Known Maximum Trip Count        : 4294967295
    1988                    ;*   Known Max Trip Count Factor     : 1
    1989                    ;* --------------------------------------------------------------------------*
    1990 00000048           ||$C$L34||:    
    1991 00000048 E7FE              B         ||$C$L34||            ; [DPU_3_PIPE] |469|  ; [ORIG 16-BIT INS]
    1992                            ; BRANCH OCCURS {||$C$L34||}     ; [] |469| 
    1993                    ;* --------------------------------------------------------------------------*
    1994                            .dwattr $C$DW$38, DW_AT_TI_end_file("../tm4c123gh6pm_startup_ccs.c")
    1995                            .dwattr $C$DW$38, DW_AT_TI_end_line(0x1d5)
    1996                            .dwattr $C$DW$38, DW_AT_TI_end_column(0x25)
    1997                            .dwendentry
    1998                            .dwendtag $C$DW$38
    1999                    
    2000 0000004a                   .sect   ".text"
    2001                            .clink
    2002                            .thumbfunc Comp2_Handler
    2003 0000004a                   .thumb
    2004                            .weak   Comp2_Handler
    2005                    
    2006                    $C$DW$39        .dwtag  DW_TAG_subprogram, DW_AT_name("Comp2_Handler")
    2007                            .dwattr $C$DW$39, DW_AT_low_pc(Comp2_Handler)
    2008                            .dwattr $C$DW$39, DW_AT_high_pc(0x00)
    2009                            .dwattr $C$DW$39, DW_AT_TI_symbol_name("Comp2_Handler")
    2010                            .dwattr $C$DW$39, DW_AT_external
    2011                            .dwattr $C$DW$39, DW_AT_TI_begin_file("../tm4c123gh6pm_startup_ccs.c")
    2012                            .dwattr $C$DW$39, DW_AT_TI_begin_line(0x1d6)
    2013                            .dwattr $C$DW$39, DW_AT_TI_begin_column(0x06)
    2014                            .dwattr $C$DW$39, DW_AT_decl_file("../tm4c123gh6pm_startup_ccs.c")
    2015                            .dwattr $C$DW$39, DW_AT_decl_line(0x1d6)
    2016                            .dwattr $C$DW$39, DW_AT_decl_column(0x06)
    2017                            .dwattr $C$DW$39, DW_AT_TI_max_frame_size(0x00)
    2018                            .dwpsn  file "../tm4c123gh6pm_startup_ccs.c",line 470,column 25,is_stmt,address Comp2_Handler,
    2019                    
    2020                            .dwfde $C$DW$CIE, Comp2_Handler
    2021                    
    2022                    ;*****************************************************************************
    2023                    ;* FUNCTION NAME: Comp2_Handler                                              *
    2024                    ;*                                                                           *
    2025                    ;*   Regs Modified     :                                                     *
    2026                    ;*   Regs Used         : LR                                                  *
    2027                    ;*   Local Frame Size  : 0 Args + 0 Auto + 0 Save = 0 byte                   *
    2028                    ;*****************************************************************************
    2029 0000004a           Comp2_Handler:
    2030                    ;* --------------------------------------------------------------------------*
    2031                            .dwcfi  cfa_offset, 0
    2032                            .dwpsn  file "../tm4c123gh6pm_startup_ccs.c",line 470,column 33,is_stmt,isa 1
    2033                    ;* --------------------------------------------------------------------------*
    2034                    ;*   BEGIN LOOP ||$C$L35||
    2035                    ;*
TI ARM Assembler PC v5.2.4 Mon Jun 29 08:44:35 2015

Tools Copyright (c) 1996-2015 Texas Instruments Incorporated
tm4c123gh6pm_startup_ccs.asm                                         PAGE   38

    2036                    ;*   Loop source line                : 470
    2037                    ;*   Loop closing brace source line  : 470
    2038                    ;*   Known Minimum Trip Count        : 1
    2039                    ;*   Known Maximum Trip Count        : 4294967295
    2040                    ;*   Known Max Trip Count Factor     : 1
    2041                    ;* --------------------------------------------------------------------------*
    2042 0000004a           ||$C$L35||:    
    2043 0000004a E7FE              B         ||$C$L35||            ; [DPU_3_PIPE] |470|  ; [ORIG 16-BIT INS]
    2044                            ; BRANCH OCCURS {||$C$L35||}     ; [] |470| 
    2045                    ;* --------------------------------------------------------------------------*
    2046                            .dwattr $C$DW$39, DW_AT_TI_end_file("../tm4c123gh6pm_startup_ccs.c")
    2047                            .dwattr $C$DW$39, DW_AT_TI_end_line(0x1d6)
    2048                            .dwattr $C$DW$39, DW_AT_TI_end_column(0x25)
    2049                            .dwendentry
    2050                            .dwendtag $C$DW$39
    2051                    
    2052 0000004c                   .sect   ".text"
    2053                            .clink
    2054                            .thumbfunc SysCtl_Handler
    2055 0000004c                   .thumb
    2056                            .weak   SysCtl_Handler
    2057                    
    2058                    $C$DW$40        .dwtag  DW_TAG_subprogram, DW_AT_name("SysCtl_Handler")
    2059                            .dwattr $C$DW$40, DW_AT_low_pc(SysCtl_Handler)
    2060                            .dwattr $C$DW$40, DW_AT_high_pc(0x00)
    2061                            .dwattr $C$DW$40, DW_AT_TI_symbol_name("SysCtl_Handler")
    2062                            .dwattr $C$DW$40, DW_AT_external
    2063                            .dwattr $C$DW$40, DW_AT_TI_begin_file("../tm4c123gh6pm_startup_ccs.c")
    2064                            .dwattr $C$DW$40, DW_AT_TI_begin_line(0x1d7)
    2065                            .dwattr $C$DW$40, DW_AT_TI_begin_column(0x06)
    2066                            .dwattr $C$DW$40, DW_AT_decl_file("../tm4c123gh6pm_startup_ccs.c")
    2067                            .dwattr $C$DW$40, DW_AT_decl_line(0x1d7)
    2068                            .dwattr $C$DW$40, DW_AT_decl_column(0x06)
    2069                            .dwattr $C$DW$40, DW_AT_TI_max_frame_size(0x00)
    2070                            .dwpsn  file "../tm4c123gh6pm_startup_ccs.c",line 471,column 26,is_stmt,address SysCtl_Handler
    2071                    
    2072                            .dwfde $C$DW$CIE, SysCtl_Handler
    2073                    
    2074                    ;*****************************************************************************
    2075                    ;* FUNCTION NAME: SysCtl_Handler                                             *
    2076                    ;*                                                                           *
    2077                    ;*   Regs Modified     :                                                     *
    2078                    ;*   Regs Used         : LR                                                  *
    2079                    ;*   Local Frame Size  : 0 Args + 0 Auto + 0 Save = 0 byte                   *
    2080                    ;*****************************************************************************
    2081 0000004c           SysCtl_Handler:
    2082                    ;* --------------------------------------------------------------------------*
    2083                            .dwcfi  cfa_offset, 0
    2084                            .dwpsn  file "../tm4c123gh6pm_startup_ccs.c",line 471,column 34,is_stmt,isa 1
    2085                    ;* --------------------------------------------------------------------------*
    2086                    ;*   BEGIN LOOP ||$C$L36||
    2087                    ;*
    2088                    ;*   Loop source line                : 471
    2089                    ;*   Loop closing brace source line  : 471
    2090                    ;*   Known Minimum Trip Count        : 1
TI ARM Assembler PC v5.2.4 Mon Jun 29 08:44:35 2015

Tools Copyright (c) 1996-2015 Texas Instruments Incorporated
tm4c123gh6pm_startup_ccs.asm                                         PAGE   39

    2091                    ;*   Known Maximum Trip Count        : 4294967295
    2092                    ;*   Known Max Trip Count Factor     : 1
    2093                    ;* --------------------------------------------------------------------------*
    2094 0000004c           ||$C$L36||:    
    2095 0000004c E7FE              B         ||$C$L36||            ; [DPU_3_PIPE] |471|  ; [ORIG 16-BIT INS]
    2096                            ; BRANCH OCCURS {||$C$L36||}     ; [] |471| 
    2097                    ;* --------------------------------------------------------------------------*
    2098                            .dwattr $C$DW$40, DW_AT_TI_end_file("../tm4c123gh6pm_startup_ccs.c")
    2099                            .dwattr $C$DW$40, DW_AT_TI_end_line(0x1d7)
    2100                            .dwattr $C$DW$40, DW_AT_TI_end_column(0x26)
    2101                            .dwendentry
    2102                            .dwendtag $C$DW$40
    2103                    
    2104 0000004e                   .sect   ".text"
    2105                            .clink
    2106                            .thumbfunc FlashCtl_Handler
    2107 0000004e                   .thumb
    2108                            .weak   FlashCtl_Handler
    2109                    
    2110                    $C$DW$41        .dwtag  DW_TAG_subprogram, DW_AT_name("FlashCtl_Handler")
    2111                            .dwattr $C$DW$41, DW_AT_low_pc(FlashCtl_Handler)
    2112                            .dwattr $C$DW$41, DW_AT_high_pc(0x00)
    2113                            .dwattr $C$DW$41, DW_AT_TI_symbol_name("FlashCtl_Handler")
    2114                            .dwattr $C$DW$41, DW_AT_external
    2115                            .dwattr $C$DW$41, DW_AT_TI_begin_file("../tm4c123gh6pm_startup_ccs.c")
    2116                            .dwattr $C$DW$41, DW_AT_TI_begin_line(0x1d8)
    2117                            .dwattr $C$DW$41, DW_AT_TI_begin_column(0x06)
    2118                            .dwattr $C$DW$41, DW_AT_decl_file("../tm4c123gh6pm_startup_ccs.c")
    2119                            .dwattr $C$DW$41, DW_AT_decl_line(0x1d8)
    2120                            .dwattr $C$DW$41, DW_AT_decl_column(0x06)
    2121                            .dwattr $C$DW$41, DW_AT_TI_max_frame_size(0x00)
    2122                            .dwpsn  file "../tm4c123gh6pm_startup_ccs.c",line 472,column 28,is_stmt,address FlashCtl_Handl
    2123                    
    2124                            .dwfde $C$DW$CIE, FlashCtl_Handler
    2125                    
    2126                    ;*****************************************************************************
    2127                    ;* FUNCTION NAME: FlashCtl_Handler                                           *
    2128                    ;*                                                                           *
    2129                    ;*   Regs Modified     :                                                     *
    2130                    ;*   Regs Used         : LR                                                  *
    2131                    ;*   Local Frame Size  : 0 Args + 0 Auto + 0 Save = 0 byte                   *
    2132                    ;*****************************************************************************
    2133 0000004e           FlashCtl_Handler:
    2134                    ;* --------------------------------------------------------------------------*
    2135                            .dwcfi  cfa_offset, 0
    2136                            .dwpsn  file "../tm4c123gh6pm_startup_ccs.c",line 472,column 36,is_stmt,isa 1
    2137                    ;* --------------------------------------------------------------------------*
    2138                    ;*   BEGIN LOOP ||$C$L37||
    2139                    ;*
    2140                    ;*   Loop source line                : 472
    2141                    ;*   Loop closing brace source line  : 472
    2142                    ;*   Known Minimum Trip Count        : 1
    2143                    ;*   Known Maximum Trip Count        : 4294967295
    2144                    ;*   Known Max Trip Count Factor     : 1
    2145                    ;* --------------------------------------------------------------------------*
TI ARM Assembler PC v5.2.4 Mon Jun 29 08:44:35 2015

Tools Copyright (c) 1996-2015 Texas Instruments Incorporated
tm4c123gh6pm_startup_ccs.asm                                         PAGE   40

    2146 0000004e           ||$C$L37||:    
    2147 0000004e E7FE              B         ||$C$L37||            ; [DPU_3_PIPE] |472|  ; [ORIG 16-BIT INS]
    2148                            ; BRANCH OCCURS {||$C$L37||}     ; [] |472| 
    2149                    ;* --------------------------------------------------------------------------*
    2150                            .dwattr $C$DW$41, DW_AT_TI_end_file("../tm4c123gh6pm_startup_ccs.c")
    2151                            .dwattr $C$DW$41, DW_AT_TI_end_line(0x1d8)
    2152                            .dwattr $C$DW$41, DW_AT_TI_end_column(0x28)
    2153                            .dwendentry
    2154                            .dwendtag $C$DW$41
    2155                    
    2156 00000050                   .sect   ".text"
    2157                            .clink
    2158                            .thumbfunc GPIOPortF_Handler
    2159 00000050                   .thumb
    2160                            .weak   GPIOPortF_Handler
    2161                    
    2162                    $C$DW$42        .dwtag  DW_TAG_subprogram, DW_AT_name("GPIOPortF_Handler")
    2163                            .dwattr $C$DW$42, DW_AT_low_pc(GPIOPortF_Handler)
    2164                            .dwattr $C$DW$42, DW_AT_high_pc(0x00)
    2165                            .dwattr $C$DW$42, DW_AT_TI_symbol_name("GPIOPortF_Handler")
    2166                            .dwattr $C$DW$42, DW_AT_external
    2167                            .dwattr $C$DW$42, DW_AT_TI_begin_file("../tm4c123gh6pm_startup_ccs.c")
    2168                            .dwattr $C$DW$42, DW_AT_TI_begin_line(0x1d9)
    2169                            .dwattr $C$DW$42, DW_AT_TI_begin_column(0x06)
    2170                            .dwattr $C$DW$42, DW_AT_decl_file("../tm4c123gh6pm_startup_ccs.c")
    2171                            .dwattr $C$DW$42, DW_AT_decl_line(0x1d9)
    2172                            .dwattr $C$DW$42, DW_AT_decl_column(0x06)
    2173                            .dwattr $C$DW$42, DW_AT_TI_max_frame_size(0x00)
    2174                            .dwpsn  file "../tm4c123gh6pm_startup_ccs.c",line 473,column 29,is_stmt,address GPIOPortF_Hand
    2175                    
    2176                            .dwfde $C$DW$CIE, GPIOPortF_Handler
    2177                    
    2178                    ;*****************************************************************************
    2179                    ;* FUNCTION NAME: GPIOPortF_Handler                                          *
    2180                    ;*                                                                           *
    2181                    ;*   Regs Modified     :                                                     *
    2182                    ;*   Regs Used         : LR                                                  *
    2183                    ;*   Local Frame Size  : 0 Args + 0 Auto + 0 Save = 0 byte                   *
    2184                    ;*****************************************************************************
    2185 00000050           GPIOPortF_Handler:
    2186                    ;* --------------------------------------------------------------------------*
    2187                            .dwcfi  cfa_offset, 0
    2188                            .dwpsn  file "../tm4c123gh6pm_startup_ccs.c",line 473,column 37,is_stmt,isa 1
    2189                    ;* --------------------------------------------------------------------------*
    2190                    ;*   BEGIN LOOP ||$C$L38||
    2191                    ;*
    2192                    ;*   Loop source line                : 473
    2193                    ;*   Loop closing brace source line  : 473
    2194                    ;*   Known Minimum Trip Count        : 1
    2195                    ;*   Known Maximum Trip Count        : 4294967295
    2196                    ;*   Known Max Trip Count Factor     : 1
    2197                    ;* --------------------------------------------------------------------------*
    2198 00000050           ||$C$L38||:    
    2199 00000050 E7FE              B         ||$C$L38||            ; [DPU_3_PIPE] |473|  ; [ORIG 16-BIT INS]
    2200                            ; BRANCH OCCURS {||$C$L38||}     ; [] |473| 
TI ARM Assembler PC v5.2.4 Mon Jun 29 08:44:35 2015

Tools Copyright (c) 1996-2015 Texas Instruments Incorporated
tm4c123gh6pm_startup_ccs.asm                                         PAGE   41

    2201                    ;* --------------------------------------------------------------------------*
    2202                            .dwattr $C$DW$42, DW_AT_TI_end_file("../tm4c123gh6pm_startup_ccs.c")
    2203                            .dwattr $C$DW$42, DW_AT_TI_end_line(0x1d9)
    2204                            .dwattr $C$DW$42, DW_AT_TI_end_column(0x29)
    2205                            .dwendentry
    2206                            .dwendtag $C$DW$42
    2207                    
    2208 00000052                   .sect   ".text"
    2209                            .clink
    2210                            .thumbfunc GPIOPortG_Handler
    2211 00000052                   .thumb
    2212                            .weak   GPIOPortG_Handler
    2213                    
    2214                    $C$DW$43        .dwtag  DW_TAG_subprogram, DW_AT_name("GPIOPortG_Handler")
    2215                            .dwattr $C$DW$43, DW_AT_low_pc(GPIOPortG_Handler)
    2216                            .dwattr $C$DW$43, DW_AT_high_pc(0x00)
    2217                            .dwattr $C$DW$43, DW_AT_TI_symbol_name("GPIOPortG_Handler")
    2218                            .dwattr $C$DW$43, DW_AT_external
    2219                            .dwattr $C$DW$43, DW_AT_TI_begin_file("../tm4c123gh6pm_startup_ccs.c")
    2220                            .dwattr $C$DW$43, DW_AT_TI_begin_line(0x1da)
    2221                            .dwattr $C$DW$43, DW_AT_TI_begin_column(0x06)
    2222                            .dwattr $C$DW$43, DW_AT_decl_file("../tm4c123gh6pm_startup_ccs.c")
    2223                            .dwattr $C$DW$43, DW_AT_decl_line(0x1da)
    2224                            .dwattr $C$DW$43, DW_AT_decl_column(0x06)
    2225                            .dwattr $C$DW$43, DW_AT_TI_max_frame_size(0x00)
    2226                            .dwpsn  file "../tm4c123gh6pm_startup_ccs.c",line 474,column 29,is_stmt,address GPIOPortG_Hand
    2227                    
    2228                            .dwfde $C$DW$CIE, GPIOPortG_Handler
    2229                    
    2230                    ;*****************************************************************************
    2231                    ;* FUNCTION NAME: GPIOPortG_Handler                                          *
    2232                    ;*                                                                           *
    2233                    ;*   Regs Modified     :                                                     *
    2234                    ;*   Regs Used         : LR                                                  *
    2235                    ;*   Local Frame Size  : 0 Args + 0 Auto + 0 Save = 0 byte                   *
    2236                    ;*****************************************************************************
    2237 00000052           GPIOPortG_Handler:
    2238                    ;* --------------------------------------------------------------------------*
    2239                            .dwcfi  cfa_offset, 0
    2240                            .dwpsn  file "../tm4c123gh6pm_startup_ccs.c",line 474,column 37,is_stmt,isa 1
    2241                    ;* --------------------------------------------------------------------------*
    2242                    ;*   BEGIN LOOP ||$C$L39||
    2243                    ;*
    2244                    ;*   Loop source line                : 474
    2245                    ;*   Loop closing brace source line  : 474
    2246                    ;*   Known Minimum Trip Count        : 1
    2247                    ;*   Known Maximum Trip Count        : 4294967295
    2248                    ;*   Known Max Trip Count Factor     : 1
    2249                    ;* --------------------------------------------------------------------------*
    2250 00000052           ||$C$L39||:    
    2251 00000052 E7FE              B         ||$C$L39||            ; [DPU_3_PIPE] |474|  ; [ORIG 16-BIT INS]
    2252                            ; BRANCH OCCURS {||$C$L39||}     ; [] |474| 
    2253                    ;* --------------------------------------------------------------------------*
    2254                            .dwattr $C$DW$43, DW_AT_TI_end_file("../tm4c123gh6pm_startup_ccs.c")
    2255                            .dwattr $C$DW$43, DW_AT_TI_end_line(0x1da)
TI ARM Assembler PC v5.2.4 Mon Jun 29 08:44:35 2015

Tools Copyright (c) 1996-2015 Texas Instruments Incorporated
tm4c123gh6pm_startup_ccs.asm                                         PAGE   42

    2256                            .dwattr $C$DW$43, DW_AT_TI_end_column(0x29)
    2257                            .dwendentry
    2258                            .dwendtag $C$DW$43
    2259                    
    2260 00000054                   .sect   ".text"
    2261                            .clink
    2262                            .thumbfunc GPIOPortH_Handler
    2263 00000054                   .thumb
    2264                            .weak   GPIOPortH_Handler
    2265                    
    2266                    $C$DW$44        .dwtag  DW_TAG_subprogram, DW_AT_name("GPIOPortH_Handler")
    2267                            .dwattr $C$DW$44, DW_AT_low_pc(GPIOPortH_Handler)
    2268                            .dwattr $C$DW$44, DW_AT_high_pc(0x00)
    2269                            .dwattr $C$DW$44, DW_AT_TI_symbol_name("GPIOPortH_Handler")
    2270                            .dwattr $C$DW$44, DW_AT_external
    2271                            .dwattr $C$DW$44, DW_AT_TI_begin_file("../tm4c123gh6pm_startup_ccs.c")
    2272                            .dwattr $C$DW$44, DW_AT_TI_begin_line(0x1db)
    2273                            .dwattr $C$DW$44, DW_AT_TI_begin_column(0x06)
    2274                            .dwattr $C$DW$44, DW_AT_decl_file("../tm4c123gh6pm_startup_ccs.c")
    2275                            .dwattr $C$DW$44, DW_AT_decl_line(0x1db)
    2276                            .dwattr $C$DW$44, DW_AT_decl_column(0x06)
    2277                            .dwattr $C$DW$44, DW_AT_TI_max_frame_size(0x00)
    2278                            .dwpsn  file "../tm4c123gh6pm_startup_ccs.c",line 475,column 29,is_stmt,address GPIOPortH_Hand
    2279                    
    2280                            .dwfde $C$DW$CIE, GPIOPortH_Handler
    2281                    
    2282                    ;*****************************************************************************
    2283                    ;* FUNCTION NAME: GPIOPortH_Handler                                          *
    2284                    ;*                                                                           *
    2285                    ;*   Regs Modified     :                                                     *
    2286                    ;*   Regs Used         : LR                                                  *
    2287                    ;*   Local Frame Size  : 0 Args + 0 Auto + 0 Save = 0 byte                   *
    2288                    ;*****************************************************************************
    2289 00000054           GPIOPortH_Handler:
    2290                    ;* --------------------------------------------------------------------------*
    2291                            .dwcfi  cfa_offset, 0
    2292                            .dwpsn  file "../tm4c123gh6pm_startup_ccs.c",line 475,column 37,is_stmt,isa 1
    2293                    ;* --------------------------------------------------------------------------*
    2294                    ;*   BEGIN LOOP ||$C$L40||
    2295                    ;*
    2296                    ;*   Loop source line                : 475
    2297                    ;*   Loop closing brace source line  : 475
    2298                    ;*   Known Minimum Trip Count        : 1
    2299                    ;*   Known Maximum Trip Count        : 4294967295
    2300                    ;*   Known Max Trip Count Factor     : 1
    2301                    ;* --------------------------------------------------------------------------*
    2302 00000054           ||$C$L40||:    
    2303 00000054 E7FE              B         ||$C$L40||            ; [DPU_3_PIPE] |475|  ; [ORIG 16-BIT INS]
    2304                            ; BRANCH OCCURS {||$C$L40||}     ; [] |475| 
    2305                    ;* --------------------------------------------------------------------------*
    2306                            .dwattr $C$DW$44, DW_AT_TI_end_file("../tm4c123gh6pm_startup_ccs.c")
    2307                            .dwattr $C$DW$44, DW_AT_TI_end_line(0x1db)
    2308                            .dwattr $C$DW$44, DW_AT_TI_end_column(0x29)
    2309                            .dwendentry
    2310                            .dwendtag $C$DW$44
TI ARM Assembler PC v5.2.4 Mon Jun 29 08:44:35 2015

Tools Copyright (c) 1996-2015 Texas Instruments Incorporated
tm4c123gh6pm_startup_ccs.asm                                         PAGE   43

    2311                    
    2312 00000056                   .sect   ".text"
    2313                            .clink
    2314                            .thumbfunc UART2_Handler
    2315 00000056                   .thumb
    2316                            .weak   UART2_Handler
    2317                    
    2318                    $C$DW$45        .dwtag  DW_TAG_subprogram, DW_AT_name("UART2_Handler")
    2319                            .dwattr $C$DW$45, DW_AT_low_pc(UART2_Handler)
    2320                            .dwattr $C$DW$45, DW_AT_high_pc(0x00)
    2321                            .dwattr $C$DW$45, DW_AT_TI_symbol_name("UART2_Handler")
    2322                            .dwattr $C$DW$45, DW_AT_external
    2323                            .dwattr $C$DW$45, DW_AT_TI_begin_file("../tm4c123gh6pm_startup_ccs.c")
    2324                            .dwattr $C$DW$45, DW_AT_TI_begin_line(0x1dc)
    2325                            .dwattr $C$DW$45, DW_AT_TI_begin_column(0x06)
    2326                            .dwattr $C$DW$45, DW_AT_decl_file("../tm4c123gh6pm_startup_ccs.c")
    2327                            .dwattr $C$DW$45, DW_AT_decl_line(0x1dc)
    2328                            .dwattr $C$DW$45, DW_AT_decl_column(0x06)
    2329                            .dwattr $C$DW$45, DW_AT_TI_max_frame_size(0x00)
    2330                            .dwpsn  file "../tm4c123gh6pm_startup_ccs.c",line 476,column 25,is_stmt,address UART2_Handler,
    2331                    
    2332                            .dwfde $C$DW$CIE, UART2_Handler
    2333                    
    2334                    ;*****************************************************************************
    2335                    ;* FUNCTION NAME: UART2_Handler                                              *
    2336                    ;*                                                                           *
    2337                    ;*   Regs Modified     :                                                     *
    2338                    ;*   Regs Used         : LR                                                  *
    2339                    ;*   Local Frame Size  : 0 Args + 0 Auto + 0 Save = 0 byte                   *
    2340                    ;*****************************************************************************
    2341 00000056           UART2_Handler:
    2342                    ;* --------------------------------------------------------------------------*
    2343                            .dwcfi  cfa_offset, 0
    2344                            .dwpsn  file "../tm4c123gh6pm_startup_ccs.c",line 476,column 33,is_stmt,isa 1
    2345                    ;* --------------------------------------------------------------------------*
    2346                    ;*   BEGIN LOOP ||$C$L41||
    2347                    ;*
    2348                    ;*   Loop source line                : 476
    2349                    ;*   Loop closing brace source line  : 476
    2350                    ;*   Known Minimum Trip Count        : 1
    2351                    ;*   Known Maximum Trip Count        : 4294967295
    2352                    ;*   Known Max Trip Count Factor     : 1
    2353                    ;* --------------------------------------------------------------------------*
    2354 00000056           ||$C$L41||:    
    2355 00000056 E7FE              B         ||$C$L41||            ; [DPU_3_PIPE] |476|  ; [ORIG 16-BIT INS]
    2356                            ; BRANCH OCCURS {||$C$L41||}     ; [] |476| 
    2357                    ;* --------------------------------------------------------------------------*
    2358                            .dwattr $C$DW$45, DW_AT_TI_end_file("../tm4c123gh6pm_startup_ccs.c")
    2359                            .dwattr $C$DW$45, DW_AT_TI_end_line(0x1dc)
    2360                            .dwattr $C$DW$45, DW_AT_TI_end_column(0x25)
    2361                            .dwendentry
    2362                            .dwendtag $C$DW$45
    2363                    
    2364 00000058                   .sect   ".text"
    2365                            .clink
TI ARM Assembler PC v5.2.4 Mon Jun 29 08:44:35 2015

Tools Copyright (c) 1996-2015 Texas Instruments Incorporated
tm4c123gh6pm_startup_ccs.asm                                         PAGE   44

    2366                            .thumbfunc SSI1_Handler
    2367 00000058                   .thumb
    2368                            .weak   SSI1_Handler
    2369                    
    2370                    $C$DW$46        .dwtag  DW_TAG_subprogram, DW_AT_name("SSI1_Handler")
    2371                            .dwattr $C$DW$46, DW_AT_low_pc(SSI1_Handler)
    2372                            .dwattr $C$DW$46, DW_AT_high_pc(0x00)
    2373                            .dwattr $C$DW$46, DW_AT_TI_symbol_name("SSI1_Handler")
    2374                            .dwattr $C$DW$46, DW_AT_external
    2375                            .dwattr $C$DW$46, DW_AT_TI_begin_file("../tm4c123gh6pm_startup_ccs.c")
    2376                            .dwattr $C$DW$46, DW_AT_TI_begin_line(0x1dd)
    2377                            .dwattr $C$DW$46, DW_AT_TI_begin_column(0x06)
    2378                            .dwattr $C$DW$46, DW_AT_decl_file("../tm4c123gh6pm_startup_ccs.c")
    2379                            .dwattr $C$DW$46, DW_AT_decl_line(0x1dd)
    2380                            .dwattr $C$DW$46, DW_AT_decl_column(0x06)
    2381                            .dwattr $C$DW$46, DW_AT_TI_max_frame_size(0x00)
    2382                            .dwpsn  file "../tm4c123gh6pm_startup_ccs.c",line 477,column 24,is_stmt,address SSI1_Handler,i
    2383                    
    2384                            .dwfde $C$DW$CIE, SSI1_Handler
    2385                    
    2386                    ;*****************************************************************************
    2387                    ;* FUNCTION NAME: SSI1_Handler                                               *
    2388                    ;*                                                                           *
    2389                    ;*   Regs Modified     :                                                     *
    2390                    ;*   Regs Used         : LR                                                  *
    2391                    ;*   Local Frame Size  : 0 Args + 0 Auto + 0 Save = 0 byte                   *
    2392                    ;*****************************************************************************
    2393 00000058           SSI1_Handler:
    2394                    ;* --------------------------------------------------------------------------*
    2395                            .dwcfi  cfa_offset, 0
    2396                            .dwpsn  file "../tm4c123gh6pm_startup_ccs.c",line 477,column 32,is_stmt,isa 1
    2397                    ;* --------------------------------------------------------------------------*
    2398                    ;*   BEGIN LOOP ||$C$L42||
    2399                    ;*
    2400                    ;*   Loop source line                : 477
    2401                    ;*   Loop closing brace source line  : 477
    2402                    ;*   Known Minimum Trip Count        : 1
    2403                    ;*   Known Maximum Trip Count        : 4294967295
    2404                    ;*   Known Max Trip Count Factor     : 1
    2405                    ;* --------------------------------------------------------------------------*
    2406 00000058           ||$C$L42||:    
    2407 00000058 E7FE              B         ||$C$L42||            ; [DPU_3_PIPE] |477|  ; [ORIG 16-BIT INS]
    2408                            ; BRANCH OCCURS {||$C$L42||}     ; [] |477| 
    2409                    ;* --------------------------------------------------------------------------*
    2410                            .dwattr $C$DW$46, DW_AT_TI_end_file("../tm4c123gh6pm_startup_ccs.c")
    2411                            .dwattr $C$DW$46, DW_AT_TI_end_line(0x1dd)
    2412                            .dwattr $C$DW$46, DW_AT_TI_end_column(0x24)
    2413                            .dwendentry
    2414                            .dwendtag $C$DW$46
    2415                    
    2416 0000005a                   .sect   ".text"
    2417                            .clink
    2418                            .thumbfunc Timer3A_Handler
    2419 0000005a                   .thumb
    2420                            .weak   Timer3A_Handler
TI ARM Assembler PC v5.2.4 Mon Jun 29 08:44:35 2015

Tools Copyright (c) 1996-2015 Texas Instruments Incorporated
tm4c123gh6pm_startup_ccs.asm                                         PAGE   45

    2421                    
    2422                    $C$DW$47        .dwtag  DW_TAG_subprogram, DW_AT_name("Timer3A_Handler")
    2423                            .dwattr $C$DW$47, DW_AT_low_pc(Timer3A_Handler)
    2424                            .dwattr $C$DW$47, DW_AT_high_pc(0x00)
    2425                            .dwattr $C$DW$47, DW_AT_TI_symbol_name("Timer3A_Handler")
    2426                            .dwattr $C$DW$47, DW_AT_external
    2427                            .dwattr $C$DW$47, DW_AT_TI_begin_file("../tm4c123gh6pm_startup_ccs.c")
    2428                            .dwattr $C$DW$47, DW_AT_TI_begin_line(0x1de)
    2429                            .dwattr $C$DW$47, DW_AT_TI_begin_column(0x06)
    2430                            .dwattr $C$DW$47, DW_AT_decl_file("../tm4c123gh6pm_startup_ccs.c")
    2431                            .dwattr $C$DW$47, DW_AT_decl_line(0x1de)
    2432                            .dwattr $C$DW$47, DW_AT_decl_column(0x06)
    2433                            .dwattr $C$DW$47, DW_AT_TI_max_frame_size(0x00)
    2434                            .dwpsn  file "../tm4c123gh6pm_startup_ccs.c",line 478,column 27,is_stmt,address Timer3A_Handle
    2435                    
    2436                            .dwfde $C$DW$CIE, Timer3A_Handler
    2437                    
    2438                    ;*****************************************************************************
    2439                    ;* FUNCTION NAME: Timer3A_Handler                                            *
    2440                    ;*                                                                           *
    2441                    ;*   Regs Modified     :                                                     *
    2442                    ;*   Regs Used         : LR                                                  *
    2443                    ;*   Local Frame Size  : 0 Args + 0 Auto + 0 Save = 0 byte                   *
    2444                    ;*****************************************************************************
    2445 0000005a           Timer3A_Handler:
    2446                    ;* --------------------------------------------------------------------------*
    2447                            .dwcfi  cfa_offset, 0
    2448                            .dwpsn  file "../tm4c123gh6pm_startup_ccs.c",line 478,column 35,is_stmt,isa 1
    2449                    ;* --------------------------------------------------------------------------*
    2450                    ;*   BEGIN LOOP ||$C$L43||
    2451                    ;*
    2452                    ;*   Loop source line                : 478
    2453                    ;*   Loop closing brace source line  : 478
    2454                    ;*   Known Minimum Trip Count        : 1
    2455                    ;*   Known Maximum Trip Count        : 4294967295
    2456                    ;*   Known Max Trip Count Factor     : 1
    2457                    ;* --------------------------------------------------------------------------*
    2458 0000005a           ||$C$L43||:    
    2459 0000005a E7FE              B         ||$C$L43||            ; [DPU_3_PIPE] |478|  ; [ORIG 16-BIT INS]
    2460                            ; BRANCH OCCURS {||$C$L43||}     ; [] |478| 
    2461                    ;* --------------------------------------------------------------------------*
    2462                            .dwattr $C$DW$47, DW_AT_TI_end_file("../tm4c123gh6pm_startup_ccs.c")
    2463                            .dwattr $C$DW$47, DW_AT_TI_end_line(0x1de)
    2464                            .dwattr $C$DW$47, DW_AT_TI_end_column(0x27)
    2465                            .dwendentry
    2466                            .dwendtag $C$DW$47
    2467                    
    2468 0000005c                   .sect   ".text"
    2469                            .clink
    2470                            .thumbfunc Timer3B_Handler
    2471 0000005c                   .thumb
    2472                            .weak   Timer3B_Handler
    2473                    
    2474                    $C$DW$48        .dwtag  DW_TAG_subprogram, DW_AT_name("Timer3B_Handler")
    2475                            .dwattr $C$DW$48, DW_AT_low_pc(Timer3B_Handler)
TI ARM Assembler PC v5.2.4 Mon Jun 29 08:44:35 2015

Tools Copyright (c) 1996-2015 Texas Instruments Incorporated
tm4c123gh6pm_startup_ccs.asm                                         PAGE   46

    2476                            .dwattr $C$DW$48, DW_AT_high_pc(0x00)
    2477                            .dwattr $C$DW$48, DW_AT_TI_symbol_name("Timer3B_Handler")
    2478                            .dwattr $C$DW$48, DW_AT_external
    2479                            .dwattr $C$DW$48, DW_AT_TI_begin_file("../tm4c123gh6pm_startup_ccs.c")
    2480                            .dwattr $C$DW$48, DW_AT_TI_begin_line(0x1df)
    2481                            .dwattr $C$DW$48, DW_AT_TI_begin_column(0x06)
    2482                            .dwattr $C$DW$48, DW_AT_decl_file("../tm4c123gh6pm_startup_ccs.c")
    2483                            .dwattr $C$DW$48, DW_AT_decl_line(0x1df)
    2484                            .dwattr $C$DW$48, DW_AT_decl_column(0x06)
    2485                            .dwattr $C$DW$48, DW_AT_TI_max_frame_size(0x00)
    2486                            .dwpsn  file "../tm4c123gh6pm_startup_ccs.c",line 479,column 27,is_stmt,address Timer3B_Handle
    2487                    
    2488                            .dwfde $C$DW$CIE, Timer3B_Handler
    2489                    
    2490                    ;*****************************************************************************
    2491                    ;* FUNCTION NAME: Timer3B_Handler                                            *
    2492                    ;*                                                                           *
    2493                    ;*   Regs Modified     :                                                     *
    2494                    ;*   Regs Used         : LR                                                  *
    2495                    ;*   Local Frame Size  : 0 Args + 0 Auto + 0 Save = 0 byte                   *
    2496                    ;*****************************************************************************
    2497 0000005c           Timer3B_Handler:
    2498                    ;* --------------------------------------------------------------------------*
    2499                            .dwcfi  cfa_offset, 0
    2500                            .dwpsn  file "../tm4c123gh6pm_startup_ccs.c",line 479,column 35,is_stmt,isa 1
    2501                    ;* --------------------------------------------------------------------------*
    2502                    ;*   BEGIN LOOP ||$C$L44||
    2503                    ;*
    2504                    ;*   Loop source line                : 479
    2505                    ;*   Loop closing brace source line  : 479
    2506                    ;*   Known Minimum Trip Count        : 1
    2507                    ;*   Known Maximum Trip Count        : 4294967295
    2508                    ;*   Known Max Trip Count Factor     : 1
    2509                    ;* --------------------------------------------------------------------------*
    2510 0000005c           ||$C$L44||:    
    2511 0000005c E7FE              B         ||$C$L44||            ; [DPU_3_PIPE] |479|  ; [ORIG 16-BIT INS]
    2512                            ; BRANCH OCCURS {||$C$L44||}     ; [] |479| 
    2513                    ;* --------------------------------------------------------------------------*
    2514                            .dwattr $C$DW$48, DW_AT_TI_end_file("../tm4c123gh6pm_startup_ccs.c")
    2515                            .dwattr $C$DW$48, DW_AT_TI_end_line(0x1df)
    2516                            .dwattr $C$DW$48, DW_AT_TI_end_column(0x27)
    2517                            .dwendentry
    2518                            .dwendtag $C$DW$48
    2519                    
    2520 0000005e                   .sect   ".text"
    2521                            .clink
    2522                            .thumbfunc I2C1_Handler
    2523 0000005e                   .thumb
    2524                            .weak   I2C1_Handler
    2525                    
    2526                    $C$DW$49        .dwtag  DW_TAG_subprogram, DW_AT_name("I2C1_Handler")
    2527                            .dwattr $C$DW$49, DW_AT_low_pc(I2C1_Handler)
    2528                            .dwattr $C$DW$49, DW_AT_high_pc(0x00)
    2529                            .dwattr $C$DW$49, DW_AT_TI_symbol_name("I2C1_Handler")
    2530                            .dwattr $C$DW$49, DW_AT_external
TI ARM Assembler PC v5.2.4 Mon Jun 29 08:44:35 2015

Tools Copyright (c) 1996-2015 Texas Instruments Incorporated
tm4c123gh6pm_startup_ccs.asm                                         PAGE   47

    2531                            .dwattr $C$DW$49, DW_AT_TI_begin_file("../tm4c123gh6pm_startup_ccs.c")
    2532                            .dwattr $C$DW$49, DW_AT_TI_begin_line(0x1e0)
    2533                            .dwattr $C$DW$49, DW_AT_TI_begin_column(0x06)
    2534                            .dwattr $C$DW$49, DW_AT_decl_file("../tm4c123gh6pm_startup_ccs.c")
    2535                            .dwattr $C$DW$49, DW_AT_decl_line(0x1e0)
    2536                            .dwattr $C$DW$49, DW_AT_decl_column(0x06)
    2537                            .dwattr $C$DW$49, DW_AT_TI_max_frame_size(0x00)
    2538                            .dwpsn  file "../tm4c123gh6pm_startup_ccs.c",line 480,column 24,is_stmt,address I2C1_Handler,i
    2539                    
    2540                            .dwfde $C$DW$CIE, I2C1_Handler
    2541                    
    2542                    ;*****************************************************************************
    2543                    ;* FUNCTION NAME: I2C1_Handler                                               *
    2544                    ;*                                                                           *
    2545                    ;*   Regs Modified     :                                                     *
    2546                    ;*   Regs Used         : LR                                                  *
    2547                    ;*   Local Frame Size  : 0 Args + 0 Auto + 0 Save = 0 byte                   *
    2548                    ;*****************************************************************************
    2549 0000005e           I2C1_Handler:
    2550                    ;* --------------------------------------------------------------------------*
    2551                            .dwcfi  cfa_offset, 0
    2552                            .dwpsn  file "../tm4c123gh6pm_startup_ccs.c",line 480,column 32,is_stmt,isa 1
    2553                    ;* --------------------------------------------------------------------------*
    2554                    ;*   BEGIN LOOP ||$C$L45||
    2555                    ;*
    2556                    ;*   Loop source line                : 480
    2557                    ;*   Loop closing brace source line  : 480
    2558                    ;*   Known Minimum Trip Count        : 1
    2559                    ;*   Known Maximum Trip Count        : 4294967295
    2560                    ;*   Known Max Trip Count Factor     : 1
    2561                    ;* --------------------------------------------------------------------------*
    2562 0000005e           ||$C$L45||:    
    2563 0000005e E7FE              B         ||$C$L45||            ; [DPU_3_PIPE] |480|  ; [ORIG 16-BIT INS]
    2564                            ; BRANCH OCCURS {||$C$L45||}     ; [] |480| 
    2565                    ;* --------------------------------------------------------------------------*
    2566                            .dwattr $C$DW$49, DW_AT_TI_end_file("../tm4c123gh6pm_startup_ccs.c")
    2567                            .dwattr $C$DW$49, DW_AT_TI_end_line(0x1e0)
    2568                            .dwattr $C$DW$49, DW_AT_TI_end_column(0x24)
    2569                            .dwendentry
    2570                            .dwendtag $C$DW$49
    2571                    
    2572 00000060                   .sect   ".text"
    2573                            .clink
    2574                            .thumbfunc Quadrature1_Handler
    2575 00000060                   .thumb
    2576                            .weak   Quadrature1_Handler
    2577                    
    2578                    $C$DW$50        .dwtag  DW_TAG_subprogram, DW_AT_name("Quadrature1_Handler")
    2579                            .dwattr $C$DW$50, DW_AT_low_pc(Quadrature1_Handler)
    2580                            .dwattr $C$DW$50, DW_AT_high_pc(0x00)
    2581                            .dwattr $C$DW$50, DW_AT_TI_symbol_name("Quadrature1_Handler")
    2582                            .dwattr $C$DW$50, DW_AT_external
    2583                            .dwattr $C$DW$50, DW_AT_TI_begin_file("../tm4c123gh6pm_startup_ccs.c")
    2584                            .dwattr $C$DW$50, DW_AT_TI_begin_line(0x1e1)
    2585                            .dwattr $C$DW$50, DW_AT_TI_begin_column(0x06)
TI ARM Assembler PC v5.2.4 Mon Jun 29 08:44:35 2015

Tools Copyright (c) 1996-2015 Texas Instruments Incorporated
tm4c123gh6pm_startup_ccs.asm                                         PAGE   48

    2586                            .dwattr $C$DW$50, DW_AT_decl_file("../tm4c123gh6pm_startup_ccs.c")
    2587                            .dwattr $C$DW$50, DW_AT_decl_line(0x1e1)
    2588                            .dwattr $C$DW$50, DW_AT_decl_column(0x06)
    2589                            .dwattr $C$DW$50, DW_AT_TI_max_frame_size(0x00)
    2590                            .dwpsn  file "../tm4c123gh6pm_startup_ccs.c",line 481,column 31,is_stmt,address Quadrature1_Ha
    2591                    
    2592                            .dwfde $C$DW$CIE, Quadrature1_Handler
    2593                    
    2594                    ;*****************************************************************************
    2595                    ;* FUNCTION NAME: Quadrature1_Handler                                        *
    2596                    ;*                                                                           *
    2597                    ;*   Regs Modified     :                                                     *
    2598                    ;*   Regs Used         : LR                                                  *
    2599                    ;*   Local Frame Size  : 0 Args + 0 Auto + 0 Save = 0 byte                   *
    2600                    ;*****************************************************************************
    2601 00000060           Quadrature1_Handler:
    2602                    ;* --------------------------------------------------------------------------*
    2603                            .dwcfi  cfa_offset, 0
    2604                            .dwpsn  file "../tm4c123gh6pm_startup_ccs.c",line 481,column 39,is_stmt,isa 1
    2605                    ;* --------------------------------------------------------------------------*
    2606                    ;*   BEGIN LOOP ||$C$L46||
    2607                    ;*
    2608                    ;*   Loop source line                : 481
    2609                    ;*   Loop closing brace source line  : 481
    2610                    ;*   Known Minimum Trip Count        : 1
    2611                    ;*   Known Maximum Trip Count        : 4294967295
    2612                    ;*   Known Max Trip Count Factor     : 1
    2613                    ;* --------------------------------------------------------------------------*
    2614 00000060           ||$C$L46||:    
    2615 00000060 E7FE              B         ||$C$L46||            ; [DPU_3_PIPE] |481|  ; [ORIG 16-BIT INS]
    2616                            ; BRANCH OCCURS {||$C$L46||}     ; [] |481| 
    2617                    ;* --------------------------------------------------------------------------*
    2618                            .dwattr $C$DW$50, DW_AT_TI_end_file("../tm4c123gh6pm_startup_ccs.c")
    2619                            .dwattr $C$DW$50, DW_AT_TI_end_line(0x1e1)
    2620                            .dwattr $C$DW$50, DW_AT_TI_end_column(0x2b)
    2621                            .dwendentry
    2622                            .dwendtag $C$DW$50
    2623                    
    2624 00000062                   .sect   ".text"
    2625                            .clink
    2626                            .thumbfunc CAN0_Handler
    2627 00000062                   .thumb
    2628                            .weak   CAN0_Handler
    2629                    
    2630                    $C$DW$51        .dwtag  DW_TAG_subprogram, DW_AT_name("CAN0_Handler")
    2631                            .dwattr $C$DW$51, DW_AT_low_pc(CAN0_Handler)
    2632                            .dwattr $C$DW$51, DW_AT_high_pc(0x00)
    2633                            .dwattr $C$DW$51, DW_AT_TI_symbol_name("CAN0_Handler")
    2634                            .dwattr $C$DW$51, DW_AT_external
    2635                            .dwattr $C$DW$51, DW_AT_TI_begin_file("../tm4c123gh6pm_startup_ccs.c")
    2636                            .dwattr $C$DW$51, DW_AT_TI_begin_line(0x1e2)
    2637                            .dwattr $C$DW$51, DW_AT_TI_begin_column(0x06)
    2638                            .dwattr $C$DW$51, DW_AT_decl_file("../tm4c123gh6pm_startup_ccs.c")
    2639                            .dwattr $C$DW$51, DW_AT_decl_line(0x1e2)
    2640                            .dwattr $C$DW$51, DW_AT_decl_column(0x06)
TI ARM Assembler PC v5.2.4 Mon Jun 29 08:44:35 2015

Tools Copyright (c) 1996-2015 Texas Instruments Incorporated
tm4c123gh6pm_startup_ccs.asm                                         PAGE   49

    2641                            .dwattr $C$DW$51, DW_AT_TI_max_frame_size(0x00)
    2642                            .dwpsn  file "../tm4c123gh6pm_startup_ccs.c",line 482,column 24,is_stmt,address CAN0_Handler,i
    2643                    
    2644                            .dwfde $C$DW$CIE, CAN0_Handler
    2645                    
    2646                    ;*****************************************************************************
    2647                    ;* FUNCTION NAME: CAN0_Handler                                               *
    2648                    ;*                                                                           *
    2649                    ;*   Regs Modified     :                                                     *
    2650                    ;*   Regs Used         : LR                                                  *
    2651                    ;*   Local Frame Size  : 0 Args + 0 Auto + 0 Save = 0 byte                   *
    2652                    ;*****************************************************************************
    2653 00000062           CAN0_Handler:
    2654                    ;* --------------------------------------------------------------------------*
    2655                            .dwcfi  cfa_offset, 0
    2656                            .dwpsn  file "../tm4c123gh6pm_startup_ccs.c",line 482,column 32,is_stmt,isa 1
    2657                    ;* --------------------------------------------------------------------------*
    2658                    ;*   BEGIN LOOP ||$C$L47||
    2659                    ;*
    2660                    ;*   Loop source line                : 482
    2661                    ;*   Loop closing brace source line  : 482
    2662                    ;*   Known Minimum Trip Count        : 1
    2663                    ;*   Known Maximum Trip Count        : 4294967295
    2664                    ;*   Known Max Trip Count Factor     : 1
    2665                    ;* --------------------------------------------------------------------------*
    2666 00000062           ||$C$L47||:    
    2667 00000062 E7FE              B         ||$C$L47||            ; [DPU_3_PIPE] |482|  ; [ORIG 16-BIT INS]
    2668                            ; BRANCH OCCURS {||$C$L47||}     ; [] |482| 
    2669                    ;* --------------------------------------------------------------------------*
    2670                            .dwattr $C$DW$51, DW_AT_TI_end_file("../tm4c123gh6pm_startup_ccs.c")
    2671                            .dwattr $C$DW$51, DW_AT_TI_end_line(0x1e2)
    2672                            .dwattr $C$DW$51, DW_AT_TI_end_column(0x24)
    2673                            .dwendentry
    2674                            .dwendtag $C$DW$51
    2675                    
    2676 00000064                   .sect   ".text"
    2677                            .clink
    2678                            .thumbfunc CAN1_Handler
    2679 00000064                   .thumb
    2680                            .weak   CAN1_Handler
    2681                    
    2682                    $C$DW$52        .dwtag  DW_TAG_subprogram, DW_AT_name("CAN1_Handler")
    2683                            .dwattr $C$DW$52, DW_AT_low_pc(CAN1_Handler)
    2684                            .dwattr $C$DW$52, DW_AT_high_pc(0x00)
    2685                            .dwattr $C$DW$52, DW_AT_TI_symbol_name("CAN1_Handler")
    2686                            .dwattr $C$DW$52, DW_AT_external
    2687                            .dwattr $C$DW$52, DW_AT_TI_begin_file("../tm4c123gh6pm_startup_ccs.c")
    2688                            .dwattr $C$DW$52, DW_AT_TI_begin_line(0x1e3)
    2689                            .dwattr $C$DW$52, DW_AT_TI_begin_column(0x06)
    2690                            .dwattr $C$DW$52, DW_AT_decl_file("../tm4c123gh6pm_startup_ccs.c")
    2691                            .dwattr $C$DW$52, DW_AT_decl_line(0x1e3)
    2692                            .dwattr $C$DW$52, DW_AT_decl_column(0x06)
    2693                            .dwattr $C$DW$52, DW_AT_TI_max_frame_size(0x00)
    2694                            .dwpsn  file "../tm4c123gh6pm_startup_ccs.c",line 483,column 24,is_stmt,address CAN1_Handler,i
    2695                    
TI ARM Assembler PC v5.2.4 Mon Jun 29 08:44:35 2015

Tools Copyright (c) 1996-2015 Texas Instruments Incorporated
tm4c123gh6pm_startup_ccs.asm                                         PAGE   50

    2696                            .dwfde $C$DW$CIE, CAN1_Handler
    2697                    
    2698                    ;*****************************************************************************
    2699                    ;* FUNCTION NAME: CAN1_Handler                                               *
    2700                    ;*                                                                           *
    2701                    ;*   Regs Modified     :                                                     *
    2702                    ;*   Regs Used         : LR                                                  *
    2703                    ;*   Local Frame Size  : 0 Args + 0 Auto + 0 Save = 0 byte                   *
    2704                    ;*****************************************************************************
    2705 00000064           CAN1_Handler:
    2706                    ;* --------------------------------------------------------------------------*
    2707                            .dwcfi  cfa_offset, 0
    2708                            .dwpsn  file "../tm4c123gh6pm_startup_ccs.c",line 483,column 32,is_stmt,isa 1
    2709                    ;* --------------------------------------------------------------------------*
    2710                    ;*   BEGIN LOOP ||$C$L48||
    2711                    ;*
    2712                    ;*   Loop source line                : 483
    2713                    ;*   Loop closing brace source line  : 483
    2714                    ;*   Known Minimum Trip Count        : 1
    2715                    ;*   Known Maximum Trip Count        : 4294967295
    2716                    ;*   Known Max Trip Count Factor     : 1
    2717                    ;* --------------------------------------------------------------------------*
    2718 00000064           ||$C$L48||:    
    2719 00000064 E7FE              B         ||$C$L48||            ; [DPU_3_PIPE] |483|  ; [ORIG 16-BIT INS]
    2720                            ; BRANCH OCCURS {||$C$L48||}     ; [] |483| 
    2721                    ;* --------------------------------------------------------------------------*
    2722                            .dwattr $C$DW$52, DW_AT_TI_end_file("../tm4c123gh6pm_startup_ccs.c")
    2723                            .dwattr $C$DW$52, DW_AT_TI_end_line(0x1e3)
    2724                            .dwattr $C$DW$52, DW_AT_TI_end_column(0x24)
    2725                            .dwendentry
    2726                            .dwendtag $C$DW$52
    2727                    
    2728 00000066                   .sect   ".text"
    2729                            .clink
    2730                            .thumbfunc CAN2_Handler
    2731 00000066                   .thumb
    2732                            .weak   CAN2_Handler
    2733                    
    2734                    $C$DW$53        .dwtag  DW_TAG_subprogram, DW_AT_name("CAN2_Handler")
    2735                            .dwattr $C$DW$53, DW_AT_low_pc(CAN2_Handler)
    2736                            .dwattr $C$DW$53, DW_AT_high_pc(0x00)
    2737                            .dwattr $C$DW$53, DW_AT_TI_symbol_name("CAN2_Handler")
    2738                            .dwattr $C$DW$53, DW_AT_external
    2739                            .dwattr $C$DW$53, DW_AT_TI_begin_file("../tm4c123gh6pm_startup_ccs.c")
    2740                            .dwattr $C$DW$53, DW_AT_TI_begin_line(0x1e4)
    2741                            .dwattr $C$DW$53, DW_AT_TI_begin_column(0x06)
    2742                            .dwattr $C$DW$53, DW_AT_decl_file("../tm4c123gh6pm_startup_ccs.c")
    2743                            .dwattr $C$DW$53, DW_AT_decl_line(0x1e4)
    2744                            .dwattr $C$DW$53, DW_AT_decl_column(0x06)
    2745                            .dwattr $C$DW$53, DW_AT_TI_max_frame_size(0x00)
    2746                            .dwpsn  file "../tm4c123gh6pm_startup_ccs.c",line 484,column 24,is_stmt,address CAN2_Handler,i
    2747                    
    2748                            .dwfde $C$DW$CIE, CAN2_Handler
    2749                    
    2750                    ;*****************************************************************************
TI ARM Assembler PC v5.2.4 Mon Jun 29 08:44:35 2015

Tools Copyright (c) 1996-2015 Texas Instruments Incorporated
tm4c123gh6pm_startup_ccs.asm                                         PAGE   51

    2751                    ;* FUNCTION NAME: CAN2_Handler                                               *
    2752                    ;*                                                                           *
    2753                    ;*   Regs Modified     :                                                     *
    2754                    ;*   Regs Used         : LR                                                  *
    2755                    ;*   Local Frame Size  : 0 Args + 0 Auto + 0 Save = 0 byte                   *
    2756                    ;*****************************************************************************
    2757 00000066           CAN2_Handler:
    2758                    ;* --------------------------------------------------------------------------*
    2759                            .dwcfi  cfa_offset, 0
    2760                            .dwpsn  file "../tm4c123gh6pm_startup_ccs.c",line 484,column 32,is_stmt,isa 1
    2761                    ;* --------------------------------------------------------------------------*
    2762                    ;*   BEGIN LOOP ||$C$L49||
    2763                    ;*
    2764                    ;*   Loop source line                : 484
    2765                    ;*   Loop closing brace source line  : 484
    2766                    ;*   Known Minimum Trip Count        : 1
    2767                    ;*   Known Maximum Trip Count        : 4294967295
    2768                    ;*   Known Max Trip Count Factor     : 1
    2769                    ;* --------------------------------------------------------------------------*
    2770 00000066           ||$C$L49||:    
    2771 00000066 E7FE              B         ||$C$L49||            ; [DPU_3_PIPE] |484|  ; [ORIG 16-BIT INS]
    2772                            ; BRANCH OCCURS {||$C$L49||}     ; [] |484| 
    2773                    ;* --------------------------------------------------------------------------*
    2774                            .dwattr $C$DW$53, DW_AT_TI_end_file("../tm4c123gh6pm_startup_ccs.c")
    2775                            .dwattr $C$DW$53, DW_AT_TI_end_line(0x1e4)
    2776                            .dwattr $C$DW$53, DW_AT_TI_end_column(0x24)
    2777                            .dwendentry
    2778                            .dwendtag $C$DW$53
    2779                    
    2780 00000068                   .sect   ".text"
    2781                            .clink
    2782                            .thumbfunc Ethernet_Handler
    2783 00000068                   .thumb
    2784                            .weak   Ethernet_Handler
    2785                    
    2786                    $C$DW$54        .dwtag  DW_TAG_subprogram, DW_AT_name("Ethernet_Handler")
    2787                            .dwattr $C$DW$54, DW_AT_low_pc(Ethernet_Handler)
    2788                            .dwattr $C$DW$54, DW_AT_high_pc(0x00)
    2789                            .dwattr $C$DW$54, DW_AT_TI_symbol_name("Ethernet_Handler")
    2790                            .dwattr $C$DW$54, DW_AT_external
    2791                            .dwattr $C$DW$54, DW_AT_TI_begin_file("../tm4c123gh6pm_startup_ccs.c")
    2792                            .dwattr $C$DW$54, DW_AT_TI_begin_line(0x1e5)
    2793                            .dwattr $C$DW$54, DW_AT_TI_begin_column(0x06)
    2794                            .dwattr $C$DW$54, DW_AT_decl_file("../tm4c123gh6pm_startup_ccs.c")
    2795                            .dwattr $C$DW$54, DW_AT_decl_line(0x1e5)
    2796                            .dwattr $C$DW$54, DW_AT_decl_column(0x06)
    2797                            .dwattr $C$DW$54, DW_AT_TI_max_frame_size(0x00)
    2798                            .dwpsn  file "../tm4c123gh6pm_startup_ccs.c",line 485,column 28,is_stmt,address Ethernet_Handl
    2799                    
    2800                            .dwfde $C$DW$CIE, Ethernet_Handler
    2801                    
    2802                    ;*****************************************************************************
    2803                    ;* FUNCTION NAME: Ethernet_Handler                                           *
    2804                    ;*                                                                           *
    2805                    ;*   Regs Modified     :                                                     *
TI ARM Assembler PC v5.2.4 Mon Jun 29 08:44:35 2015

Tools Copyright (c) 1996-2015 Texas Instruments Incorporated
tm4c123gh6pm_startup_ccs.asm                                         PAGE   52

    2806                    ;*   Regs Used         : LR                                                  *
    2807                    ;*   Local Frame Size  : 0 Args + 0 Auto + 0 Save = 0 byte                   *
    2808                    ;*****************************************************************************
    2809 00000068           Ethernet_Handler:
    2810                    ;* --------------------------------------------------------------------------*
    2811                            .dwcfi  cfa_offset, 0
    2812                            .dwpsn  file "../tm4c123gh6pm_startup_ccs.c",line 485,column 36,is_stmt,isa 1
    2813                    ;* --------------------------------------------------------------------------*
    2814                    ;*   BEGIN LOOP ||$C$L50||
    2815                    ;*
    2816                    ;*   Loop source line                : 485
    2817                    ;*   Loop closing brace source line  : 485
    2818                    ;*   Known Minimum Trip Count        : 1
    2819                    ;*   Known Maximum Trip Count        : 4294967295
    2820                    ;*   Known Max Trip Count Factor     : 1
    2821                    ;* --------------------------------------------------------------------------*
    2822 00000068           ||$C$L50||:    
    2823 00000068 E7FE              B         ||$C$L50||            ; [DPU_3_PIPE] |485|  ; [ORIG 16-BIT INS]
    2824                            ; BRANCH OCCURS {||$C$L50||}     ; [] |485| 
    2825                    ;* --------------------------------------------------------------------------*
    2826                            .dwattr $C$DW$54, DW_AT_TI_end_file("../tm4c123gh6pm_startup_ccs.c")
    2827                            .dwattr $C$DW$54, DW_AT_TI_end_line(0x1e5)
    2828                            .dwattr $C$DW$54, DW_AT_TI_end_column(0x28)
    2829                            .dwendentry
    2830                            .dwendtag $C$DW$54
    2831                    
    2832 0000006a                   .sect   ".text"
    2833                            .clink
    2834                            .thumbfunc Hibernate_Handler
    2835 0000006a                   .thumb
    2836                            .weak   Hibernate_Handler
    2837                    
    2838                    $C$DW$55        .dwtag  DW_TAG_subprogram, DW_AT_name("Hibernate_Handler")
    2839                            .dwattr $C$DW$55, DW_AT_low_pc(Hibernate_Handler)
    2840                            .dwattr $C$DW$55, DW_AT_high_pc(0x00)
    2841                            .dwattr $C$DW$55, DW_AT_TI_symbol_name("Hibernate_Handler")
    2842                            .dwattr $C$DW$55, DW_AT_external
    2843                            .dwattr $C$DW$55, DW_AT_TI_begin_file("../tm4c123gh6pm_startup_ccs.c")
    2844                            .dwattr $C$DW$55, DW_AT_TI_begin_line(0x1e6)
    2845                            .dwattr $C$DW$55, DW_AT_TI_begin_column(0x06)
    2846                            .dwattr $C$DW$55, DW_AT_decl_file("../tm4c123gh6pm_startup_ccs.c")
    2847                            .dwattr $C$DW$55, DW_AT_decl_line(0x1e6)
    2848                            .dwattr $C$DW$55, DW_AT_decl_column(0x06)
    2849                            .dwattr $C$DW$55, DW_AT_TI_max_frame_size(0x00)
    2850                            .dwpsn  file "../tm4c123gh6pm_startup_ccs.c",line 486,column 29,is_stmt,address Hibernate_Hand
    2851                    
    2852                            .dwfde $C$DW$CIE, Hibernate_Handler
    2853                    
    2854                    ;*****************************************************************************
    2855                    ;* FUNCTION NAME: Hibernate_Handler                                          *
    2856                    ;*                                                                           *
    2857                    ;*   Regs Modified     :                                                     *
    2858                    ;*   Regs Used         : LR                                                  *
    2859                    ;*   Local Frame Size  : 0 Args + 0 Auto + 0 Save = 0 byte                   *
    2860                    ;*****************************************************************************
TI ARM Assembler PC v5.2.4 Mon Jun 29 08:44:35 2015

Tools Copyright (c) 1996-2015 Texas Instruments Incorporated
tm4c123gh6pm_startup_ccs.asm                                         PAGE   53

    2861 0000006a           Hibernate_Handler:
    2862                    ;* --------------------------------------------------------------------------*
    2863                            .dwcfi  cfa_offset, 0
    2864                            .dwpsn  file "../tm4c123gh6pm_startup_ccs.c",line 486,column 37,is_stmt,isa 1
    2865                    ;* --------------------------------------------------------------------------*
    2866                    ;*   BEGIN LOOP ||$C$L51||
    2867                    ;*
    2868                    ;*   Loop source line                : 486
    2869                    ;*   Loop closing brace source line  : 486
    2870                    ;*   Known Minimum Trip Count        : 1
    2871                    ;*   Known Maximum Trip Count        : 4294967295
    2872                    ;*   Known Max Trip Count Factor     : 1
    2873                    ;* --------------------------------------------------------------------------*
    2874 0000006a           ||$C$L51||:    
    2875 0000006a E7FE              B         ||$C$L51||            ; [DPU_3_PIPE] |486|  ; [ORIG 16-BIT INS]
    2876                            ; BRANCH OCCURS {||$C$L51||}     ; [] |486| 
    2877                    ;* --------------------------------------------------------------------------*
    2878                            .dwattr $C$DW$55, DW_AT_TI_end_file("../tm4c123gh6pm_startup_ccs.c")
    2879                            .dwattr $C$DW$55, DW_AT_TI_end_line(0x1e6)
    2880                            .dwattr $C$DW$55, DW_AT_TI_end_column(0x29)
    2881                            .dwendentry
    2882                            .dwendtag $C$DW$55
    2883                    
    2884 0000006c                   .sect   ".text"
    2885                            .clink
    2886                            .thumbfunc USB0_Handler
    2887 0000006c                   .thumb
    2888                            .weak   USB0_Handler
    2889                    
    2890                    $C$DW$56        .dwtag  DW_TAG_subprogram, DW_AT_name("USB0_Handler")
    2891                            .dwattr $C$DW$56, DW_AT_low_pc(USB0_Handler)
    2892                            .dwattr $C$DW$56, DW_AT_high_pc(0x00)
    2893                            .dwattr $C$DW$56, DW_AT_TI_symbol_name("USB0_Handler")
    2894                            .dwattr $C$DW$56, DW_AT_external
    2895                            .dwattr $C$DW$56, DW_AT_TI_begin_file("../tm4c123gh6pm_startup_ccs.c")
    2896                            .dwattr $C$DW$56, DW_AT_TI_begin_line(0x1e7)
    2897                            .dwattr $C$DW$56, DW_AT_TI_begin_column(0x06)
    2898                            .dwattr $C$DW$56, DW_AT_decl_file("../tm4c123gh6pm_startup_ccs.c")
    2899                            .dwattr $C$DW$56, DW_AT_decl_line(0x1e7)
    2900                            .dwattr $C$DW$56, DW_AT_decl_column(0x06)
    2901                            .dwattr $C$DW$56, DW_AT_TI_max_frame_size(0x00)
    2902                            .dwpsn  file "../tm4c123gh6pm_startup_ccs.c",line 487,column 24,is_stmt,address USB0_Handler,i
    2903                    
    2904                            .dwfde $C$DW$CIE, USB0_Handler
    2905                    
    2906                    ;*****************************************************************************
    2907                    ;* FUNCTION NAME: USB0_Handler                                               *
    2908                    ;*                                                                           *
    2909                    ;*   Regs Modified     :                                                     *
    2910                    ;*   Regs Used         : LR                                                  *
    2911                    ;*   Local Frame Size  : 0 Args + 0 Auto + 0 Save = 0 byte                   *
    2912                    ;*****************************************************************************
    2913 0000006c           USB0_Handler:
    2914                    ;* --------------------------------------------------------------------------*
    2915                            .dwcfi  cfa_offset, 0
TI ARM Assembler PC v5.2.4 Mon Jun 29 08:44:35 2015

Tools Copyright (c) 1996-2015 Texas Instruments Incorporated
tm4c123gh6pm_startup_ccs.asm                                         PAGE   54

    2916                            .dwpsn  file "../tm4c123gh6pm_startup_ccs.c",line 487,column 32,is_stmt,isa 1
    2917                    ;* --------------------------------------------------------------------------*
    2918                    ;*   BEGIN LOOP ||$C$L52||
    2919                    ;*
    2920                    ;*   Loop source line                : 487
    2921                    ;*   Loop closing brace source line  : 487
    2922                    ;*   Known Minimum Trip Count        : 1
    2923                    ;*   Known Maximum Trip Count        : 4294967295
    2924                    ;*   Known Max Trip Count Factor     : 1
    2925                    ;* --------------------------------------------------------------------------*
    2926 0000006c           ||$C$L52||:    
    2927 0000006c E7FE              B         ||$C$L52||            ; [DPU_3_PIPE] |487|  ; [ORIG 16-BIT INS]
    2928                            ; BRANCH OCCURS {||$C$L52||}     ; [] |487| 
    2929                    ;* --------------------------------------------------------------------------*
    2930                            .dwattr $C$DW$56, DW_AT_TI_end_file("../tm4c123gh6pm_startup_ccs.c")
    2931                            .dwattr $C$DW$56, DW_AT_TI_end_line(0x1e7)
    2932                            .dwattr $C$DW$56, DW_AT_TI_end_column(0x24)
    2933                            .dwendentry
    2934                            .dwendtag $C$DW$56
    2935                    
    2936 0000006e                   .sect   ".text"
    2937                            .clink
    2938                            .thumbfunc PWM0Generator3_Handler
    2939 0000006e                   .thumb
    2940                            .weak   PWM0Generator3_Handler
    2941                    
    2942                    $C$DW$57        .dwtag  DW_TAG_subprogram, DW_AT_name("PWM0Generator3_Handler")
    2943                            .dwattr $C$DW$57, DW_AT_low_pc(PWM0Generator3_Handler)
    2944                            .dwattr $C$DW$57, DW_AT_high_pc(0x00)
    2945                            .dwattr $C$DW$57, DW_AT_TI_symbol_name("PWM0Generator3_Handler")
    2946                            .dwattr $C$DW$57, DW_AT_external
    2947                            .dwattr $C$DW$57, DW_AT_TI_begin_file("../tm4c123gh6pm_startup_ccs.c")
    2948                            .dwattr $C$DW$57, DW_AT_TI_begin_line(0x1e8)
    2949                            .dwattr $C$DW$57, DW_AT_TI_begin_column(0x06)
    2950                            .dwattr $C$DW$57, DW_AT_decl_file("../tm4c123gh6pm_startup_ccs.c")
    2951                            .dwattr $C$DW$57, DW_AT_decl_line(0x1e8)
    2952                            .dwattr $C$DW$57, DW_AT_decl_column(0x06)
    2953                            .dwattr $C$DW$57, DW_AT_TI_max_frame_size(0x00)
    2954                            .dwpsn  file "../tm4c123gh6pm_startup_ccs.c",line 488,column 34,is_stmt,address PWM0Generator3
    2955                    
    2956                            .dwfde $C$DW$CIE, PWM0Generator3_Handler
    2957                    
    2958                    ;*****************************************************************************
    2959                    ;* FUNCTION NAME: PWM0Generator3_Handler                                     *
    2960                    ;*                                                                           *
    2961                    ;*   Regs Modified     :                                                     *
    2962                    ;*   Regs Used         : LR                                                  *
    2963                    ;*   Local Frame Size  : 0 Args + 0 Auto + 0 Save = 0 byte                   *
    2964                    ;*****************************************************************************
    2965 0000006e           PWM0Generator3_Handler:
    2966                    ;* --------------------------------------------------------------------------*
    2967                            .dwcfi  cfa_offset, 0
    2968                            .dwpsn  file "../tm4c123gh6pm_startup_ccs.c",line 488,column 42,is_stmt,isa 1
    2969                    ;* --------------------------------------------------------------------------*
    2970                    ;*   BEGIN LOOP ||$C$L53||
TI ARM Assembler PC v5.2.4 Mon Jun 29 08:44:35 2015

Tools Copyright (c) 1996-2015 Texas Instruments Incorporated
tm4c123gh6pm_startup_ccs.asm                                         PAGE   55

    2971                    ;*
    2972                    ;*   Loop source line                : 488
    2973                    ;*   Loop closing brace source line  : 488
    2974                    ;*   Known Minimum Trip Count        : 1
    2975                    ;*   Known Maximum Trip Count        : 4294967295
    2976                    ;*   Known Max Trip Count Factor     : 1
    2977                    ;* --------------------------------------------------------------------------*
    2978 0000006e           ||$C$L53||:    
    2979 0000006e E7FE              B         ||$C$L53||            ; [DPU_3_PIPE] |488|  ; [ORIG 16-BIT INS]
    2980                            ; BRANCH OCCURS {||$C$L53||}     ; [] |488| 
    2981                    ;* --------------------------------------------------------------------------*
    2982                            .dwattr $C$DW$57, DW_AT_TI_end_file("../tm4c123gh6pm_startup_ccs.c")
    2983                            .dwattr $C$DW$57, DW_AT_TI_end_line(0x1e8)
    2984                            .dwattr $C$DW$57, DW_AT_TI_end_column(0x2e)
    2985                            .dwendentry
    2986                            .dwendtag $C$DW$57
    2987                    
    2988 00000070                   .sect   ".text"
    2989                            .clink
    2990                            .thumbfunc uDMA_Handler
    2991 00000070                   .thumb
    2992                            .weak   uDMA_Handler
    2993                    
    2994                    $C$DW$58        .dwtag  DW_TAG_subprogram, DW_AT_name("uDMA_Handler")
    2995                            .dwattr $C$DW$58, DW_AT_low_pc(uDMA_Handler)
    2996                            .dwattr $C$DW$58, DW_AT_high_pc(0x00)
    2997                            .dwattr $C$DW$58, DW_AT_TI_symbol_name("uDMA_Handler")
    2998                            .dwattr $C$DW$58, DW_AT_external
    2999                            .dwattr $C$DW$58, DW_AT_TI_begin_file("../tm4c123gh6pm_startup_ccs.c")
    3000                            .dwattr $C$DW$58, DW_AT_TI_begin_line(0x1e9)
    3001                            .dwattr $C$DW$58, DW_AT_TI_begin_column(0x06)
    3002                            .dwattr $C$DW$58, DW_AT_decl_file("../tm4c123gh6pm_startup_ccs.c")
    3003                            .dwattr $C$DW$58, DW_AT_decl_line(0x1e9)
    3004                            .dwattr $C$DW$58, DW_AT_decl_column(0x06)
    3005                            .dwattr $C$DW$58, DW_AT_TI_max_frame_size(0x00)
    3006                            .dwpsn  file "../tm4c123gh6pm_startup_ccs.c",line 489,column 24,is_stmt,address uDMA_Handler,i
    3007                    
    3008                            .dwfde $C$DW$CIE, uDMA_Handler
    3009                    
    3010                    ;*****************************************************************************
    3011                    ;* FUNCTION NAME: uDMA_Handler                                               *
    3012                    ;*                                                                           *
    3013                    ;*   Regs Modified     :                                                     *
    3014                    ;*   Regs Used         : LR                                                  *
    3015                    ;*   Local Frame Size  : 0 Args + 0 Auto + 0 Save = 0 byte                   *
    3016                    ;*****************************************************************************
    3017 00000070           uDMA_Handler:
    3018                    ;* --------------------------------------------------------------------------*
    3019                            .dwcfi  cfa_offset, 0
    3020                            .dwpsn  file "../tm4c123gh6pm_startup_ccs.c",line 489,column 32,is_stmt,isa 1
    3021                    ;* --------------------------------------------------------------------------*
    3022                    ;*   BEGIN LOOP ||$C$L54||
    3023                    ;*
    3024                    ;*   Loop source line                : 489
    3025                    ;*   Loop closing brace source line  : 489
TI ARM Assembler PC v5.2.4 Mon Jun 29 08:44:35 2015

Tools Copyright (c) 1996-2015 Texas Instruments Incorporated
