;******************************************************************************
;* TI ARM C/C++ Codegen                                             PC v5.2.4 *
;* Date/Time created: Thu Sep 17 23:20:49 2015                                *
;******************************************************************************
	.compiler_opts --abi=eabi --arm_vmrs_si_workaround=off --code_state=16 --diag_wrap=off --disable_dual_state --embedded_constants=on --endian=little --float_support=FPv4SPD16 --hll_source=on --object_format=elf --silicon_version=7M4 --symdebug:dwarf --symdebug:dwarf_version=3 --unaligned_access=on 
	.thumb

$C$DW$CU	.dwtag  DW_TAG_compile_unit
	.dwattr $C$DW$CU, DW_AT_name("../esp8266.c")
	.dwattr $C$DW$CU, DW_AT_producer("TI TI ARM C/C++ Codegen PC v5.2.4 Copyright (c) 1996-2015 Texas Instruments Incorporated")
	.dwattr $C$DW$CU, DW_AT_TI_version(0x01)
	.dwattr $C$DW$CU, DW_AT_comp_dir("C:\Dropbox\ArmBook\LaunchPad\ValvanoWareTM4C123\ESP8266_4C123\Debug")

$C$DW$1	.dwtag  DW_TAG_subprogram, DW_AT_name("__builtin_strlen")
	.dwattr $C$DW$1, DW_AT_TI_symbol_name("__builtin_strlen")
	.dwattr $C$DW$1, DW_AT_type(*$C$DW$T$11)
	.dwattr $C$DW$1, DW_AT_declaration
	.dwattr $C$DW$1, DW_AT_external
$C$DW$2	.dwtag  DW_TAG_formal_parameter
	.dwattr $C$DW$2, DW_AT_type(*$C$DW$T$36)
	.dwendtag $C$DW$1


$C$DW$3	.dwtag  DW_TAG_subprogram, DW_AT_name("printf")
	.dwattr $C$DW$3, DW_AT_TI_symbol_name("printf")
	.dwattr $C$DW$3, DW_AT_type(*$C$DW$T$10)
	.dwattr $C$DW$3, DW_AT_declaration
	.dwattr $C$DW$3, DW_AT_external
	.dwattr $C$DW$3, DW_AT_decl_file("C:/ti/ccsv6/tools/compiler/ti-cgt-arm_5.2.4/include/stdio.h")
	.dwattr $C$DW$3, DW_AT_decl_line(0xf5)
	.dwattr $C$DW$3, DW_AT_decl_column(0x19)
$C$DW$4	.dwtag  DW_TAG_formal_parameter
	.dwattr $C$DW$4, DW_AT_type(*$C$DW$T$36)
$C$DW$5	.dwtag  DW_TAG_unspecified_parameters
	.dwendtag $C$DW$3


$C$DW$6	.dwtag  DW_TAG_subprogram, DW_AT_name("sprintf")
	.dwattr $C$DW$6, DW_AT_TI_symbol_name("sprintf")
	.dwattr $C$DW$6, DW_AT_type(*$C$DW$T$10)
	.dwattr $C$DW$6, DW_AT_declaration
	.dwattr $C$DW$6, DW_AT_external
	.dwattr $C$DW$6, DW_AT_decl_file("C:/ti/ccsv6/tools/compiler/ti-cgt-arm_5.2.4/include/stdio.h")
	.dwattr $C$DW$6, DW_AT_decl_line(0xf9)
	.dwattr $C$DW$6, DW_AT_decl_column(0x19)
$C$DW$7	.dwtag  DW_TAG_formal_parameter
	.dwattr $C$DW$7, DW_AT_type(*$C$DW$T$59)
$C$DW$8	.dwtag  DW_TAG_formal_parameter
	.dwattr $C$DW$8, DW_AT_type(*$C$DW$T$36)
$C$DW$9	.dwtag  DW_TAG_unspecified_parameters
	.dwendtag $C$DW$6


$C$DW$10	.dwtag  DW_TAG_subprogram, DW_AT_name("strlen")
	.dwattr $C$DW$10, DW_AT_TI_symbol_name("strlen")
	.dwattr $C$DW$10, DW_AT_type(*$C$DW$T$81)
	.dwattr $C$DW$10, DW_AT_declaration
	.dwattr $C$DW$10, DW_AT_external
	.dwattr $C$DW$10, DW_AT_decl_file("C:/ti/ccsv6/tools/compiler/ti-cgt-arm_5.2.4/include/string.h")
	.dwattr $C$DW$10, DW_AT_decl_line(0x4f)
	.dwattr $C$DW$10, DW_AT_decl_column(0x14)
$C$DW$11	.dwtag  DW_TAG_formal_parameter
	.dwattr $C$DW$11, DW_AT_type(*$C$DW$T$36)
	.dwendtag $C$DW$10


$C$DW$12	.dwtag  DW_TAG_subprogram, DW_AT_name("strcpy")
	.dwattr $C$DW$12, DW_AT_TI_symbol_name("strcpy")
	.dwattr $C$DW$12, DW_AT_type(*$C$DW$T$59)
	.dwattr $C$DW$12, DW_AT_declaration
	.dwattr $C$DW$12, DW_AT_external
	.dwattr $C$DW$12, DW_AT_decl_file("C:/ti/ccsv6/tools/compiler/ti-cgt-arm_5.2.4/include/string.h")
	.dwattr $C$DW$12, DW_AT_decl_line(0x51)
	.dwattr $C$DW$12, DW_AT_decl_column(0x12)
$C$DW$13	.dwtag  DW_TAG_formal_parameter
	.dwattr $C$DW$13, DW_AT_type(*$C$DW$T$59)
$C$DW$14	.dwtag  DW_TAG_formal_parameter
	.dwattr $C$DW$14, DW_AT_type(*$C$DW$T$36)
	.dwendtag $C$DW$12


$C$DW$15	.dwtag  DW_TAG_subprogram, DW_AT_name("strstr")
	.dwattr $C$DW$15, DW_AT_TI_symbol_name("strstr")
	.dwattr $C$DW$15, DW_AT_type(*$C$DW$T$59)
	.dwattr $C$DW$15, DW_AT_declaration
	.dwattr $C$DW$15, DW_AT_external
	.dwattr $C$DW$15, DW_AT_decl_file("C:/ti/ccsv6/tools/compiler/ti-cgt-arm_5.2.4/include/string.h")
	.dwattr $C$DW$15, DW_AT_decl_line(0x60)
	.dwattr $C$DW$15, DW_AT_decl_column(0x16)
$C$DW$16	.dwtag  DW_TAG_formal_parameter
	.dwattr $C$DW$16, DW_AT_type(*$C$DW$T$36)
$C$DW$17	.dwtag  DW_TAG_formal_parameter
	.dwattr $C$DW$17, DW_AT_type(*$C$DW$T$36)
	.dwendtag $C$DW$15


$C$DW$18	.dwtag  DW_TAG_subprogram, DW_AT_name("UART_OutCharNonBlock")
	.dwattr $C$DW$18, DW_AT_TI_symbol_name("UART_OutCharNonBlock")
	.dwattr $C$DW$18, DW_AT_declaration
	.dwattr $C$DW$18, DW_AT_external
	.dwattr $C$DW$18, DW_AT_decl_file("..\UART.h")
	.dwattr $C$DW$18, DW_AT_decl_line(0x3e)
	.dwattr $C$DW$18, DW_AT_decl_column(0x06)
$C$DW$19	.dwtag  DW_TAG_formal_parameter
	.dwattr $C$DW$19, DW_AT_type(*$C$DW$T$6)
	.dwendtag $C$DW$18


$C$DW$20	.dwtag  DW_TAG_subprogram, DW_AT_name("EnableInterrupts")
	.dwattr $C$DW$20, DW_AT_TI_symbol_name("EnableInterrupts")
	.dwattr $C$DW$20, DW_AT_declaration
	.dwattr $C$DW$20, DW_AT_external
	.dwattr $C$DW$20, DW_AT_decl_file("../esp8266.c")
	.dwattr $C$DW$20, DW_AT_decl_line(0x3f)
	.dwattr $C$DW$20, DW_AT_decl_column(0x06)
	.global	ESP8266_RXBufferIndex
	.data
	.align	4
	.elfsym	ESP8266_RXBufferIndex,SYM_SIZE(4)
ESP8266_RXBufferIndex:
	.bits	0,32			; ESP8266_RXBufferIndex @ 0

$C$DW$21	.dwtag  DW_TAG_variable, DW_AT_name("ESP8266_RXBufferIndex")
	.dwattr $C$DW$21, DW_AT_TI_symbol_name("ESP8266_RXBufferIndex")
	.dwattr $C$DW$21, DW_AT_location[DW_OP_addr ESP8266_RXBufferIndex]
	.dwattr $C$DW$21, DW_AT_type(*$C$DW$T$39)
	.dwattr $C$DW$21, DW_AT_external
	.dwattr $C$DW$21, DW_AT_decl_file("../esp8266.c")
	.dwattr $C$DW$21, DW_AT_decl_line(0x57)
	.dwattr $C$DW$21, DW_AT_decl_column(0x0a)
	.global	ESP8266_RXBuffer
ESP8266_RXBuffer:	.usect	".bss:ESP8266_RXBuffer",1024,1
$C$DW$22	.dwtag  DW_TAG_variable, DW_AT_name("ESP8266_RXBuffer")
	.dwattr $C$DW$22, DW_AT_TI_symbol_name("ESP8266_RXBuffer")
	.dwattr $C$DW$22, DW_AT_location[DW_OP_addr ESP8266_RXBuffer]
	.dwattr $C$DW$22, DW_AT_type(*$C$DW$T$110)
	.dwattr $C$DW$22, DW_AT_external
	.dwattr $C$DW$22, DW_AT_decl_file("../esp8266.c")
	.dwattr $C$DW$22, DW_AT_decl_line(0x58)
	.dwattr $C$DW$22, DW_AT_decl_column(0x06)
	.global	ESP8266_TXBuffer
ESP8266_TXBuffer:	.usect	".bss:ESP8266_TXBuffer",1024,1
$C$DW$23	.dwtag  DW_TAG_variable, DW_AT_name("ESP8266_TXBuffer")
	.dwattr $C$DW$23, DW_AT_TI_symbol_name("ESP8266_TXBuffer")
	.dwattr $C$DW$23, DW_AT_location[DW_OP_addr ESP8266_TXBuffer]
	.dwattr $C$DW$23, DW_AT_type(*$C$DW$T$110)
	.dwattr $C$DW$23, DW_AT_external
	.dwattr $C$DW$23, DW_AT_decl_file("../esp8266.c")
	.dwattr $C$DW$23, DW_AT_decl_line(0x59)
	.dwattr $C$DW$23, DW_AT_decl_column(0x06)
	.global	ESP8266_ProcessBuffer
	.data
	.align	1
	.elfsym	ESP8266_ProcessBuffer,SYM_SIZE(1)
ESP8266_ProcessBuffer:
	.bits	0,8			; ESP8266_ProcessBuffer @ 0

$C$DW$24	.dwtag  DW_TAG_variable, DW_AT_name("ESP8266_ProcessBuffer")
	.dwattr $C$DW$24, DW_AT_TI_symbol_name("ESP8266_ProcessBuffer")
	.dwattr $C$DW$24, DW_AT_location[DW_OP_addr ESP8266_ProcessBuffer]
	.dwattr $C$DW$24, DW_AT_type(*$C$DW$T$161)
	.dwattr $C$DW$24, DW_AT_external
	.dwattr $C$DW$24, DW_AT_decl_file("../esp8266.c")
	.dwattr $C$DW$24, DW_AT_decl_line(0x5b)
	.dwattr $C$DW$24, DW_AT_decl_column(0x0f)
	.global	ESP8266_EchoResponse
	.data
	.align	1
	.elfsym	ESP8266_EchoResponse,SYM_SIZE(1)
ESP8266_EchoResponse:
	.bits	0,8			; ESP8266_EchoResponse @ 0

$C$DW$25	.dwtag  DW_TAG_variable, DW_AT_name("ESP8266_EchoResponse")
	.dwattr $C$DW$25, DW_AT_TI_symbol_name("ESP8266_EchoResponse")
	.dwattr $C$DW$25, DW_AT_location[DW_OP_addr ESP8266_EchoResponse]
	.dwattr $C$DW$25, DW_AT_type(*$C$DW$T$161)
	.dwattr $C$DW$25, DW_AT_external
	.dwattr $C$DW$25, DW_AT_decl_file("../esp8266.c")
	.dwattr $C$DW$25, DW_AT_decl_line(0x5c)
	.dwattr $C$DW$25, DW_AT_decl_column(0x0f)
	.global	ESP8266_ResponseComplete
	.data
	.align	1
	.elfsym	ESP8266_ResponseComplete,SYM_SIZE(1)
ESP8266_ResponseComplete:
	.bits	0,8			; ESP8266_ResponseComplete @ 0

$C$DW$26	.dwtag  DW_TAG_variable, DW_AT_name("ESP8266_ResponseComplete")
	.dwattr $C$DW$26, DW_AT_TI_symbol_name("ESP8266_ResponseComplete")
	.dwattr $C$DW$26, DW_AT_location[DW_OP_addr ESP8266_ResponseComplete]
	.dwattr $C$DW$26, DW_AT_type(*$C$DW$T$161)
	.dwattr $C$DW$26, DW_AT_external
	.dwattr $C$DW$26, DW_AT_decl_file("../esp8266.c")
	.dwattr $C$DW$26, DW_AT_decl_line(0x5d)
	.dwattr $C$DW$26, DW_AT_decl_column(0x0f)
	.global	ESP8266_APEnabled
	.data
	.align	1
	.elfsym	ESP8266_APEnabled,SYM_SIZE(1)
ESP8266_APEnabled:
	.bits	0,8			; ESP8266_APEnabled @ 0

$C$DW$27	.dwtag  DW_TAG_variable, DW_AT_name("ESP8266_APEnabled")
	.dwattr $C$DW$27, DW_AT_TI_symbol_name("ESP8266_APEnabled")
	.dwattr $C$DW$27, DW_AT_location[DW_OP_addr ESP8266_APEnabled]
	.dwattr $C$DW$27, DW_AT_type(*$C$DW$T$161)
	.dwattr $C$DW$27, DW_AT_external
	.dwattr $C$DW$27, DW_AT_decl_file("../esp8266.c")
	.dwattr $C$DW$27, DW_AT_decl_line(0x5e)
	.dwattr $C$DW$27, DW_AT_decl_column(0x0f)
	.global	ESP8266_ClientEnabled
	.data
	.align	1
	.elfsym	ESP8266_ClientEnabled,SYM_SIZE(1)
ESP8266_ClientEnabled:
	.bits	0,8			; ESP8266_ClientEnabled @ 0

$C$DW$28	.dwtag  DW_TAG_variable, DW_AT_name("ESP8266_ClientEnabled")
	.dwattr $C$DW$28, DW_AT_TI_symbol_name("ESP8266_ClientEnabled")
	.dwattr $C$DW$28, DW_AT_location[DW_OP_addr ESP8266_ClientEnabled]
	.dwattr $C$DW$28, DW_AT_type(*$C$DW$T$161)
	.dwattr $C$DW$28, DW_AT_external
	.dwattr $C$DW$28, DW_AT_decl_file("../esp8266.c")
	.dwattr $C$DW$28, DW_AT_decl_line(0x5f)
	.dwattr $C$DW$28, DW_AT_decl_column(0x0f)
	.global	ESP8266_ServerEnabled
	.data
	.align	1
	.elfsym	ESP8266_ServerEnabled,SYM_SIZE(1)
ESP8266_ServerEnabled:
	.bits	0,8			; ESP8266_ServerEnabled @ 0

$C$DW$29	.dwtag  DW_TAG_variable, DW_AT_name("ESP8266_ServerEnabled")
	.dwattr $C$DW$29, DW_AT_TI_symbol_name("ESP8266_ServerEnabled")
	.dwattr $C$DW$29, DW_AT_location[DW_OP_addr ESP8266_ServerEnabled]
	.dwattr $C$DW$29, DW_AT_type(*$C$DW$T$161)
	.dwattr $C$DW$29, DW_AT_external
	.dwattr $C$DW$29, DW_AT_decl_file("../esp8266.c")
	.dwattr $C$DW$29, DW_AT_decl_line(0x60)
	.dwattr $C$DW$29, DW_AT_decl_column(0x0f)
	.global	ESP8266_InputProcessingEnabled
	.data
	.align	1
	.elfsym	ESP8266_InputProcessingEnabled,SYM_SIZE(1)
ESP8266_InputProcessingEnabled:
	.bits	0,8			; ESP8266_InputProcessingEnabled @ 0

$C$DW$30	.dwtag  DW_TAG_variable, DW_AT_name("ESP8266_InputProcessingEnabled")
	.dwattr $C$DW$30, DW_AT_TI_symbol_name("ESP8266_InputProcessingEnabled")
	.dwattr $C$DW$30, DW_AT_location[DW_OP_addr ESP8266_InputProcessingEnabled]
	.dwattr $C$DW$30, DW_AT_type(*$C$DW$T$161)
	.dwattr $C$DW$30, DW_AT_external
	.dwattr $C$DW$30, DW_AT_decl_file("../esp8266.c")
	.dwattr $C$DW$30, DW_AT_decl_line(0x61)
	.dwattr $C$DW$30, DW_AT_decl_column(0x0f)
	.global	ESP8266_PageRequested
	.data
	.align	1
	.elfsym	ESP8266_PageRequested,SYM_SIZE(1)
ESP8266_PageRequested:
	.bits	0,8			; ESP8266_PageRequested @ 0

$C$DW$31	.dwtag  DW_TAG_variable, DW_AT_name("ESP8266_PageRequested")
	.dwattr $C$DW$31, DW_AT_TI_symbol_name("ESP8266_PageRequested")
	.dwattr $C$DW$31, DW_AT_location[DW_OP_addr ESP8266_PageRequested]
	.dwattr $C$DW$31, DW_AT_type(*$C$DW$T$161)
	.dwattr $C$DW$31, DW_AT_external
	.dwattr $C$DW$31, DW_AT_decl_file("../esp8266.c")
	.dwattr $C$DW$31, DW_AT_decl_line(0x62)
	.dwattr $C$DW$31, DW_AT_decl_column(0x0f)
	.global	ESP8266_ServerPort
	.data
	.align	2
	.elfsym	ESP8266_ServerPort,SYM_SIZE(2)
ESP8266_ServerPort:
	.bits	80,16			; ESP8266_ServerPort @ 0

$C$DW$32	.dwtag  DW_TAG_variable, DW_AT_name("ESP8266_ServerPort")
	.dwattr $C$DW$32, DW_AT_TI_symbol_name("ESP8266_ServerPort")
	.dwattr $C$DW$32, DW_AT_location[DW_OP_addr ESP8266_ServerPort]
	.dwattr $C$DW$32, DW_AT_type(*$C$DW$T$42)
	.dwattr $C$DW$32, DW_AT_external
	.dwattr $C$DW$32, DW_AT_decl_file("../esp8266.c")
	.dwattr $C$DW$32, DW_AT_decl_line(0x64)
	.dwattr $C$DW$32, DW_AT_decl_column(0x0a)
	.global	ESP8266_ServerTimeout
	.data
	.align	2
	.elfsym	ESP8266_ServerTimeout,SYM_SIZE(2)
ESP8266_ServerTimeout:
	.bits	28800,16			; ESP8266_ServerTimeout @ 0

$C$DW$33	.dwtag  DW_TAG_variable, DW_AT_name("ESP8266_ServerTimeout")
	.dwattr $C$DW$33, DW_AT_TI_symbol_name("ESP8266_ServerTimeout")
	.dwattr $C$DW$33, DW_AT_location[DW_OP_addr ESP8266_ServerTimeout]
	.dwattr $C$DW$33, DW_AT_type(*$C$DW$T$42)
	.dwattr $C$DW$33, DW_AT_external
	.dwattr $C$DW$33, DW_AT_decl_file("../esp8266.c")
	.dwattr $C$DW$33, DW_AT_decl_line(0x65)
	.dwattr $C$DW$33, DW_AT_decl_column(0x0a)
	.global	SearchString
	.common	SearchString,32,1
$C$DW$34	.dwtag  DW_TAG_variable, DW_AT_name("SearchString")
	.dwattr $C$DW$34, DW_AT_TI_symbol_name("SearchString")
	.dwattr $C$DW$34, DW_AT_location[DW_OP_addr SearchString]
	.dwattr $C$DW$34, DW_AT_type(*$C$DW$T$112)
	.dwattr $C$DW$34, DW_AT_external
	.dwattr $C$DW$34, DW_AT_decl_file("../esp8266.c")
	.dwattr $C$DW$34, DW_AT_decl_line(0x68)
	.dwattr $C$DW$34, DW_AT_decl_column(0x06)
	.global	SearchLooking
	.data
	.align	1
	.elfsym	SearchLooking,SYM_SIZE(1)
SearchLooking:
	.bits	0,8			; SearchLooking @ 0

$C$DW$35	.dwtag  DW_TAG_variable, DW_AT_name("SearchLooking")
	.dwattr $C$DW$35, DW_AT_TI_symbol_name("SearchLooking")
	.dwattr $C$DW$35, DW_AT_location[DW_OP_addr SearchLooking]
	.dwattr $C$DW$35, DW_AT_type(*$C$DW$T$161)
	.dwattr $C$DW$35, DW_AT_external
	.dwattr $C$DW$35, DW_AT_decl_file("../esp8266.c")
	.dwattr $C$DW$35, DW_AT_decl_line(0x69)
	.dwattr $C$DW$35, DW_AT_decl_column(0x0f)
	.global	SearchFound
	.data
	.align	1
	.elfsym	SearchFound,SYM_SIZE(1)
SearchFound:
	.bits	0,8			; SearchFound @ 0

$C$DW$36	.dwtag  DW_TAG_variable, DW_AT_name("SearchFound")
	.dwattr $C$DW$36, DW_AT_TI_symbol_name("SearchFound")
	.dwattr $C$DW$36, DW_AT_location[DW_OP_addr SearchFound]
	.dwattr $C$DW$36, DW_AT_type(*$C$DW$T$161)
	.dwattr $C$DW$36, DW_AT_external
	.dwattr $C$DW$36, DW_AT_decl_file("../esp8266.c")
	.dwattr $C$DW$36, DW_AT_decl_line(0x6a)
	.dwattr $C$DW$36, DW_AT_decl_column(0x0f)
	.global	Fetch
	.sect	".data:Fetch", RW
	.clink
	.align	1
	.elfsym	Fetch,SYM_SIZE(84)
Fetch:
	.bits	71,8			; Fetch[0] @ 0
	.bits	69,8			; Fetch[1] @ 8
	.bits	84,8			; Fetch[2] @ 16
	.bits	32,8			; Fetch[3] @ 24
	.bits	47,8			; Fetch[4] @ 32
	.bits	100,8			; Fetch[5] @ 40
	.bits	97,8			; Fetch[6] @ 48
	.bits	116,8			; Fetch[7] @ 56
	.bits	97,8			; Fetch[8] @ 64
	.bits	47,8			; Fetch[9] @ 72
	.bits	50,8			; Fetch[10] @ 80
	.bits	46,8			; Fetch[11] @ 88
	.bits	53,8			; Fetch[12] @ 96
	.bits	47,8			; Fetch[13] @ 104
	.bits	119,8			; Fetch[14] @ 112
	.bits	101,8			; Fetch[15] @ 120
	.bits	97,8			; Fetch[16] @ 128
	.bits	116,8			; Fetch[17] @ 136
	.bits	104,8			; Fetch[18] @ 144
	.bits	101,8			; Fetch[19] @ 152
	.bits	114,8			; Fetch[20] @ 160
	.bits	63,8			; Fetch[21] @ 168
	.bits	113,8			; Fetch[22] @ 176
	.bits	61,8			; Fetch[23] @ 184
	.bits	65,8			; Fetch[24] @ 192
	.bits	117,8			; Fetch[25] @ 200
	.bits	115,8			; Fetch[26] @ 208
	.bits	116,8			; Fetch[27] @ 216
	.bits	105,8			; Fetch[28] @ 224
	.bits	110,8			; Fetch[29] @ 232
	.bits	37,8			; Fetch[30] @ 240
	.bits	50,8			; Fetch[31] @ 248
	.bits	48,8			; Fetch[32] @ 256
	.bits	84,8			; Fetch[33] @ 264
	.bits	101,8			; Fetch[34] @ 272
	.bits	120,8			; Fetch[35] @ 280
	.bits	97,8			; Fetch[36] @ 288
	.bits	115,8			; Fetch[37] @ 296
	.bits	32,8			; Fetch[38] @ 304
	.bits	72,8			; Fetch[39] @ 312
	.bits	84,8			; Fetch[40] @ 320
	.bits	84,8			; Fetch[41] @ 328
	.bits	80,8			; Fetch[42] @ 336
	.bits	47,8			; Fetch[43] @ 344
	.bits	49,8			; Fetch[44] @ 352
	.bits	46,8			; Fetch[45] @ 360
	.bits	49,8			; Fetch[46] @ 368
	.bits	13,8			; Fetch[47] @ 376
	.bits	10,8			; Fetch[48] @ 384
	.bits	72,8			; Fetch[49] @ 392
	.bits	111,8			; Fetch[50] @ 400
	.bits	115,8			; Fetch[51] @ 408
	.bits	116,8			; Fetch[52] @ 416
	.bits	58,8			; Fetch[53] @ 424
	.bits	97,8			; Fetch[54] @ 432
	.bits	112,8			; Fetch[55] @ 440
	.bits	105,8			; Fetch[56] @ 448
	.bits	46,8			; Fetch[57] @ 456
	.bits	111,8			; Fetch[58] @ 464
	.bits	112,8			; Fetch[59] @ 472
	.bits	101,8			; Fetch[60] @ 480
	.bits	110,8			; Fetch[61] @ 488
	.bits	119,8			; Fetch[62] @ 496
	.bits	101,8			; Fetch[63] @ 504
	.bits	97,8			; Fetch[64] @ 512
	.bits	116,8			; Fetch[65] @ 520
	.bits	104,8			; Fetch[66] @ 528
	.bits	101,8			; Fetch[67] @ 536
	.bits	114,8			; Fetch[68] @ 544
	.bits	109,8			; Fetch[69] @ 552
	.bits	97,8			; Fetch[70] @ 560
	.bits	112,8			; Fetch[71] @ 568
	.bits	46,8			; Fetch[72] @ 576
	.bits	111,8			; Fetch[73] @ 584
	.bits	114,8			; Fetch[74] @ 592
	.bits	103,8			; Fetch[75] @ 600
	.bits	13,8			; Fetch[76] @ 608
	.bits	10,8			; Fetch[77] @ 616
	.bits	13,8			; Fetch[78] @ 624
	.bits	10,8			; Fetch[79] @ 632
	.bits	0,8			; Fetch[80] @ 640

$C$DW$37	.dwtag  DW_TAG_variable, DW_AT_name("Fetch")
	.dwattr $C$DW$37, DW_AT_TI_symbol_name("Fetch")
	.dwattr $C$DW$37, DW_AT_location[DW_OP_addr Fetch]
	.dwattr $C$DW$37, DW_AT_type(*$C$DW$T$114)
	.dwattr $C$DW$37, DW_AT_external
	.dwattr $C$DW$37, DW_AT_decl_file("../esp8266.c")
	.dwattr $C$DW$37, DW_AT_decl_line(0x251)
	.dwattr $C$DW$37, DW_AT_decl_column(0x06)
;	C:\ti\ccsv6\tools\compiler\ti-cgt-arm_5.2.4\bin\armacpia.exe -@C:\\Users\\VALVAN~1\\AppData\\Local\\Temp\\0381612 
	.sect	".text"
	.clink
	.thumbfunc ESP8266InitUART
	.thumb
	.global	ESP8266InitUART

$C$DW$38	.dwtag  DW_TAG_subprogram, DW_AT_name("ESP8266InitUART")
	.dwattr $C$DW$38, DW_AT_low_pc(ESP8266InitUART)
	.dwattr $C$DW$38, DW_AT_high_pc(0x00)
	.dwattr $C$DW$38, DW_AT_TI_symbol_name("ESP8266InitUART")
	.dwattr $C$DW$38, DW_AT_external
	.dwattr $C$DW$38, DW_AT_TI_begin_file("../esp8266.c")
	.dwattr $C$DW$38, DW_AT_TI_begin_line(0x78)
	.dwattr $C$DW$38, DW_AT_TI_begin_column(0x06)
	.dwattr $C$DW$38, DW_AT_decl_file("../esp8266.c")
	.dwattr $C$DW$38, DW_AT_decl_line(0x78)
	.dwattr $C$DW$38, DW_AT_decl_column(0x06)
	.dwattr $C$DW$38, DW_AT_TI_max_frame_size(0x08)
	.dwpsn	file "../esp8266.c",line 120,column 27,is_stmt,address ESP8266InitUART,isa 1

	.dwfde $C$DW$CIE, ESP8266InitUART
;----------------------------------------------------------------------
; 120 | void ESP8266InitUART(void){                                            
; 121 | volatile int delay;                                                    
; 123 |   // Enable UART1                                                      
;----------------------------------------------------------------------

;*****************************************************************************
;* FUNCTION NAME: ESP8266InitUART                                            *
;*                                                                           *
;*   Regs Modified     : A1,A2,A3,SP,SR                                      *
;*   Regs Used         : A1,A2,A3,SP,LR,SR                                   *
;*   Local Frame Size  : 0 Args + 4 Auto + 0 Save = 4 byte                   *
;*****************************************************************************
ESP8266InitUART:
;* --------------------------------------------------------------------------*
	.dwcfi	cfa_offset, 0
        SUB       SP, SP, #8            ; [DPU_3_PIPE] 
	.dwcfi	cfa_offset, 8
$C$DW$39	.dwtag  DW_TAG_variable, DW_AT_name("delay")
	.dwattr $C$DW$39, DW_AT_TI_symbol_name("delay")
	.dwattr $C$DW$39, DW_AT_type(*$C$DW$T$69)
	.dwattr $C$DW$39, DW_AT_location[DW_OP_breg13 0]
	.dwpsn	file "../esp8266.c",line 124,column 3,is_stmt,isa 1
;----------------------------------------------------------------------
; 124 | SYSCTL_RCGCUART_R |= 0x02;                                             
;----------------------------------------------------------------------
        LDR       A2, $C$CON1           ; [DPU_3_PIPE] |124| 
        LDR       A1, [A2, #0]          ; [DPU_3_PIPE] |124| 
        ORR       A1, A1, #2            ; [DPU_3_PIPE] |124| 
        STR       A1, [A2, #0]          ; [DPU_3_PIPE] |124| 
	.dwpsn	file "../esp8266.c",line 125,column 3,is_stmt,isa 1
;----------------------------------------------------------------------
; 125 | delay++; delay++;                                                      
;----------------------------------------------------------------------
        LDR       A1, [SP, #0]          ; [DPU_3_PIPE] |125| 
        ADDS      A1, A1, #1            ; [DPU_3_PIPE] |125| 
        STR       A1, [SP, #0]          ; [DPU_3_PIPE] |125| 
	.dwpsn	file "../esp8266.c",line 125,column 12,is_stmt,isa 1
;----------------------------------------------------------------------
; 127 | // Enable PORT B clock gating                                          
;----------------------------------------------------------------------
        LDR       A1, [SP, #0]          ; [DPU_3_PIPE] |125| 
        ADDS      A1, A1, #1            ; [DPU_3_PIPE] |125| 
        STR       A1, [SP, #0]          ; [DPU_3_PIPE] |125| 
	.dwpsn	file "../esp8266.c",line 128,column 3,is_stmt,isa 1
;----------------------------------------------------------------------
; 128 | SYSCTL_RCGCGPIO_R |= 0x02;                                             
;----------------------------------------------------------------------
        LDR       A2, $C$CON2           ; [DPU_3_PIPE] |128| 
        LDR       A1, [A2, #0]          ; [DPU_3_PIPE] |128| 
        ORR       A1, A1, #2            ; [DPU_3_PIPE] |128| 
        STR       A1, [A2, #0]          ; [DPU_3_PIPE] |128| 
	.dwpsn	file "../esp8266.c",line 129,column 3,is_stmt,isa 1
;----------------------------------------------------------------------
; 129 | delay++; delay++;                                                      
;----------------------------------------------------------------------
        LDR       A1, [SP, #0]          ; [DPU_3_PIPE] |129| 
        ADDS      A1, A1, #1            ; [DPU_3_PIPE] |129| 
        STR       A1, [SP, #0]          ; [DPU_3_PIPE] |129| 
	.dwpsn	file "../esp8266.c",line 129,column 12,is_stmt,isa 1
;----------------------------------------------------------------------
; 130 | // Enable UART1                                                        
;----------------------------------------------------------------------
        LDR       A1, [SP, #0]          ; [DPU_3_PIPE] |129| 
        ADDS      A1, A1, #1            ; [DPU_3_PIPE] |129| 
        STR       A1, [SP, #0]          ; [DPU_3_PIPE] |129| 
	.dwpsn	file "../esp8266.c",line 131,column 3,is_stmt,isa 1
;----------------------------------------------------------------------
; 131 | GPIO_PORTB_AFSEL_R |= 0x03;                                            
;----------------------------------------------------------------------
        LDR       A2, $C$CON3           ; [DPU_3_PIPE] |131| 
        LDR       A1, [A2, #0]          ; [DPU_3_PIPE] |131| 
        ORR       A1, A1, #3            ; [DPU_3_PIPE] |131| 
        STR       A1, [A2, #0]          ; [DPU_3_PIPE] |131| 
	.dwpsn	file "../esp8266.c",line 132,column 3,is_stmt,isa 1
;----------------------------------------------------------------------
; 132 | GPIO_PORTB_DIR_R |= 0x20; // PB5 output to reset                       
;----------------------------------------------------------------------
        LDR       A2, $C$CON4           ; [DPU_3_PIPE] |132| 
        LDR       A1, [A2, #0]          ; [DPU_3_PIPE] |132| 
        ORR       A1, A1, #32           ; [DPU_3_PIPE] |132| 
        STR       A1, [A2, #0]          ; [DPU_3_PIPE] |132| 
	.dwpsn	file "../esp8266.c",line 133,column 3,is_stmt,isa 1
;----------------------------------------------------------------------
; 133 | GPIO_PORTB_PCTL_R =(GPIO_PORTB_PCTL_R&0xFF0FFF00)|0x00000011;          
;----------------------------------------------------------------------
        LDR       A2, $C$CON5           ; [DPU_3_PIPE] |133| 
        LDR       A1, $C$CON6           ; [DPU_3_PIPE] |133| 
        LDR       A3, [A2, #0]          ; [DPU_3_PIPE] |133| 
        LDR       A2, $C$CON5           ; [DPU_3_PIPE] |133| 
        ANDS      A1, A1, A3            ; [DPU_3_PIPE] |133| 
        ORR       A1, A1, #17           ; [DPU_3_PIPE] |133| 
        STR       A1, [A2, #0]          ; [DPU_3_PIPE] |133| 
	.dwpsn	file "../esp8266.c",line 134,column 3,is_stmt,isa 1
;----------------------------------------------------------------------
; 134 | GPIO_PORTB_DEN_R   |= 0x23; //23                                       
;----------------------------------------------------------------------
        LDR       A2, $C$CON7           ; [DPU_3_PIPE] |134| 
        LDR       A1, [A2, #0]          ; [DPU_3_PIPE] |134| 
        ORR       A1, A1, #35           ; [DPU_3_PIPE] |134| 
        STR       A1, [A2, #0]          ; [DPU_3_PIPE] |134| 
	.dwpsn	file "../esp8266.c",line 135,column 3,is_stmt,isa 1
;----------------------------------------------------------------------
; 135 | GPIO_PORTB_DATA_R |= 0x20; // reset high                               
; 136 |   // Configure UART1 for 115200bps operation                           
;----------------------------------------------------------------------
        LDR       A2, $C$CON8           ; [DPU_3_PIPE] |135| 
        LDR       A1, [A2, #0]          ; [DPU_3_PIPE] |135| 
        ORR       A1, A1, #32           ; [DPU_3_PIPE] |135| 
        STR       A1, [A2, #0]          ; [DPU_3_PIPE] |135| 
	.dwpsn	file "../esp8266.c",line 137,column 3,is_stmt,isa 1
;----------------------------------------------------------------------
; 137 | UART1_CTL_R &= ~UART_CTL_UARTEN;                  // Clear UART1 enable
;     |  bit during config                                                     
; 138 | //  UART1_IBRD_R = 27;                                // Set integer po
;     | rtion of BRD                                                           
; 139 | //  UART1_FBRD_R =  8;                                // Set fraction p
;     | ortion of BRD                                                          
;----------------------------------------------------------------------
        LDR       A2, $C$CON9           ; [DPU_3_PIPE] |137| 
        LDR       A1, [A2, #0]          ; [DPU_3_PIPE] |137| 
        BIC       A1, A1, #1            ; [DPU_3_PIPE] |137| 
        STR       A1, [A2, #0]          ; [DPU_3_PIPE] |137| 
	.dwpsn	file "../esp8266.c",line 140,column 3,is_stmt,isa 1
;----------------------------------------------------------------------
; 140 | UART1_IBRD_R = 43;                    // IBRD = int(80,000,000 / (16 *
;     | 115,200)) = int(43.403)                                                
;----------------------------------------------------------------------
        LDR       A2, $C$CON10          ; [DPU_3_PIPE] |140| 
        MOVS      A1, #43               ; [DPU_3_PIPE] |140| 
        STR       A1, [A2, #0]          ; [DPU_3_PIPE] |140| 
	.dwpsn	file "../esp8266.c",line 141,column 3,is_stmt,isa 1
;----------------------------------------------------------------------
; 141 | UART1_FBRD_R = 26;                    // FBRD = round(0.4028 * 64 ) = 2
;     | 6                                                                      
;----------------------------------------------------------------------
        LDR       A2, $C$CON11          ; [DPU_3_PIPE] |141| 
        MOVS      A1, #26               ; [DPU_3_PIPE] |141| 
        STR       A1, [A2, #0]          ; [DPU_3_PIPE] |141| 
	.dwpsn	file "../esp8266.c",line 142,column 3,is_stmt,isa 1
;----------------------------------------------------------------------
; 142 | UART1_LCRH_R = (UART_LCRH_WLEN_8|UART_LCRH_FEN);  // 8 bit word length,
;     |  1 stop, no parity, FIFOs enabled                                      
;----------------------------------------------------------------------
        LDR       A2, $C$CON12          ; [DPU_3_PIPE] |142| 
        MOVS      A1, #112              ; [DPU_3_PIPE] |142| 
        STR       A1, [A2, #0]          ; [DPU_3_PIPE] |142| 
	.dwpsn	file "../esp8266.c",line 143,column 3,is_stmt,isa 1
;----------------------------------------------------------------------
; 143 | UART1_IFLS_R &= ~0x3F;                            // Clear TX and RX in
;     | terrupt FIFO level fields                                              
;----------------------------------------------------------------------
        LDR       A2, $C$CON13          ; [DPU_3_PIPE] |143| 
        LDR       A1, [A2, #0]          ; [DPU_3_PIPE] |143| 
        BIC       A1, A1, #63           ; [DPU_3_PIPE] |143| 
        STR       A1, [A2, #0]          ; [DPU_3_PIPE] |143| 
	.dwpsn	file "../esp8266.c",line 144,column 3,is_stmt,isa 1
;----------------------------------------------------------------------
; 144 | UART1_IFLS_R += UART_IFLS_RX1_8 ;                 // RX FIFO interrupt
;     | threshold >= 1/8th full                                                
;----------------------------------------------------------------------
        LDR       A2, $C$CON13          ; [DPU_3_PIPE] |144| 
        LDR       A1, [A2, #0]          ; [DPU_3_PIPE] |144| 
        STR       A1, [A2, #0]          ; [DPU_3_PIPE] |144| 
	.dwpsn	file "../esp8266.c",line 145,column 3,is_stmt,isa 1
;----------------------------------------------------------------------
; 145 | UART1_IM_R  |= UART_IM_RXIM | UART_IM_RTIM;       // Enable interupt on
;     |  RX and RX transmission end                                            
;----------------------------------------------------------------------
        LDR       A2, $C$CON14          ; [DPU_3_PIPE] |145| 
        LDR       A1, [A2, #0]          ; [DPU_3_PIPE] |145| 
        ORR       A1, A1, #80           ; [DPU_3_PIPE] |145| 
        STR       A1, [A2, #0]          ; [DPU_3_PIPE] |145| 
	.dwpsn	file "../esp8266.c",line 146,column 3,is_stmt,isa 1
;----------------------------------------------------------------------
; 146 | UART1_CTL_R |= UART_CTL_UARTEN;                   // Set UART1 enable b
;     | it                                                                     
;----------------------------------------------------------------------
        LDR       A2, $C$CON9           ; [DPU_3_PIPE] |146| 
        LDR       A1, [A2, #0]          ; [DPU_3_PIPE] |146| 
        ORR       A1, A1, #1            ; [DPU_3_PIPE] |146| 
        STR       A1, [A2, #0]          ; [DPU_3_PIPE] |146| 
	.dwpsn	file "../esp8266.c",line 147,column 1,is_stmt,isa 1
        ADD       SP, SP, #8            ; [DPU_3_PIPE] 
	.dwcfi	cfa_offset, 0
$C$DW$40	.dwtag  DW_TAG_TI_branch
	.dwattr $C$DW$40, DW_AT_low_pc(0x00)
	.dwattr $C$DW$40, DW_AT_TI_return
        BX        LR                    ; [DPU_3_PIPE] 
        ; BRANCH OCCURS                  ; [] 
	.dwattr $C$DW$38, DW_AT_TI_end_file("../esp8266.c")
	.dwattr $C$DW$38, DW_AT_TI_end_line(0x93)
	.dwattr $C$DW$38, DW_AT_TI_end_column(0x01)
	.dwendentry
	.dwendtag $C$DW$38

	.sect	".text"
	.clink
	.thumbfunc ESP8266_Init
	.thumb
	.global	ESP8266_Init

$C$DW$41	.dwtag  DW_TAG_subprogram, DW_AT_name("ESP8266_Init")
	.dwattr $C$DW$41, DW_AT_low_pc(ESP8266_Init)
	.dwattr $C$DW$41, DW_AT_high_pc(0x00)
	.dwattr $C$DW$41, DW_AT_TI_symbol_name("ESP8266_Init")
	.dwattr $C$DW$41, DW_AT_external
	.dwattr $C$DW$41, DW_AT_TI_begin_file("../esp8266.c")
	.dwattr $C$DW$41, DW_AT_TI_begin_line(0x9c)
	.dwattr $C$DW$41, DW_AT_TI_begin_column(0x06)
	.dwattr $C$DW$41, DW_AT_decl_file("../esp8266.c")
	.dwattr $C$DW$41, DW_AT_decl_line(0x9c)
	.dwattr $C$DW$41, DW_AT_decl_column(0x06)
	.dwattr $C$DW$41, DW_AT_TI_max_frame_size(0x08)
	.dwpsn	file "../esp8266.c",line 156,column 24,is_stmt,address ESP8266_Init,isa 1

	.dwfde $C$DW$CIE, ESP8266_Init
;----------------------------------------------------------------------
; 156 | void ESP8266_Init(void){                                               
;----------------------------------------------------------------------

;*****************************************************************************
;* FUNCTION NAME: ESP8266_Init                                               *
;*                                                                           *
;*   Regs Modified     : A1,A2,A3,A4,V9,SP,LR,SR,D0,D0_hi,D1,D1_hi,D2,D2_hi, *
;*                           D3,D3_hi,D4,D4_hi,D5,D5_hi,D6,D6_hi,D7,D7_hi,   *
;*                           FPEXC,FPSCR                                     *
;*   Regs Used         : A1,A2,A3,A4,V9,SP,LR,SR,D0,D0_hi,D1,D1_hi,D2,D2_hi, *
;*                           D3,D3_hi,D4,D4_hi,D5,D5_hi,D6,D6_hi,D7,D7_hi,   *
;*                           FPEXC,FPSCR                                     *
;*   Local Frame Size  : 0 Args + 0 Auto + 4 Save = 4 byte                   *
;*****************************************************************************
ESP8266_Init:
;* --------------------------------------------------------------------------*
	.dwcfi	cfa_offset, 0
        PUSH      {A4, LR}              ; [DPU_3_PIPE] 
	.dwcfi	cfa_offset, 8
	.dwcfi	save_reg_to_mem, 14, -4
	.dwcfi	save_reg_to_mem, 3, -8
	.dwpsn	file "../esp8266.c",line 157,column 3,is_stmt,isa 1
;----------------------------------------------------------------------
; 157 | ESP8266InitUART();                                                     
;----------------------------------------------------------------------
$C$DW$42	.dwtag  DW_TAG_TI_branch
	.dwattr $C$DW$42, DW_AT_low_pc(0x00)
	.dwattr $C$DW$42, DW_AT_name("ESP8266InitUART")
	.dwattr $C$DW$42, DW_AT_TI_call
        BL        ESP8266InitUART       ; [DPU_3_PIPE] |157| 
        ; CALL OCCURS {ESP8266InitUART }  ; [] |157| 
	.dwpsn	file "../esp8266.c",line 158,column 3,is_stmt,isa 1
;----------------------------------------------------------------------
; 158 | ESP8266EnableRXInterrupt();                                            
;----------------------------------------------------------------------
$C$DW$43	.dwtag  DW_TAG_TI_branch
	.dwattr $C$DW$43, DW_AT_low_pc(0x00)
	.dwattr $C$DW$43, DW_AT_name("ESP8266EnableRXInterrupt")
	.dwattr $C$DW$43, DW_AT_TI_call
        BL        ESP8266EnableRXInterrupt ; [DPU_3_PIPE] |158| 
        ; CALL OCCURS {ESP8266EnableRXInterrupt }  ; [] |158| 
	.dwpsn	file "../esp8266.c",line 159,column 3,is_stmt,isa 1
;----------------------------------------------------------------------
; 159 | SearchLooking = false;                                                 
;----------------------------------------------------------------------
        LDR       A2, $C$CON15          ; [DPU_3_PIPE] |159| 
        MOVS      A1, #0                ; [DPU_3_PIPE] |159| 
        STRB      A1, [A2, #0]          ; [DPU_3_PIPE] |159| 
	.dwpsn	file "../esp8266.c",line 160,column 3,is_stmt,isa 1
;----------------------------------------------------------------------
; 160 | SearchFound = false;                                                   
;----------------------------------------------------------------------
        LDR       A2, $C$CON16          ; [DPU_3_PIPE] |160| 
        MOVS      A1, #0                ; [DPU_3_PIPE] |160| 
        STRB      A1, [A2, #0]          ; [DPU_3_PIPE] |160| 
	.dwpsn	file "../esp8266.c",line 161,column 3,is_stmt,isa 1
;----------------------------------------------------------------------
; 161 | EnableInterrupts();                                                    
; 162 | // step 1: reset module                                                
;----------------------------------------------------------------------
$C$DW$44	.dwtag  DW_TAG_TI_branch
	.dwattr $C$DW$44, DW_AT_low_pc(0x00)
	.dwattr $C$DW$44, DW_AT_name("EnableInterrupts")
	.dwattr $C$DW$44, DW_AT_TI_call
        BL        EnableInterrupts      ; [DPU_3_PIPE] |161| 
        ; CALL OCCURS {EnableInterrupts }  ; [] |161| 
	.dwpsn	file "../esp8266.c",line 163,column 3,is_stmt,isa 1
;----------------------------------------------------------------------
; 163 | printf("ESP8266 Initialization:\n\r");                                 
;----------------------------------------------------------------------
        ADR       A1, $C$SL1            ; [DPU_3_PIPE] |163| 
$C$DW$45	.dwtag  DW_TAG_TI_branch
	.dwattr $C$DW$45, DW_AT_low_pc(0x00)
	.dwattr $C$DW$45, DW_AT_name("printf")
	.dwattr $C$DW$45, DW_AT_TI_call
        BL        printf                ; [DPU_3_PIPE] |163| 
        ; CALL OCCURS {printf }          ; [] |163| 
	.dwpsn	file "../esp8266.c",line 164,column 3,is_stmt,isa 1
;----------------------------------------------------------------------
; 164 | printf("Reset module... ");                                            
;----------------------------------------------------------------------
        ADR       A1, $C$SL2            ; [DPU_3_PIPE] |164| 
$C$DW$46	.dwtag  DW_TAG_TI_branch
	.dwattr $C$DW$46, DW_AT_low_pc(0x00)
	.dwattr $C$DW$46, DW_AT_name("printf")
	.dwattr $C$DW$46, DW_AT_TI_call
        BL        printf                ; [DPU_3_PIPE] |164| 
        ; CALL OCCURS {printf }          ; [] |164| 
	.dwpsn	file "../esp8266.c",line 165,column 3,is_stmt,isa 1
;----------------------------------------------------------------------
; 165 | ESP8266_EchoResponse = true; // debugging                              
;----------------------------------------------------------------------
        LDR       A2, $C$CON17          ; [DPU_3_PIPE] |165| 
        MOVS      A1, #1                ; [DPU_3_PIPE] |165| 
        STRB      A1, [A2, #0]          ; [DPU_3_PIPE] |165| 
	.dwpsn	file "../esp8266.c",line 166,column 3,is_stmt,isa 1
;----------------------------------------------------------------------
; 166 | if(ESP8266_Reset()==0){                                                
;----------------------------------------------------------------------
$C$DW$47	.dwtag  DW_TAG_TI_branch
	.dwattr $C$DW$47, DW_AT_low_pc(0x00)
	.dwattr $C$DW$47, DW_AT_name("ESP8266_Reset")
	.dwattr $C$DW$47, DW_AT_TI_call
        BL        ESP8266_Reset         ; [DPU_3_PIPE] |166| 
        ; CALL OCCURS {ESP8266_Reset }   ; [] |166| 
        CBNZ      A1, ||$C$L2||         ; [] 
        ; BRANCHCC OCCURS {||$C$L2||}    ; [] |166| 
;* --------------------------------------------------------------------------*
	.dwpsn	file "../esp8266.c",line 167,column 5,is_stmt,isa 1
;----------------------------------------------------------------------
; 167 | printf("Reset failure, could not reset\n\r");                          
;----------------------------------------------------------------------
        ADR       A1, $C$SL3            ; [DPU_3_PIPE] |167| 
$C$DW$48	.dwtag  DW_TAG_TI_branch
	.dwattr $C$DW$48, DW_AT_low_pc(0x00)
	.dwattr $C$DW$48, DW_AT_name("printf")
	.dwattr $C$DW$48, DW_AT_TI_call
        BL        printf                ; [DPU_3_PIPE] |167| 
        ; CALL OCCURS {printf }          ; [] |167| 
	.dwpsn	file "../esp8266.c",line 168,column 11,is_stmt,isa 1
;----------------------------------------------------------------------
; 168 | while(1){};                                                            
;----------------------------------------------------------------------
;* --------------------------------------------------------------------------*
;*   BEGIN LOOP ||$C$L1||
;*
;*   Loop source line                : 168
;*   Loop closing brace source line  : 168
;*   Known Minimum Trip Count        : 1
;*   Known Maximum Trip Count        : 4294967295
;*   Known Max Trip Count Factor     : 1
;* --------------------------------------------------------------------------*
||$C$L1||:    
        B         ||$C$L1||             ; [DPU_3_PIPE] |168| 
        ; BRANCH OCCURS {||$C$L1||}      ; [] |168| 
;* --------------------------------------------------------------------------*
||$C$L2||:    
	.dwpsn	file "../esp8266.c",line 171,column 3,is_stmt,isa 1
;----------------------------------------------------------------------
; 171 | if(ESP8266_SetWifiMode(ESP8266_WIFI_MODE_AP_AND_CLIENT)==0){           
;----------------------------------------------------------------------
        MOVS      A1, #3                ; [DPU_3_PIPE] |171| 
$C$DW$49	.dwtag  DW_TAG_TI_branch
	.dwattr $C$DW$49, DW_AT_low_pc(0x00)
	.dwattr $C$DW$49, DW_AT_name("ESP8266_SetWifiMode")
	.dwattr $C$DW$49, DW_AT_TI_call
        BL        ESP8266_SetWifiMode   ; [DPU_3_PIPE] |171| 
        ; CALL OCCURS {ESP8266_SetWifiMode }  ; [] |171| 
        CBNZ      A1, ||$C$L4||         ; [] 
        ; BRANCHCC OCCURS {||$C$L4||}    ; [] |171| 
;* --------------------------------------------------------------------------*
	.dwpsn	file "../esp8266.c",line 172,column 5,is_stmt,isa 1
;----------------------------------------------------------------------
; 172 | printf("SetWifiMode, could not set mode\n\r");                         
;----------------------------------------------------------------------
        ADR       A1, $C$SL4            ; [DPU_3_PIPE] |172| 
$C$DW$50	.dwtag  DW_TAG_TI_branch
	.dwattr $C$DW$50, DW_AT_low_pc(0x00)
	.dwattr $C$DW$50, DW_AT_name("printf")
	.dwattr $C$DW$50, DW_AT_TI_call
        BL        printf                ; [DPU_3_PIPE] |172| 
        ; CALL OCCURS {printf }          ; [] |172| 
	.dwpsn	file "../esp8266.c",line 173,column 11,is_stmt,isa 1
;----------------------------------------------------------------------
; 173 | while(1){};                                                            
; 177 | //  if(ESP8266_ConfigureAccessPoint(SSID_NAME,PASSKEY,1,SEC_TYPE)==0){ 
; 178 | //    printf("ConfigureAccessPoint error, could not configure AP\n\r");
; 179 | //    while(1){};                                                      
; 180 | //  }                                                                  
;----------------------------------------------------------------------
;* --------------------------------------------------------------------------*
;*   BEGIN LOOP ||$C$L3||
;*
;*   Loop source line                : 173
;*   Loop closing brace source line  : 173
;*   Known Minimum Trip Count        : 1
;*   Known Maximum Trip Count        : 4294967295
;*   Known Max Trip Count Factor     : 1
;* --------------------------------------------------------------------------*
||$C$L3||:    
        B         ||$C$L3||             ; [DPU_3_PIPE] |173| 
        ; BRANCH OCCURS {||$C$L3||}      ; [] |173| 
;* --------------------------------------------------------------------------*
||$C$L4||:    
	.dwpsn	file "../esp8266.c",line 182,column 3,is_stmt,isa 1
;----------------------------------------------------------------------
; 182 | if(ESP8266_JoinAccessPoint(SSID_NAME,PASSKEY)==0){                     
;----------------------------------------------------------------------
        ADR       A1, $C$SL5            ; [DPU_3_PIPE] |182| 
        ADR       A2, $C$SL6            ; [DPU_3_PIPE] |182| 
$C$DW$51	.dwtag  DW_TAG_TI_branch
	.dwattr $C$DW$51, DW_AT_low_pc(0x00)
	.dwattr $C$DW$51, DW_AT_name("ESP8266_JoinAccessPoint")
	.dwattr $C$DW$51, DW_AT_TI_call
        BL        ESP8266_JoinAccessPoint ; [DPU_3_PIPE] |182| 
        ; CALL OCCURS {ESP8266_JoinAccessPoint }  ; [] |182| 
        CBNZ      A1, ||$C$L6||         ; [] 
        ; BRANCHCC OCCURS {||$C$L6||}    ; [] |182| 
;* --------------------------------------------------------------------------*
	.dwpsn	file "../esp8266.c",line 183,column 5,is_stmt,isa 1
;----------------------------------------------------------------------
; 183 | printf("JoinAccessPoint error, could not join AP\n\r");                
;----------------------------------------------------------------------
        ADR       A1, $C$SL7            ; [DPU_3_PIPE] |183| 
$C$DW$52	.dwtag  DW_TAG_TI_branch
	.dwattr $C$DW$52, DW_AT_low_pc(0x00)
	.dwattr $C$DW$52, DW_AT_name("printf")
	.dwattr $C$DW$52, DW_AT_TI_call
        BL        printf                ; [DPU_3_PIPE] |183| 
        ; CALL OCCURS {printf }          ; [] |183| 
	.dwpsn	file "../esp8266.c",line 184,column 11,is_stmt,isa 1
;----------------------------------------------------------------------
; 184 | while(1){};                                                            
;----------------------------------------------------------------------
;* --------------------------------------------------------------------------*
;*   BEGIN LOOP ||$C$L5||
;*
;*   Loop source line                : 184
;*   Loop closing brace source line  : 184
;*   Known Minimum Trip Count        : 1
;*   Known Maximum Trip Count        : 4294967295
;*   Known Max Trip Count Factor     : 1
;* --------------------------------------------------------------------------*
||$C$L5||:    
        B         ||$C$L5||             ; [DPU_3_PIPE] |184| 
        ; BRANCH OCCURS {||$C$L5||}      ; [] |184| 
;* --------------------------------------------------------------------------*
||$C$L6||:    
	.dwpsn	file "../esp8266.c",line 188,column 3,is_stmt,isa 1
;----------------------------------------------------------------------
; 188 | if(ESP8266_GetIPAddress()==0){ // data streamed to UART0, OK           
;----------------------------------------------------------------------
$C$DW$53	.dwtag  DW_TAG_TI_branch
	.dwattr $C$DW$53, DW_AT_low_pc(0x00)
	.dwattr $C$DW$53, DW_AT_name("ESP8266_GetIPAddress")
	.dwattr $C$DW$53, DW_AT_TI_call
        BL        ESP8266_GetIPAddress  ; [DPU_3_PIPE] |188| 
        ; CALL OCCURS {ESP8266_GetIPAddress }  ; [] |188| 
        CBNZ      A1, ||$C$L8||         ; [] 
        ; BRANCHCC OCCURS {||$C$L8||}    ; [] |188| 
;* --------------------------------------------------------------------------*
	.dwpsn	file "../esp8266.c",line 189,column 5,is_stmt,isa 1
;----------------------------------------------------------------------
; 189 | printf("GetIPAddress error, could not get IP address\n\r");            
;----------------------------------------------------------------------
        ADR       A1, $C$SL8            ; [DPU_3_PIPE] |189| 
$C$DW$54	.dwtag  DW_TAG_TI_branch
	.dwattr $C$DW$54, DW_AT_low_pc(0x00)
	.dwattr $C$DW$54, DW_AT_name("printf")
	.dwattr $C$DW$54, DW_AT_TI_call
        BL        printf                ; [DPU_3_PIPE] |189| 
        ; CALL OCCURS {printf }          ; [] |189| 
	.dwpsn	file "../esp8266.c",line 190,column 11,is_stmt,isa 1
;----------------------------------------------------------------------
; 190 | while(1){};                                                            
;----------------------------------------------------------------------
;* --------------------------------------------------------------------------*
;*   BEGIN LOOP ||$C$L7||
;*
;*   Loop source line                : 190
;*   Loop closing brace source line  : 190
;*   Known Minimum Trip Count        : 1
;*   Known Maximum Trip Count        : 4294967295
;*   Known Max Trip Count Factor     : 1
;* --------------------------------------------------------------------------*
||$C$L7||:    
        B         ||$C$L7||             ; [DPU_3_PIPE] |190| 
        ; BRANCH OCCURS {||$C$L7||}      ; [] |190| 
;* --------------------------------------------------------------------------*
||$C$L8||:    
	.dwpsn	file "../esp8266.c",line 193,column 3,is_stmt,isa 1
;----------------------------------------------------------------------
; 193 | if(ESP8266_SetConnectionMux(0)==0){ // single OK                       
;----------------------------------------------------------------------
        MOVS      A1, #0                ; [DPU_3_PIPE] |193| 
$C$DW$55	.dwtag  DW_TAG_TI_branch
	.dwattr $C$DW$55, DW_AT_low_pc(0x00)
	.dwattr $C$DW$55, DW_AT_name("ESP8266_SetConnectionMux")
	.dwattr $C$DW$55, DW_AT_TI_call
        BL        ESP8266_SetConnectionMux ; [DPU_3_PIPE] |193| 
        ; CALL OCCURS {ESP8266_SetConnectionMux }  ; [] |193| 
        CBNZ      A1, ||$C$L10||        ; [] 
        ; BRANCHCC OCCURS {||$C$L10||}   ; [] |193| 
;* --------------------------------------------------------------------------*
	.dwpsn	file "../esp8266.c",line 194,column 5,is_stmt,isa 1
;----------------------------------------------------------------------
; 194 | printf("SetConnectionMux error, could not set connection mux\n\r");    
;----------------------------------------------------------------------
        ADR       A1, $C$SL9            ; [DPU_3_PIPE] |194| 
$C$DW$56	.dwtag  DW_TAG_TI_branch
	.dwattr $C$DW$56, DW_AT_low_pc(0x00)
	.dwattr $C$DW$56, DW_AT_name("printf")
	.dwattr $C$DW$56, DW_AT_TI_call
        BL        printf                ; [DPU_3_PIPE] |194| 
        ; CALL OCCURS {printf }          ; [] |194| 
	.dwpsn	file "../esp8266.c",line 195,column 11,is_stmt,isa 1
;----------------------------------------------------------------------
; 195 | while(1){};                                                            
;----------------------------------------------------------------------
;* --------------------------------------------------------------------------*
;*   BEGIN LOOP ||$C$L9||
;*
;*   Loop source line                : 195
;*   Loop closing brace source line  : 195
;*   Known Minimum Trip Count        : 1
;*   Known Maximum Trip Count        : 4294967295
;*   Known Max Trip Count Factor     : 1
;* --------------------------------------------------------------------------*
||$C$L9||:    
        B         ||$C$L9||             ; [DPU_3_PIPE] |195| 
        ; BRANCH OCCURS {||$C$L9||}      ; [] |195| 
;* --------------------------------------------------------------------------*
||$C$L10||:    
	.dwpsn	file "../esp8266.c",line 198,column 3,is_stmt,isa 1
;----------------------------------------------------------------------
; 198 | if(ESP8266_ListAccessPoints()==0){ // data streamed to UART0, OK       
;----------------------------------------------------------------------
$C$DW$57	.dwtag  DW_TAG_TI_branch
	.dwattr $C$DW$57, DW_AT_low_pc(0x00)
	.dwattr $C$DW$57, DW_AT_name("ESP8266_ListAccessPoints")
	.dwattr $C$DW$57, DW_AT_TI_call
        BL        ESP8266_ListAccessPoints ; [DPU_3_PIPE] |198| 
        ; CALL OCCURS {ESP8266_ListAccessPoints }  ; [] |198| 
        CBNZ      A1, ||$C$L12||        ; [] 
        ; BRANCHCC OCCURS {||$C$L12||}   ; [] |198| 
;* --------------------------------------------------------------------------*
	.dwpsn	file "../esp8266.c",line 199,column 5,is_stmt,isa 1
;----------------------------------------------------------------------
; 199 | printf("ListAccessPoints, could not list access points\n\r");          
;----------------------------------------------------------------------
        ADR       A1, $C$SL10           ; [DPU_3_PIPE] |199| 
$C$DW$58	.dwtag  DW_TAG_TI_branch
	.dwattr $C$DW$58, DW_AT_low_pc(0x00)
	.dwattr $C$DW$58, DW_AT_name("printf")
	.dwattr $C$DW$58, DW_AT_TI_call
        BL        printf                ; [DPU_3_PIPE] |199| 
        ; CALL OCCURS {printf }          ; [] |199| 
	.dwpsn	file "../esp8266.c",line 200,column 11,is_stmt,isa 1
;----------------------------------------------------------------------
; 200 | while(1){};                                                            
;----------------------------------------------------------------------
;* --------------------------------------------------------------------------*
;*   BEGIN LOOP ||$C$L11||
;*
;*   Loop source line                : 200
;*   Loop closing brace source line  : 200
;*   Known Minimum Trip Count        : 1
;*   Known Maximum Trip Count        : 4294967295
;*   Known Max Trip Count Factor     : 1
;* --------------------------------------------------------------------------*
||$C$L11||:    
        B         ||$C$L11||            ; [DPU_3_PIPE] |200| 
        ; BRANCH OCCURS {||$C$L11||}     ; [] |200| 
;* --------------------------------------------------------------------------*
||$C$L12||:    
	.dwpsn	file "../esp8266.c",line 202,column 3,is_stmt,isa 1
;----------------------------------------------------------------------
; 202 | if(ESP8266_SetDataTransmissionMode(0)==0){ // data streamed to UART0, O
;     | K                                                                      
;----------------------------------------------------------------------
        MOVS      A1, #0                ; [DPU_3_PIPE] |202| 
$C$DW$59	.dwtag  DW_TAG_TI_branch
	.dwattr $C$DW$59, DW_AT_low_pc(0x00)
	.dwattr $C$DW$59, DW_AT_name("ESP8266_SetDataTransmissionMode")
	.dwattr $C$DW$59, DW_AT_TI_call
        BL        ESP8266_SetDataTransmissionMode ; [DPU_3_PIPE] |202| 
        ; CALL OCCURS {ESP8266_SetDataTransmissionMode }  ; [] |202| 
        CBNZ      A1, ||$C$L14||        ; [] 
        ; BRANCHCC OCCURS {||$C$L14||}   ; [] |202| 
;* --------------------------------------------------------------------------*
	.dwpsn	file "../esp8266.c",line 203,column 5,is_stmt,isa 1
;----------------------------------------------------------------------
; 203 | printf("SetDataTransmissionMode, could not make connection\n\r");      
;----------------------------------------------------------------------
        ADR       A1, $C$SL11           ; [DPU_3_PIPE] |203| 
$C$DW$60	.dwtag  DW_TAG_TI_branch
	.dwattr $C$DW$60, DW_AT_low_pc(0x00)
	.dwattr $C$DW$60, DW_AT_name("printf")
	.dwattr $C$DW$60, DW_AT_TI_call
        BL        printf                ; [DPU_3_PIPE] |203| 
        ; CALL OCCURS {printf }          ; [] |203| 
	.dwpsn	file "../esp8266.c",line 204,column 11,is_stmt,isa 1
;----------------------------------------------------------------------
; 204 | while(1){};                                                            
;----------------------------------------------------------------------
;* --------------------------------------------------------------------------*
;*   BEGIN LOOP ||$C$L13||
;*
;*   Loop source line                : 204
;*   Loop closing brace source line  : 204
;*   Known Minimum Trip Count        : 1
;*   Known Maximum Trip Count        : 4294967295
;*   Known Max Trip Count Factor     : 1
;* --------------------------------------------------------------------------*
||$C$L13||:    
        B         ||$C$L13||            ; [DPU_3_PIPE] |204| 
        ; BRANCH OCCURS {||$C$L13||}     ; [] |204| 
;* --------------------------------------------------------------------------*
||$C$L14||:    
	.dwpsn	file "../esp8266.c",line 206,column 3,is_stmt,isa 1
;----------------------------------------------------------------------
; 206 | ESP8266_InputProcessingEnabled = false; // not a server                
;----------------------------------------------------------------------
        LDR       A2, $C$CON18          ; [DPU_3_PIPE] |206| 
        MOVS      A1, #0                ; [DPU_3_PIPE] |206| 
        STRB      A1, [A2, #0]          ; [DPU_3_PIPE] |206| 
	.dwpsn	file "../esp8266.c",line 208,column 1,is_stmt,isa 1
$C$DW$61	.dwtag  DW_TAG_TI_branch
	.dwattr $C$DW$61, DW_AT_low_pc(0x00)
	.dwattr $C$DW$61, DW_AT_TI_return
        POP       {A4, PC}              ; [DPU_3_PIPE] 
	.dwcfi	cfa_offset, 0
        ; BRANCH OCCURS                  ; [] 
	.dwattr $C$DW$41, DW_AT_TI_end_file("../esp8266.c")
	.dwattr $C$DW$41, DW_AT_TI_end_line(0xd0)
	.dwattr $C$DW$41, DW_AT_TI_end_column(0x01)
	.dwendentry
	.dwendtag $C$DW$41

	.sect	".text"
	.clink
	.thumbfunc UART1_Handler
	.thumb
	.global	UART1_Handler

$C$DW$62	.dwtag  DW_TAG_subprogram, DW_AT_name("UART1_Handler")
	.dwattr $C$DW$62, DW_AT_low_pc(UART1_Handler)
	.dwattr $C$DW$62, DW_AT_high_pc(0x00)
	.dwattr $C$DW$62, DW_AT_TI_symbol_name("UART1_Handler")
	.dwattr $C$DW$62, DW_AT_external
	.dwattr $C$DW$62, DW_AT_TI_begin_file("../esp8266.c")
	.dwattr $C$DW$62, DW_AT_TI_begin_line(0xd9)
	.dwattr $C$DW$62, DW_AT_TI_begin_column(0x06)
	.dwattr $C$DW$62, DW_AT_decl_file("../esp8266.c")
	.dwattr $C$DW$62, DW_AT_decl_line(0xd9)
	.dwattr $C$DW$62, DW_AT_decl_column(0x06)
	.dwattr $C$DW$62, DW_AT_TI_max_frame_size(0x08)
	.dwpsn	file "../esp8266.c",line 217,column 25,is_stmt,address UART1_Handler,isa 1

	.dwfde $C$DW$CIE, UART1_Handler
;----------------------------------------------------------------------
; 217 | void UART1_Handler(void){                                              
;----------------------------------------------------------------------

;*****************************************************************************
;* FUNCTION NAME: UART1_Handler                                              *
;*                                                                           *
;*   Regs Modified     : A1,A2,A3,A4,V9,SP,LR,SR,D0,D0_hi,D1,D1_hi,D2,D2_hi, *
;*                           D3,D3_hi,D4,D4_hi,D5,D5_hi,D6,D6_hi,D7,D7_hi,   *
;*                           FPEXC,FPSCR                                     *
;*   Regs Used         : A1,A2,A3,A4,V9,SP,LR,SR,D0,D0_hi,D1,D1_hi,D2,D2_hi, *
;*                           D3,D3_hi,D4,D4_hi,D5,D5_hi,D6,D6_hi,D7,D7_hi,   *
;*                           FPEXC,FPSCR                                     *
;*   Local Frame Size  : 0 Args + 0 Auto + 4 Save = 4 byte                   *
;*****************************************************************************
UART1_Handler:
;* --------------------------------------------------------------------------*
	.dwcfi	cfa_offset, 0
        PUSH      {A4, LR}              ; [DPU_3_PIPE] 
	.dwcfi	cfa_offset, 8
	.dwcfi	save_reg_to_mem, 14, -4
	.dwcfi	save_reg_to_mem, 3, -8
	.dwpsn	file "../esp8266.c",line 218,column 3,is_stmt,isa 1
;----------------------------------------------------------------------
; 218 | if(UART1_RIS_R & UART_RIS_RXRIS){   // rx fifo >= 1/8 full             
;----------------------------------------------------------------------
        LDR       A1, $C$CON19          ; [DPU_3_PIPE] |218| 
        LDR       A1, [A1, #0]          ; [DPU_3_PIPE] |218| 
        LSRS      A1, A1, #5            ; [DPU_3_PIPE] |218| 
        BCC       ||$C$L15||            ; [DPU_3_PIPE] |218| 
        ; BRANCHCC OCCURS {||$C$L15||}   ; [] |218| 
;* --------------------------------------------------------------------------*
	.dwpsn	file "../esp8266.c",line 219,column 5,is_stmt,isa 1
;----------------------------------------------------------------------
; 219 | UART1_ICR_R = UART_ICR_RXIC;      // acknowledge interrupt             
;----------------------------------------------------------------------
        LDR       A2, $C$CON20          ; [DPU_3_PIPE] |219| 
        MOVS      A1, #16               ; [DPU_3_PIPE] |219| 
        STR       A1, [A2, #0]          ; [DPU_3_PIPE] |219| 
	.dwpsn	file "../esp8266.c",line 220,column 5,is_stmt,isa 1
;----------------------------------------------------------------------
; 220 | ESP8266FIFOtoBuffer();                                                 
;----------------------------------------------------------------------
$C$DW$63	.dwtag  DW_TAG_TI_branch
	.dwattr $C$DW$63, DW_AT_low_pc(0x00)
	.dwattr $C$DW$63, DW_AT_name("ESP8266FIFOtoBuffer")
	.dwattr $C$DW$63, DW_AT_TI_call
        BL        ESP8266FIFOtoBuffer   ; [DPU_3_PIPE] |220| 
        ; CALL OCCURS {ESP8266FIFOtoBuffer }  ; [] |220| 
;* --------------------------------------------------------------------------*
||$C$L15||:    
	.dwpsn	file "../esp8266.c",line 222,column 3,is_stmt,isa 1
;----------------------------------------------------------------------
; 222 | if(UART1_RIS_R & UART_RIS_RTRIS){   // receiver timed out              
;----------------------------------------------------------------------
        LDR       A1, $C$CON19          ; [DPU_3_PIPE] |222| 
        LDR       A1, [A1, #0]          ; [DPU_3_PIPE] |222| 
        LSRS      A1, A1, #7            ; [DPU_3_PIPE] |222| 
        BCC       ||$C$L16||            ; [DPU_3_PIPE] |222| 
        ; BRANCHCC OCCURS {||$C$L16||}   ; [] |222| 
;* --------------------------------------------------------------------------*
	.dwpsn	file "../esp8266.c",line 223,column 5,is_stmt,isa 1
;----------------------------------------------------------------------
; 223 | UART1_ICR_R = UART_ICR_RTIC;      // acknowledge receiver time         
;----------------------------------------------------------------------
        LDR       A2, $C$CON20          ; [DPU_3_PIPE] |223| 
        MOVS      A1, #64               ; [DPU_3_PIPE] |223| 
        STR       A1, [A2, #0]          ; [DPU_3_PIPE] |223| 
	.dwpsn	file "../esp8266.c",line 224,column 5,is_stmt,isa 1
;----------------------------------------------------------------------
; 224 | ESP8266FIFOtoBuffer();                                                 
;----------------------------------------------------------------------
$C$DW$64	.dwtag  DW_TAG_TI_branch
	.dwattr $C$DW$64, DW_AT_low_pc(0x00)
	.dwattr $C$DW$64, DW_AT_name("ESP8266FIFOtoBuffer")
	.dwattr $C$DW$64, DW_AT_TI_call
        BL        ESP8266FIFOtoBuffer   ; [DPU_3_PIPE] |224| 
        ; CALL OCCURS {ESP8266FIFOtoBuffer }  ; [] |224| 
	.dwpsn	file "../esp8266.c",line 226,column 1,is_stmt,isa 1
;* --------------------------------------------------------------------------*
||$C$L16||:    
$C$DW$65	.dwtag  DW_TAG_TI_branch
	.dwattr $C$DW$65, DW_AT_low_pc(0x00)
	.dwattr $C$DW$65, DW_AT_TI_return
        POP       {A4, PC}              ; [DPU_3_PIPE] 
	.dwcfi	cfa_offset, 0
        ; BRANCH OCCURS                  ; [] 
	.dwattr $C$DW$62, DW_AT_TI_end_file("../esp8266.c")
	.dwattr $C$DW$62, DW_AT_TI_end_line(0xe2)
	.dwattr $C$DW$62, DW_AT_TI_end_column(0x01)
	.dwendentry
	.dwendtag $C$DW$62

;******************************************************************************
;* CONSTANT TABLE                                                             *
;******************************************************************************
	.sect	".text"
	.align	4
||$C$CON1||:	.bits	1074783768,32
	.align	4
||$C$CON2||:	.bits	1074783752,32
	.align	4
||$C$CON3||:	.bits	1073763360,32
	.align	4
||$C$CON4||:	.bits	1073763328,32
	.align	4
||$C$CON5||:	.bits	1073763628,32
	.align	4
||$C$CON6||:	.bits	-15728896,32
	.sect	".text"
	.clink
	.thumbfunc ESP8266FIFOtoBuffer
	.thumb
	.global	ESP8266FIFOtoBuffer

$C$DW$66	.dwtag  DW_TAG_subprogram, DW_AT_name("ESP8266FIFOtoBuffer")
	.dwattr $C$DW$66, DW_AT_low_pc(ESP8266FIFOtoBuffer)
	.dwattr $C$DW$66, DW_AT_high_pc(0x00)
	.dwattr $C$DW$66, DW_AT_TI_symbol_name("ESP8266FIFOtoBuffer")
	.dwattr $C$DW$66, DW_AT_external
	.dwattr $C$DW$66, DW_AT_TI_begin_file("../esp8266.c")
	.dwattr $C$DW$66, DW_AT_TI_begin_line(0xec)
	.dwattr $C$DW$66, DW_AT_TI_begin_column(0x06)
	.dwattr $C$DW$66, DW_AT_decl_file("../esp8266.c")
	.dwattr $C$DW$66, DW_AT_decl_line(0xec)
	.dwattr $C$DW$66, DW_AT_decl_column(0x06)
	.dwattr $C$DW$66, DW_AT_TI_max_frame_size(0x08)
	.dwpsn	file "../esp8266.c",line 236,column 31,is_stmt,address ESP8266FIFOtoBuffer,isa 1

	.dwfde $C$DW$CIE, ESP8266FIFOtoBuffer
;----------------------------------------------------------------------
; 236 | void ESP8266FIFOtoBuffer(void){                                        
; 237 | char letter;                                                           
;----------------------------------------------------------------------

;*****************************************************************************
;* FUNCTION NAME: ESP8266FIFOtoBuffer                                        *
;*                                                                           *
;*   Regs Modified     : A1,A2,A3,A4,V9,SP,LR,SR,D0,D0_hi,D1,D1_hi,D2,D2_hi, *
;*                           D3,D3_hi,D4,D4_hi,D5,D5_hi,D6,D6_hi,D7,D7_hi,   *
;*                           FPEXC,FPSCR                                     *
;*   Regs Used         : A1,A2,A3,A4,V9,SP,LR,SR,D0,D0_hi,D1,D1_hi,D2,D2_hi, *
;*                           D3,D3_hi,D4,D4_hi,D5,D5_hi,D6,D6_hi,D7,D7_hi,   *
;*                           FPEXC,FPSCR                                     *
;*   Local Frame Size  : 0 Args + 4 Auto + 4 Save = 8 byte                   *
;*****************************************************************************
ESP8266FIFOtoBuffer:
;* --------------------------------------------------------------------------*
	.dwcfi	cfa_offset, 0
        PUSH      {A4, LR}              ; [DPU_3_PIPE] 
	.dwcfi	cfa_offset, 8
	.dwcfi	save_reg_to_mem, 14, -4
	.dwcfi	save_reg_to_mem, 3, -8
$C$DW$67	.dwtag  DW_TAG_variable, DW_AT_name("letter")
	.dwattr $C$DW$67, DW_AT_TI_symbol_name("letter")
	.dwattr $C$DW$67, DW_AT_type(*$C$DW$T$6)
	.dwattr $C$DW$67, DW_AT_location[DW_OP_breg13 0]
	.dwpsn	file "../esp8266.c",line 238,column 3,is_stmt,isa 1
;----------------------------------------------------------------------
; 238 | while((UART1_FR_R&UART_FR_RXFE) == 0){                                 
;----------------------------------------------------------------------
        B         ||$C$L21||            ; [DPU_3_PIPE] |238| 
        ; BRANCH OCCURS {||$C$L21||}     ; [] |238| 
;* --------------------------------------------------------------------------*
||$C$L17||:    
	.dwpsn	file "../esp8266.c",line 239,column 5,is_stmt,isa 1
;----------------------------------------------------------------------
; 239 | letter = UART1_DR_R;        // retrieve char from FIFO                 
;----------------------------------------------------------------------
        LDR       A1, $C$CON21          ; [DPU_3_PIPE] |239| 
        LDR       A1, [A1, #0]          ; [DPU_3_PIPE] |239| 
        STRB      A1, [SP, #0]          ; [DPU_3_PIPE] |239| 
	.dwpsn	file "../esp8266.c",line 240,column 5,is_stmt,isa 1
;----------------------------------------------------------------------
; 240 | if(ESP8266_EchoResponse){                                              
;----------------------------------------------------------------------
        LDR       A1, $C$CON17          ; [DPU_3_PIPE] |240| 
        LDRB      A1, [A1, #0]          ; [DPU_3_PIPE] |240| 
        CBZ       A1, ||$C$L18||        ; [] 
        ; BRANCHCC OCCURS {||$C$L18||}   ; [] |240| 
;* --------------------------------------------------------------------------*
	.dwpsn	file "../esp8266.c",line 241,column 7,is_stmt,isa 1
;----------------------------------------------------------------------
; 241 | UART_OutCharNonBlock(letter); // echo                                  
;----------------------------------------------------------------------
        LDRB      A1, [SP, #0]          ; [DPU_3_PIPE] |241| 
$C$DW$68	.dwtag  DW_TAG_TI_branch
	.dwattr $C$DW$68, DW_AT_low_pc(0x00)
	.dwattr $C$DW$68, DW_AT_name("UART_OutCharNonBlock")
	.dwattr $C$DW$68, DW_AT_TI_call
        BL        UART_OutCharNonBlock  ; [DPU_3_PIPE] |241| 
        ; CALL OCCURS {UART_OutCharNonBlock }  ; [] |241| 
;* --------------------------------------------------------------------------*
||$C$L18||:    
	.dwpsn	file "../esp8266.c",line 243,column 5,is_stmt,isa 1
;----------------------------------------------------------------------
; 243 | if(letter != '\r'){                                                    
;----------------------------------------------------------------------
        LDRB      A1, [SP, #0]          ; [DPU_3_PIPE] |243| 
        CMP       A1, #13               ; [DPU_3_PIPE] |243| 
        BEQ       ||$C$L21||            ; [DPU_3_PIPE] |243| 
        ; BRANCHCC OCCURS {||$C$L21||}   ; [] |243| 
;* --------------------------------------------------------------------------*
	.dwpsn	file "../esp8266.c",line 244,column 7,is_stmt,isa 1
;----------------------------------------------------------------------
; 244 | if(ESP8266_RXBufferIndex < (ESP8266_RXBuffer_SIZE-1)){ // space for two
;     | ?                                                                      
;----------------------------------------------------------------------
        LDR       A1, $C$CON22          ; [DPU_3_PIPE] |244| 
        LDR       A1, [A1, #0]          ; [DPU_3_PIPE] |244| 
        MOV       A2, #1023             ; [DPU_3_PIPE] |244| 
        CMP       A2, A1                ; [DPU_3_PIPE] |244| 
        BLS       ||$C$L19||            ; [DPU_3_PIPE] |244| 
        ; BRANCHCC OCCURS {||$C$L19||}   ; [] |244| 
;* --------------------------------------------------------------------------*
	.dwpsn	file "../esp8266.c",line 245,column 9,is_stmt,isa 1
;----------------------------------------------------------------------
; 245 | ESP8266_RXBuffer[ESP8266_RXBufferIndex] = letter; // put char into buff
;     | er                                                                     
;----------------------------------------------------------------------
        LDR       A2, $C$CON22          ; [DPU_3_PIPE] |245| 
        LDR       A3, $C$CON23          ; [DPU_3_PIPE] |245| 
        LDRB      A1, [SP, #0]          ; [DPU_3_PIPE] |245| 
        LDR       A2, [A2, #0]          ; [DPU_3_PIPE] |245| 
        STRB      A1, [A3, +A2]         ; [DPU_3_PIPE] |245| 
	.dwpsn	file "../esp8266.c",line 246,column 9,is_stmt,isa 1
;----------------------------------------------------------------------
; 246 | ESP8266_RXBufferIndex++; // increment buffer index                     
;----------------------------------------------------------------------
        LDR       A2, $C$CON22          ; [DPU_3_PIPE] |246| 
        LDR       A1, [A2, #0]          ; [DPU_3_PIPE] |246| 
        ADDS      A1, A1, #1            ; [DPU_3_PIPE] |246| 
        STR       A1, [A2, #0]          ; [DPU_3_PIPE] |246| 
;* --------------------------------------------------------------------------*
||$C$L19||:    
	.dwpsn	file "../esp8266.c",line 248,column 7,is_stmt,isa 1
;----------------------------------------------------------------------
; 248 | if(letter == '\n'){                                                    
;----------------------------------------------------------------------
        LDRB      A1, [SP, #0]          ; [DPU_3_PIPE] |248| 
        CMP       A1, #10               ; [DPU_3_PIPE] |248| 
        BNE       ||$C$L21||            ; [DPU_3_PIPE] |248| 
        ; BRANCHCC OCCURS {||$C$L21||}   ; [] |248| 
;* --------------------------------------------------------------------------*
	.dwpsn	file "../esp8266.c",line 249,column 9,is_stmt,isa 1
;----------------------------------------------------------------------
; 249 | ESP8266_RXBuffer[ESP8266_RXBufferIndex] = 0;                           
;----------------------------------------------------------------------
        LDR       A1, $C$CON22          ; [DPU_3_PIPE] |249| 
        LDR       A3, $C$CON23          ; [DPU_3_PIPE] |249| 
        LDR       A1, [A1, #0]          ; [DPU_3_PIPE] |249| 
        MOVS      A2, #0                ; [DPU_3_PIPE] |249| 
        STRB      A2, [A3, +A1]         ; [DPU_3_PIPE] |249| 
	.dwpsn	file "../esp8266.c",line 250,column 9,is_stmt,isa 1
;----------------------------------------------------------------------
; 250 | if(SearchLooking){                                                     
;----------------------------------------------------------------------
        LDR       A1, $C$CON15          ; [DPU_3_PIPE] |250| 
        LDRB      A1, [A1, #0]          ; [DPU_3_PIPE] |250| 
        CBZ       A1, ||$C$L20||        ; [] 
        ; BRANCHCC OCCURS {||$C$L20||}   ; [] |250| 
;* --------------------------------------------------------------------------*
	.dwpsn	file "../esp8266.c",line 251,column 11,is_stmt,isa 1
;----------------------------------------------------------------------
; 251 | if(strstr(ESP8266_RXBuffer,SearchString)){                             
;----------------------------------------------------------------------
        LDR       A1, $C$CON23          ; [DPU_3_PIPE] |251| 
        LDR       A2, $C$CON24          ; [DPU_3_PIPE] |251| 
$C$DW$69	.dwtag  DW_TAG_TI_branch
	.dwattr $C$DW$69, DW_AT_low_pc(0x00)
	.dwattr $C$DW$69, DW_AT_name("strstr")
	.dwattr $C$DW$69, DW_AT_TI_call
        BL        strstr                ; [DPU_3_PIPE] |251| 
        ; CALL OCCURS {strstr }          ; [] |251| 
        CBZ       A1, ||$C$L20||        ; [] 
        ; BRANCHCC OCCURS {||$C$L20||}   ; [] |251| 
;* --------------------------------------------------------------------------*
	.dwpsn	file "../esp8266.c",line 252,column 13,is_stmt,isa 1
;----------------------------------------------------------------------
; 252 | SearchLooking = false;                                                 
;----------------------------------------------------------------------
        LDR       A2, $C$CON15          ; [DPU_3_PIPE] |252| 
        MOVS      A1, #0                ; [DPU_3_PIPE] |252| 
        STRB      A1, [A2, #0]          ; [DPU_3_PIPE] |252| 
	.dwpsn	file "../esp8266.c",line 253,column 13,is_stmt,isa 1
;----------------------------------------------------------------------
; 253 | SearchFound = true;                                                    
;----------------------------------------------------------------------
        LDR       A2, $C$CON16          ; [DPU_3_PIPE] |253| 
        MOVS      A1, #1                ; [DPU_3_PIPE] |253| 
        STRB      A1, [A2, #0]          ; [DPU_3_PIPE] |253| 
;* --------------------------------------------------------------------------*
||$C$L20||:    
	.dwpsn	file "../esp8266.c",line 256,column 9,is_stmt,isa 1
;----------------------------------------------------------------------
; 256 | ESP8266_RXBufferIndex = 0;                                             
; 257 | //        ESP8266_ProcessBuffer = true;                                
; 258 | //        if(ESP8266_InputProcessingEnabled){                          
; 259 | //          ESP8266_ProcessInput((const char*)ESP8266_RXBuffer);       
; 260 | //        }                                                            
; 261 | //        if(ESP8266_EchoResponse){int i=0;                            
; 262 | //          while(letter==ESP8266_RXBuffer[i]){                        
; 263 | //            UART_OutChar(letter); // echo                            
; 264 | //            i++;                                                     
; 265 | //          }                                                          
; 266 | //        }                                                            
;----------------------------------------------------------------------
        LDR       A2, $C$CON22          ; [DPU_3_PIPE] |256| 
        MOVS      A1, #0                ; [DPU_3_PIPE] |256| 
        STR       A1, [A2, #0]          ; [DPU_3_PIPE] |256| 
;* --------------------------------------------------------------------------*
;*   BEGIN LOOP ||$C$L21||
;* --------------------------------------------------------------------------*
||$C$L21||:    
	.dwpsn	file "../esp8266.c",line 238,column 9,is_stmt,isa 1
        LDR       A1, $C$CON25          ; [DPU_3_PIPE] |238| 
        LDR       A1, [A1, #0]          ; [DPU_3_PIPE] |238| 
        LSRS      A1, A1, #5            ; [DPU_3_PIPE] |238| 
        BCC       ||$C$L17||            ; [DPU_3_PIPE] |238| 
        ; BRANCHCC OCCURS {||$C$L17||}   ; [] |238| 
;* --------------------------------------------------------------------------*
	.dwpsn	file "../esp8266.c",line 270,column 1,is_stmt,isa 1
$C$DW$70	.dwtag  DW_TAG_TI_branch
	.dwattr $C$DW$70, DW_AT_low_pc(0x00)
	.dwattr $C$DW$70, DW_AT_TI_return
        POP       {A4, PC}              ; [DPU_3_PIPE] 
	.dwcfi	cfa_offset, 0
        ; BRANCH OCCURS                  ; [] 
	.dwattr $C$DW$66, DW_AT_TI_end_file("../esp8266.c")
	.dwattr $C$DW$66, DW_AT_TI_end_line(0x10e)
	.dwattr $C$DW$66, DW_AT_TI_end_column(0x01)
	.dwendentry
	.dwendtag $C$DW$66

;******************************************************************************
;* CONSTANT TABLE                                                             *
;******************************************************************************
	.sect	".text"
	.align	4
||$C$CON7||:	.bits	1073763612,32
	.align	4
||$C$CON8||:	.bits	1073763324,32
	.align	4
||$C$CON9||:	.bits	1073795120,32
	.align	4
||$C$CON10||:	.bits	1073795108,32
	.align	4
||$C$CON11||:	.bits	1073795112,32
	.align	4
||$C$CON12||:	.bits	1073795116,32
	.align	4
||$C$CON13||:	.bits	1073795124,32
	.align	4
||$C$CON14||:	.bits	1073795128,32
	.sect	".text"
	.clink
	.thumbfunc ESP8266SendCommand
	.thumb
	.global	ESP8266SendCommand

$C$DW$71	.dwtag  DW_TAG_subprogram, DW_AT_name("ESP8266SendCommand")
	.dwattr $C$DW$71, DW_AT_low_pc(ESP8266SendCommand)
	.dwattr $C$DW$71, DW_AT_high_pc(0x00)
	.dwattr $C$DW$71, DW_AT_TI_symbol_name("ESP8266SendCommand")
	.dwattr $C$DW$71, DW_AT_external
	.dwattr $C$DW$71, DW_AT_TI_begin_file("../esp8266.c")
	.dwattr $C$DW$71, DW_AT_TI_begin_line(0x117)
	.dwattr $C$DW$71, DW_AT_TI_begin_column(0x06)
	.dwattr $C$DW$71, DW_AT_decl_file("../esp8266.c")
	.dwattr $C$DW$71, DW_AT_decl_line(0x117)
	.dwattr $C$DW$71, DW_AT_decl_column(0x06)
	.dwattr $C$DW$71, DW_AT_TI_max_frame_size(0x10)
	.dwpsn	file "../esp8266.c",line 279,column 49,is_stmt,address ESP8266SendCommand,isa 1

	.dwfde $C$DW$CIE, ESP8266SendCommand
$C$DW$72	.dwtag  DW_TAG_formal_parameter, DW_AT_name("inputString")
	.dwattr $C$DW$72, DW_AT_TI_symbol_name("inputString")
	.dwattr $C$DW$72, DW_AT_type(*$C$DW$T$36)
	.dwattr $C$DW$72, DW_AT_location[DW_OP_reg0]

;*****************************************************************************
;* FUNCTION NAME: ESP8266SendCommand                                         *
;*                                                                           *
;*   Regs Modified     : A1,A2,A3,A4,V9,SP,LR,SR,D0,D0_hi,D1,D1_hi,D2,D2_hi, *
;*                           D3,D3_hi,D4,D4_hi,D5,D5_hi,D6,D6_hi,D7,D7_hi,   *
;*                           FPEXC,FPSCR                                     *
;*   Regs Used         : A1,A2,A3,A4,V9,SP,LR,SR,D0,D0_hi,D1,D1_hi,D2,D2_hi, *
;*                           D3,D3_hi,D4,D4_hi,D5,D5_hi,D6,D6_hi,D7,D7_hi,   *
;*                           FPEXC,FPSCR                                     *
;*   Local Frame Size  : 0 Args + 8 Auto + 4 Save = 12 byte                  *
;*****************************************************************************
ESP8266SendCommand:
;* --------------------------------------------------------------------------*
	.dwcfi	cfa_offset, 0
        PUSH      {A2, A3, A4, LR}      ; [DPU_3_PIPE] 
	.dwcfi	cfa_offset, 16
	.dwcfi	save_reg_to_mem, 14, -4
	.dwcfi	save_reg_to_mem, 3, -8
	.dwcfi	save_reg_to_mem, 2, -12
	.dwcfi	save_reg_to_mem, 1, -16
$C$DW$73	.dwtag  DW_TAG_variable, DW_AT_name("inputString")
	.dwattr $C$DW$73, DW_AT_TI_symbol_name("inputString")
	.dwattr $C$DW$73, DW_AT_type(*$C$DW$T$36)
	.dwattr $C$DW$73, DW_AT_location[DW_OP_breg13 0]
$C$DW$74	.dwtag  DW_TAG_variable, DW_AT_name("index")
	.dwattr $C$DW$74, DW_AT_TI_symbol_name("index")
	.dwattr $C$DW$74, DW_AT_type(*$C$DW$T$10)
	.dwattr $C$DW$74, DW_AT_location[DW_OP_breg13 4]
;----------------------------------------------------------------------
; 279 | void ESP8266SendCommand(const char* inputString){                      
;----------------------------------------------------------------------
        STR       A1, [SP, #0]          ; [DPU_3_PIPE] |279| 
	.dwpsn	file "../esp8266.c",line 280,column 13,is_stmt,isa 1
;----------------------------------------------------------------------
; 280 | int index = 0;                                                         
;----------------------------------------------------------------------
        MOVS      A1, #0                ; [DPU_3_PIPE] |280| 
        STR       A1, [SP, #4]          ; [DPU_3_PIPE] |280| 
	.dwpsn	file "../esp8266.c",line 281,column 3,is_stmt,isa 1
;----------------------------------------------------------------------
; 281 | while (inputString[index] != 0){                                       
;----------------------------------------------------------------------
        B         ||$C$L23||            ; [DPU_3_PIPE] |281| 
        ; BRANCH OCCURS {||$C$L23||}     ; [] |281| 
;* --------------------------------------------------------------------------*
||$C$L22||:    
	.dwpsn	file "../esp8266.c",line 282,column 5,is_stmt,isa 1
;----------------------------------------------------------------------
; 282 | ESP8266PrintChar(inputString[index++]);                                
;----------------------------------------------------------------------
        LDR       A1, [SP, #4]          ; [DPU_3_PIPE] |282| 
        LDR       A2, [SP, #0]          ; [DPU_3_PIPE] |282| 
        ADDS      A3, A1, #1            ; [DPU_3_PIPE] |282| 
        STR       A3, [SP, #4]          ; [DPU_3_PIPE] |282| 
        LDRB      A1, [A1, +A2]         ; [DPU_3_PIPE] |282| 
$C$DW$75	.dwtag  DW_TAG_TI_branch
	.dwattr $C$DW$75, DW_AT_low_pc(0x00)
	.dwattr $C$DW$75, DW_AT_name("ESP8266PrintChar")
	.dwattr $C$DW$75, DW_AT_TI_call
        BL        ESP8266PrintChar      ; [DPU_3_PIPE] |282| 
        ; CALL OCCURS {ESP8266PrintChar }  ; [] |282| 
;* --------------------------------------------------------------------------*
;*   BEGIN LOOP ||$C$L23||
;* --------------------------------------------------------------------------*
||$C$L23||:    
	.dwpsn	file "../esp8266.c",line 281,column 10,is_stmt,isa 1
        LDR       A1, [SP, #0]          ; [DPU_3_PIPE] |281| 
        LDR       A2, [SP, #4]          ; [DPU_3_PIPE] |281| 
        LDRB      A1, [A2, +A1]         ; [DPU_3_PIPE] |281| 
        CMP       A1, #0                ; [DPU_3_PIPE] |281| 
        BNE       ||$C$L22||            ; [DPU_3_PIPE] |281| 
        ; BRANCHCC OCCURS {||$C$L22||}   ; [] |281| 
;* --------------------------------------------------------------------------*
	.dwpsn	file "../esp8266.c",line 284,column 1,is_stmt,isa 1
$C$DW$76	.dwtag  DW_TAG_TI_branch
	.dwattr $C$DW$76, DW_AT_low_pc(0x00)
	.dwattr $C$DW$76, DW_AT_TI_return
        POP       {A2, A3, A4, PC}      ; [DPU_3_PIPE] 
	.dwcfi	cfa_offset, 0
        ; BRANCH OCCURS                  ; [] 
	.dwattr $C$DW$71, DW_AT_TI_end_file("../esp8266.c")
	.dwattr $C$DW$71, DW_AT_TI_end_line(0x11c)
	.dwattr $C$DW$71, DW_AT_TI_end_column(0x01)
	.dwendentry
	.dwendtag $C$DW$71

;******************************************************************************
;* CONSTANT TABLE                                                             *
;******************************************************************************
	.sect	".text"
	.align	4
||$C$CON15||:	.bits	SearchLooking,32
	.align	4
||$C$CON16||:	.bits	SearchFound,32
	.align	4
||$C$CON17||:	.bits	ESP8266_EchoResponse,32
	.sect	".text"
	.clink
	.thumbfunc DelayMs
	.thumb
	.global	DelayMs

$C$DW$77	.dwtag  DW_TAG_subprogram, DW_AT_name("DelayMs")
	.dwattr $C$DW$77, DW_AT_low_pc(DelayMs)
	.dwattr $C$DW$77, DW_AT_high_pc(0x00)
	.dwattr $C$DW$77, DW_AT_TI_symbol_name("DelayMs")
	.dwattr $C$DW$77, DW_AT_external
	.dwattr $C$DW$77, DW_AT_TI_begin_file("../esp8266.c")
	.dwattr $C$DW$77, DW_AT_TI_begin_line(0x125)
	.dwattr $C$DW$77, DW_AT_TI_begin_column(0x06)
	.dwattr $C$DW$77, DW_AT_decl_file("../esp8266.c")
	.dwattr $C$DW$77, DW_AT_decl_line(0x125)
	.dwattr $C$DW$77, DW_AT_decl_column(0x06)
	.dwattr $C$DW$77, DW_AT_TI_max_frame_size(0x08)
	.dwpsn	file "../esp8266.c",line 293,column 25,is_stmt,address DelayMs,isa 1

	.dwfde $C$DW$CIE, DelayMs
$C$DW$78	.dwtag  DW_TAG_formal_parameter, DW_AT_name("n")
	.dwattr $C$DW$78, DW_AT_TI_symbol_name("n")
	.dwattr $C$DW$78, DW_AT_type(*$C$DW$T$39)
	.dwattr $C$DW$78, DW_AT_location[DW_OP_reg0]

;*****************************************************************************
;* FUNCTION NAME: DelayMs                                                    *
;*                                                                           *
;*   Regs Modified     : A1,SP,SR                                            *
;*   Regs Used         : A1,SP,LR,SR                                         *
;*   Local Frame Size  : 0 Args + 8 Auto + 0 Save = 8 byte                   *
;*****************************************************************************
DelayMs:
;* --------------------------------------------------------------------------*
	.dwcfi	cfa_offset, 0
        SUB       SP, SP, #8            ; [DPU_3_PIPE] 
	.dwcfi	cfa_offset, 8
$C$DW$79	.dwtag  DW_TAG_variable, DW_AT_name("n")
	.dwattr $C$DW$79, DW_AT_TI_symbol_name("n")
	.dwattr $C$DW$79, DW_AT_type(*$C$DW$T$39)
	.dwattr $C$DW$79, DW_AT_location[DW_OP_breg13 0]
$C$DW$80	.dwtag  DW_TAG_variable, DW_AT_name("time")
	.dwattr $C$DW$80, DW_AT_TI_symbol_name("time")
	.dwattr $C$DW$80, DW_AT_type(*$C$DW$T$84)
	.dwattr $C$DW$80, DW_AT_location[DW_OP_breg13 4]
;----------------------------------------------------------------------
; 293 | void DelayMs(uint32_t n){                                              
; 294 | volatile uint32_t time;                                                
;----------------------------------------------------------------------
        STR       A1, [SP, #0]          ; [DPU_3_PIPE] |293| 
	.dwpsn	file "../esp8266.c",line 295,column 3,is_stmt,isa 1
;----------------------------------------------------------------------
; 295 | while(n){                                                              
;----------------------------------------------------------------------
        LDR       A1, [SP, #0]          ; [DPU_3_PIPE] |295| 
        CBZ       A1, ||$C$L27||        ; [] 
        ; BRANCHCC OCCURS {||$C$L27||}   ; [] |295| 
;* --------------------------------------------------------------------------*
;*   BEGIN LOOP ||$C$L24||
;*
;*   Loop source line                : 295
;*   Loop closing brace source line  : 301
;*   Known Minimum Trip Count        : 1
;*   Known Maximum Trip Count        : 4294967295
;*   Known Max Trip Count Factor     : 1
;* --------------------------------------------------------------------------*
||$C$L24||:    
	.dwpsn	file "../esp8266.c",line 296,column 5,is_stmt,isa 1
;----------------------------------------------------------------------
; 296 | time = 75825*8/91;  // 1msec, tuned at 80 MHz                          
;----------------------------------------------------------------------
        MOV       A1, #6665             ; [DPU_3_PIPE] |296| 
        STR       A1, [SP, #4]          ; [DPU_3_PIPE] |296| 
	.dwpsn	file "../esp8266.c",line 297,column 5,is_stmt,isa 1
;----------------------------------------------------------------------
; 297 | while(time){                                                           
;----------------------------------------------------------------------
        LDR       A1, [SP, #4]          ; [DPU_3_PIPE] |297| 
        CBZ       A1, ||$C$L26||        ; [] 
        ; BRANCHCC OCCURS {||$C$L26||}   ; [] |297| 
;* --------------------------------------------------------------------------*
;*   BEGIN LOOP ||$C$L25||
;*
;*   Loop source line                : 297
;*   Loop closing brace source line  : 299
;*   Known Minimum Trip Count        : 1
;*   Known Maximum Trip Count        : 4294967295
;*   Known Max Trip Count Factor     : 1
;* --------------------------------------------------------------------------*
||$C$L25||:    
	.dwpsn	file "../esp8266.c",line 298,column 7,is_stmt,isa 1
;----------------------------------------------------------------------
; 298 | time--;                                                                
;----------------------------------------------------------------------
        LDR       A1, [SP, #4]          ; [DPU_3_PIPE] |298| 
        SUBS      A1, A1, #1            ; [DPU_3_PIPE] |298| 
        STR       A1, [SP, #4]          ; [DPU_3_PIPE] |298| 
	.dwpsn	file "../esp8266.c",line 297,column 5,is_stmt,isa 1
        LDR       A1, [SP, #4]          ; [DPU_3_PIPE] |297| 
        CMP       A1, #0                ; [DPU_3_PIPE] |297| 
        BNE       ||$C$L25||            ; [DPU_3_PIPE] |297| 
        ; BRANCHCC OCCURS {||$C$L25||}   ; [] |297| 
;* --------------------------------------------------------------------------*
||$C$L26||:    
	.dwpsn	file "../esp8266.c",line 300,column 5,is_stmt,isa 1
;----------------------------------------------------------------------
; 300 | n--;                                                                   
;----------------------------------------------------------------------
        LDR       A1, [SP, #0]          ; [DPU_3_PIPE] |300| 
        SUBS      A1, A1, #1            ; [DPU_3_PIPE] |300| 
        STR       A1, [SP, #0]          ; [DPU_3_PIPE] |300| 
	.dwpsn	file "../esp8266.c",line 295,column 3,is_stmt,isa 1
        LDR       A1, [SP, #0]          ; [DPU_3_PIPE] |295| 
        CMP       A1, #0                ; [DPU_3_PIPE] |295| 
        BNE       ||$C$L24||            ; [DPU_3_PIPE] |295| 
        ; BRANCHCC OCCURS {||$C$L24||}   ; [] |295| 
;* --------------------------------------------------------------------------*
	.dwpsn	file "../esp8266.c",line 302,column 1,is_stmt,isa 1
;* --------------------------------------------------------------------------*
||$C$L27||:    
        ADD       SP, SP, #8            ; [DPU_3_PIPE] 
	.dwcfi	cfa_offset, 0
$C$DW$81	.dwtag  DW_TAG_TI_branch
	.dwattr $C$DW$81, DW_AT_low_pc(0x00)
	.dwattr $C$DW$81, DW_AT_TI_return
        BX        LR                    ; [DPU_3_PIPE] 
        ; BRANCH OCCURS                  ; [] 
	.dwattr $C$DW$77, DW_AT_TI_end_file("../esp8266.c")
	.dwattr $C$DW$77, DW_AT_TI_end_line(0x12e)
	.dwattr $C$DW$77, DW_AT_TI_end_column(0x01)
	.dwendentry
	.dwendtag $C$DW$77

	.sect	".text"
	.clink
	.thumbfunc DelayMsSearching
	.thumb
	.global	DelayMsSearching

$C$DW$82	.dwtag  DW_TAG_subprogram, DW_AT_name("DelayMsSearching")
	.dwattr $C$DW$82, DW_AT_low_pc(DelayMsSearching)
	.dwattr $C$DW$82, DW_AT_high_pc(0x00)
	.dwattr $C$DW$82, DW_AT_TI_symbol_name("DelayMsSearching")
	.dwattr $C$DW$82, DW_AT_external
	.dwattr $C$DW$82, DW_AT_TI_begin_file("../esp8266.c")
	.dwattr $C$DW$82, DW_AT_TI_begin_line(0x12f)
	.dwattr $C$DW$82, DW_AT_TI_begin_column(0x06)
	.dwattr $C$DW$82, DW_AT_decl_file("../esp8266.c")
	.dwattr $C$DW$82, DW_AT_decl_line(0x12f)
	.dwattr $C$DW$82, DW_AT_decl_column(0x06)
	.dwattr $C$DW$82, DW_AT_TI_max_frame_size(0x08)
	.dwpsn	file "../esp8266.c",line 303,column 34,is_stmt,address DelayMsSearching,isa 1

	.dwfde $C$DW$CIE, DelayMsSearching
$C$DW$83	.dwtag  DW_TAG_formal_parameter, DW_AT_name("n")
	.dwattr $C$DW$83, DW_AT_TI_symbol_name("n")
	.dwattr $C$DW$83, DW_AT_type(*$C$DW$T$39)
	.dwattr $C$DW$83, DW_AT_location[DW_OP_reg0]

;*****************************************************************************
;* FUNCTION NAME: DelayMsSearching                                           *
;*                                                                           *
;*   Regs Modified     : A1,SP,SR                                            *
;*   Regs Used         : A1,SP,LR,SR                                         *
;*   Local Frame Size  : 0 Args + 8 Auto + 0 Save = 8 byte                   *
;*****************************************************************************
DelayMsSearching:
;* --------------------------------------------------------------------------*
	.dwcfi	cfa_offset, 0
        SUB       SP, SP, #8            ; [DPU_3_PIPE] 
	.dwcfi	cfa_offset, 8
$C$DW$84	.dwtag  DW_TAG_variable, DW_AT_name("n")
	.dwattr $C$DW$84, DW_AT_TI_symbol_name("n")
	.dwattr $C$DW$84, DW_AT_type(*$C$DW$T$39)
	.dwattr $C$DW$84, DW_AT_location[DW_OP_breg13 0]
$C$DW$85	.dwtag  DW_TAG_variable, DW_AT_name("time")
	.dwattr $C$DW$85, DW_AT_TI_symbol_name("time")
	.dwattr $C$DW$85, DW_AT_type(*$C$DW$T$84)
	.dwattr $C$DW$85, DW_AT_location[DW_OP_breg13 4]
;----------------------------------------------------------------------
; 303 | void DelayMsSearching(uint32_t n){                                     
; 304 | volatile uint32_t time;                                                
;----------------------------------------------------------------------
        STR       A1, [SP, #0]          ; [DPU_3_PIPE] |303| 
	.dwpsn	file "../esp8266.c",line 305,column 3,is_stmt,isa 1
;----------------------------------------------------------------------
; 305 | while(n){                                                              
;----------------------------------------------------------------------
        LDR       A1, [SP, #0]          ; [DPU_3_PIPE] |305| 
        CBZ       A1, ||$C$L31||        ; [] 
        ; BRANCHCC OCCURS {||$C$L31||}   ; [] |305| 
;* --------------------------------------------------------------------------*
;*   BEGIN LOOP ||$C$L28||
;*
;*   Loop source line                : 305
;*   Loop closing brace source line  : 312
;*   Known Minimum Trip Count        : 1
;*   Known Maximum Trip Count        : 4294967295
;*   Known Max Trip Count Factor     : 1
;* --------------------------------------------------------------------------*
||$C$L28||:    
	.dwpsn	file "../esp8266.c",line 306,column 5,is_stmt,isa 1
;----------------------------------------------------------------------
; 306 | time = 75825*8/91;  // 1msec, tuned at 80 MHz                          
;----------------------------------------------------------------------
        MOV       A1, #6665             ; [DPU_3_PIPE] |306| 
        STR       A1, [SP, #4]          ; [DPU_3_PIPE] |306| 
	.dwpsn	file "../esp8266.c",line 307,column 5,is_stmt,isa 1
;----------------------------------------------------------------------
; 307 | while(time){                                                           
;----------------------------------------------------------------------
        LDR       A1, [SP, #4]          ; [DPU_3_PIPE] |307| 
        CBZ       A1, ||$C$L30||        ; [] 
        ; BRANCHCC OCCURS {||$C$L30||}   ; [] |307| 
;* --------------------------------------------------------------------------*
;*   BEGIN LOOP ||$C$L29||
;*
;*   Loop source line                : 307
;*   Loop closing brace source line  : 310
;*   Known Minimum Trip Count        : 1
;*   Known Maximum Trip Count        : 4294967295
;*   Known Max Trip Count Factor     : 1
;* --------------------------------------------------------------------------*
||$C$L29||:    
	.dwpsn	file "../esp8266.c",line 308,column 7,is_stmt,isa 1
;----------------------------------------------------------------------
; 308 | time--;                                                                
;----------------------------------------------------------------------
        LDR       A1, [SP, #4]          ; [DPU_3_PIPE] |308| 
        SUBS      A1, A1, #1            ; [DPU_3_PIPE] |308| 
        STR       A1, [SP, #4]          ; [DPU_3_PIPE] |308| 
	.dwpsn	file "../esp8266.c",line 309,column 7,is_stmt,isa 1
;----------------------------------------------------------------------
; 309 | if(SearchFound) return;                                                
;----------------------------------------------------------------------
        LDR       A1, $C$CON26          ; [DPU_3_PIPE] |309| 
        LDRB      A1, [A1, #0]          ; [DPU_3_PIPE] |309| 
        CBNZ      A1, ||$C$L31||        ; [] 
        ; BRANCHCC OCCURS {||$C$L31||}   ; [] |309| 
;* --------------------------------------------------------------------------*
	.dwpsn	file "../esp8266.c",line 309,column 23,is_stmt,isa 1
	.dwpsn	file "../esp8266.c",line 307,column 5,is_stmt,isa 1
        LDR       A1, [SP, #4]          ; [DPU_3_PIPE] |307| 
        CMP       A1, #0                ; [DPU_3_PIPE] |307| 
        BNE       ||$C$L29||            ; [DPU_3_PIPE] |307| 
        ; BRANCHCC OCCURS {||$C$L29||}   ; [] |307| 
;* --------------------------------------------------------------------------*
||$C$L30||:    
	.dwpsn	file "../esp8266.c",line 311,column 5,is_stmt,isa 1
;----------------------------------------------------------------------
; 311 | n--;                                                                   
;----------------------------------------------------------------------
        LDR       A1, [SP, #0]          ; [DPU_3_PIPE] |311| 
        SUBS      A1, A1, #1            ; [DPU_3_PIPE] |311| 
        STR       A1, [SP, #0]          ; [DPU_3_PIPE] |311| 
	.dwpsn	file "../esp8266.c",line 305,column 3,is_stmt,isa 1
        LDR       A1, [SP, #0]          ; [DPU_3_PIPE] |305| 
        CMP       A1, #0                ; [DPU_3_PIPE] |305| 
        BNE       ||$C$L28||            ; [DPU_3_PIPE] |305| 
        ; BRANCHCC OCCURS {||$C$L28||}   ; [] |305| 
;* --------------------------------------------------------------------------*
	.dwpsn	file "../esp8266.c",line 313,column 1,is_stmt,isa 1
;* --------------------------------------------------------------------------*
||$C$L31||:    
        ADD       SP, SP, #8            ; [DPU_3_PIPE] 
	.dwcfi	cfa_offset, 0
$C$DW$86	.dwtag  DW_TAG_TI_branch
	.dwattr $C$DW$86, DW_AT_low_pc(0x00)
	.dwattr $C$DW$86, DW_AT_TI_return
        BX        LR                    ; [DPU_3_PIPE] 
        ; BRANCH OCCURS                  ; [] 
	.dwattr $C$DW$82, DW_AT_TI_end_file("../esp8266.c")
	.dwattr $C$DW$82, DW_AT_TI_end_line(0x139)
	.dwattr $C$DW$82, DW_AT_TI_end_column(0x01)
	.dwendentry
	.dwendtag $C$DW$82

;******************************************************************************
;* STRINGS                                                                    *
;******************************************************************************
	.sect	".text"
	.align	4
||$C$SL1||:	.string	"ESP8266 Initialization:",10,13,0
	.align	4
||$C$SL2||:	.string	"Reset module... ",0
	.align	4
||$C$SL3||:	.string	"Reset failure, could not reset",10,13,0
	.align	4
||$C$SL4||:	.string	"SetWifiMode, could not set mode",10,13,0
	.align	4
||$C$SL5||:	.string	"ValvanoJonathaniPhone",0
	.align	4
||$C$SL6||:	.string	"y2uvdjfi5puyd",0
	.align	4
||$C$SL7||:	.string	"JoinAccessPoint error, could not join AP",10,13,0
	.align	4
||$C$SL8||:	.string	"GetIPAddress error, could not get IP address",10,13,0
	.align	4
||$C$SL9||:	.string	"SetConnectionMux error, could not set connection mux",10,13
	.string	0
	.align	4
||$C$SL10||:	.string	"ListAccessPoints, could not list access points",10,13,0
	.align	4
||$C$SL11||:	.string	"SetDataTransmissionMode, could not make connection",10,13,0
;******************************************************************************
;* CONSTANT TABLE                                                             *
;******************************************************************************
	.sect	".text"
	.align	4
||$C$CON18||:	.bits	ESP8266_InputProcessingEnabled,32
	.align	4
||$C$CON19||:	.bits	1073795132,32
	.align	4
||$C$CON20||:	.bits	1073795140,32
	.align	4
||$C$CON21||:	.bits	1073795072,32
	.align	4
||$C$CON22||:	.bits	ESP8266_RXBufferIndex,32
	.align	4
||$C$CON23||:	.bits	ESP8266_RXBuffer,32
	.sect	".text"
	.clink
	.thumbfunc ESP8266_Reset
	.thumb
	.global	ESP8266_Reset

$C$DW$87	.dwtag  DW_TAG_subprogram, DW_AT_name("ESP8266_Reset")
	.dwattr $C$DW$87, DW_AT_low_pc(ESP8266_Reset)
	.dwattr $C$DW$87, DW_AT_high_pc(0x00)
	.dwattr $C$DW$87, DW_AT_TI_symbol_name("ESP8266_Reset")
	.dwattr $C$DW$87, DW_AT_external
	.dwattr $C$DW$87, DW_AT_type(*$C$DW$T$10)
	.dwattr $C$DW$87, DW_AT_TI_begin_file("../esp8266.c")
	.dwattr $C$DW$87, DW_AT_TI_begin_line(0x13f)
	.dwattr $C$DW$87, DW_AT_TI_begin_column(0x05)
	.dwattr $C$DW$87, DW_AT_decl_file("../esp8266.c")
	.dwattr $C$DW$87, DW_AT_decl_line(0x13f)
	.dwattr $C$DW$87, DW_AT_decl_column(0x05)
	.dwattr $C$DW$87, DW_AT_TI_max_frame_size(0x08)
	.dwpsn	file "../esp8266.c",line 319,column 20,is_stmt,address ESP8266_Reset,isa 1

	.dwfde $C$DW$CIE, ESP8266_Reset

;*****************************************************************************
;* FUNCTION NAME: ESP8266_Reset                                              *
;*                                                                           *
;*   Regs Modified     : A1,A2,A3,A4,V9,SP,LR,SR,D0,D0_hi,D1,D1_hi,D2,D2_hi, *
;*                           D3,D3_hi,D4,D4_hi,D5,D5_hi,D6,D6_hi,D7,D7_hi,   *
;*                           FPEXC,FPSCR                                     *
;*   Regs Used         : A1,A2,A3,A4,V9,SP,LR,SR,D0,D0_hi,D1,D1_hi,D2,D2_hi, *
;*                           D3,D3_hi,D4,D4_hi,D5,D5_hi,D6,D6_hi,D7,D7_hi,   *
;*                           FPEXC,FPSCR                                     *
;*   Local Frame Size  : 0 Args + 4 Auto + 4 Save = 8 byte                   *
;*****************************************************************************
ESP8266_Reset:
;* --------------------------------------------------------------------------*
	.dwcfi	cfa_offset, 0
        PUSH      {A4, LR}              ; [DPU_3_PIPE] 
	.dwcfi	cfa_offset, 8
	.dwcfi	save_reg_to_mem, 14, -4
	.dwcfi	save_reg_to_mem, 3, -8
$C$DW$88	.dwtag  DW_TAG_variable, DW_AT_name("try")
	.dwattr $C$DW$88, DW_AT_TI_symbol_name("try")
	.dwattr $C$DW$88, DW_AT_type(*$C$DW$T$10)
	.dwattr $C$DW$88, DW_AT_location[DW_OP_breg13 0]
	.dwpsn	file "../esp8266.c",line 319,column 28,is_stmt,isa 1
;----------------------------------------------------------------------
; 319 | int ESP8266_Reset(){int try=MAXTRY;                                    
;----------------------------------------------------------------------
        MOVS      A1, #10               ; [DPU_3_PIPE] |319| 
        STR       A1, [SP, #0]          ; [DPU_3_PIPE] |319| 
	.dwpsn	file "../esp8266.c",line 320,column 3,is_stmt,isa 1
;----------------------------------------------------------------------
; 320 | strcpy(SearchString, "System Ready");                                  
;----------------------------------------------------------------------
        LDR       A1, $C$CON24          ; [DPU_3_PIPE] |320| 
        ADR       A2, $C$SL12           ; [DPU_3_PIPE] |320| 
$C$DW$89	.dwtag  DW_TAG_TI_branch
	.dwattr $C$DW$89, DW_AT_low_pc(0x00)
	.dwattr $C$DW$89, DW_AT_name("strcpy")
	.dwattr $C$DW$89, DW_AT_TI_call
        BL        strcpy                ; [DPU_3_PIPE] |320| 
        ; CALL OCCURS {strcpy }          ; [] |320| 
	.dwpsn	file "../esp8266.c",line 321,column 3,is_stmt,isa 1
;----------------------------------------------------------------------
; 321 | SearchLooking = true;                                                  
;----------------------------------------------------------------------
        LDR       A2, $C$CON27          ; [DPU_3_PIPE] |321| 
        MOVS      A1, #1                ; [DPU_3_PIPE] |321| 
        STRB      A1, [A2, #0]          ; [DPU_3_PIPE] |321| 
	.dwpsn	file "../esp8266.c",line 322,column 3,is_stmt,isa 1
;----------------------------------------------------------------------
; 322 | SearchFound = false;                                                   
;----------------------------------------------------------------------
        LDR       A2, $C$CON26          ; [DPU_3_PIPE] |322| 
        MOVS      A1, #0                ; [DPU_3_PIPE] |322| 
        STRB      A1, [A2, #0]          ; [DPU_3_PIPE] |322| 
	.dwpsn	file "../esp8266.c",line 323,column 3,is_stmt,isa 1
;----------------------------------------------------------------------
; 323 | while(try){                                                            
;----------------------------------------------------------------------
        LDR       A1, [SP, #0]          ; [DPU_3_PIPE] |323| 
        CBZ       A1, ||$C$L34||        ; [] 
        ; BRANCHCC OCCURS {||$C$L34||}   ; [] |323| 
;* --------------------------------------------------------------------------*
;*   BEGIN LOOP ||$C$L32||
;*
;*   Loop source line                : 323
;*   Loop closing brace source line  : 331
;*   Known Minimum Trip Count        : 1
;*   Known Maximum Trip Count        : 4294967295
;*   Known Max Trip Count Factor     : 1
;* --------------------------------------------------------------------------*
||$C$L32||:    
	.dwpsn	file "../esp8266.c",line 324,column 5,is_stmt,isa 1
;----------------------------------------------------------------------
; 324 | GPIO_PORTB_DATA_R &= ~0x20; // reset low                               
;----------------------------------------------------------------------
        LDR       A2, $C$CON28          ; [DPU_3_PIPE] |324| 
        LDR       A1, [A2, #0]          ; [DPU_3_PIPE] |324| 
        BIC       A1, A1, #32           ; [DPU_3_PIPE] |324| 
        STR       A1, [A2, #0]          ; [DPU_3_PIPE] |324| 
	.dwpsn	file "../esp8266.c",line 325,column 5,is_stmt,isa 1
;----------------------------------------------------------------------
; 325 | DelayMs(10);                                                           
;----------------------------------------------------------------------
        MOVS      A1, #10               ; [DPU_3_PIPE] |325| 
$C$DW$90	.dwtag  DW_TAG_TI_branch
	.dwattr $C$DW$90, DW_AT_low_pc(0x00)
	.dwattr $C$DW$90, DW_AT_name("DelayMs")
	.dwattr $C$DW$90, DW_AT_TI_call
        BL        DelayMs               ; [DPU_3_PIPE] |325| 
        ; CALL OCCURS {DelayMs }         ; [] |325| 
	.dwpsn	file "../esp8266.c",line 326,column 5,is_stmt,isa 1
;----------------------------------------------------------------------
; 326 | GPIO_PORTB_DATA_R |= 0x20; // reset high                               
;----------------------------------------------------------------------
        LDR       A2, $C$CON28          ; [DPU_3_PIPE] |326| 
        LDR       A1, [A2, #0]          ; [DPU_3_PIPE] |326| 
        ORR       A1, A1, #32           ; [DPU_3_PIPE] |326| 
        STR       A1, [A2, #0]          ; [DPU_3_PIPE] |326| 
	.dwpsn	file "../esp8266.c",line 327,column 5,is_stmt,isa 1
;----------------------------------------------------------------------
; 327 | ESP8266SendCommand("AT+RST\r\n");                                      
;----------------------------------------------------------------------
        ADR       A1, $C$SL13           ; [DPU_3_PIPE] |327| 
$C$DW$91	.dwtag  DW_TAG_TI_branch
	.dwattr $C$DW$91, DW_AT_low_pc(0x00)
	.dwattr $C$DW$91, DW_AT_name("ESP8266SendCommand")
	.dwattr $C$DW$91, DW_AT_TI_call
        BL        ESP8266SendCommand    ; [DPU_3_PIPE] |327| 
        ; CALL OCCURS {ESP8266SendCommand }  ; [] |327| 
	.dwpsn	file "../esp8266.c",line 328,column 5,is_stmt,isa 1
;----------------------------------------------------------------------
; 328 | DelayMsSearching(500);                                                 
;----------------------------------------------------------------------
        MOV       A1, #500              ; [DPU_3_PIPE] |328| 
$C$DW$92	.dwtag  DW_TAG_TI_branch
	.dwattr $C$DW$92, DW_AT_low_pc(0x00)
	.dwattr $C$DW$92, DW_AT_name("DelayMsSearching")
	.dwattr $C$DW$92, DW_AT_TI_call
        BL        DelayMsSearching      ; [DPU_3_PIPE] |328| 
        ; CALL OCCURS {DelayMsSearching }  ; [] |328| 
	.dwpsn	file "../esp8266.c",line 329,column 5,is_stmt,isa 1
;----------------------------------------------------------------------
; 329 | if(SearchFound) return 1; // success                                   
;----------------------------------------------------------------------
        LDR       A1, $C$CON26          ; [DPU_3_PIPE] |329| 
        LDRB      A1, [A1, #0]          ; [DPU_3_PIPE] |329| 
        CBZ       A1, ||$C$L33||        ; [] 
        ; BRANCHCC OCCURS {||$C$L33||}   ; [] |329| 
;* --------------------------------------------------------------------------*
	.dwpsn	file "../esp8266.c",line 329,column 21,is_stmt,isa 1
        MOVS      A1, #1                ; [DPU_3_PIPE] |329| 
        B         ||$C$L35||            ; [DPU_3_PIPE] |329| 
        ; BRANCH OCCURS {||$C$L35||}     ; [] |329| 
;* --------------------------------------------------------------------------*
||$C$L33||:    
	.dwpsn	file "../esp8266.c",line 330,column 5,is_stmt,isa 1
;----------------------------------------------------------------------
; 330 | try--;                                                                 
;----------------------------------------------------------------------
        LDR       A1, [SP, #0]          ; [DPU_3_PIPE] |330| 
        SUBS      A1, A1, #1            ; [DPU_3_PIPE] |330| 
        STR       A1, [SP, #0]          ; [DPU_3_PIPE] |330| 
	.dwpsn	file "../esp8266.c",line 323,column 3,is_stmt,isa 1
        LDR       A1, [SP, #0]          ; [DPU_3_PIPE] |323| 
        CMP       A1, #0                ; [DPU_3_PIPE] |323| 
        BNE       ||$C$L32||            ; [DPU_3_PIPE] |323| 
        ; BRANCHCC OCCURS {||$C$L32||}   ; [] |323| 
;* --------------------------------------------------------------------------*
||$C$L34||:    
	.dwpsn	file "../esp8266.c",line 332,column 3,is_stmt,isa 1
;----------------------------------------------------------------------
; 332 | return 0; // fail                                                      
;----------------------------------------------------------------------
        MOVS      A1, #0                ; [DPU_3_PIPE] |332| 
;* --------------------------------------------------------------------------*
||$C$L35||:    
	.dwpsn	file "../esp8266.c",line 333,column 1,is_stmt,isa 1
$C$DW$93	.dwtag  DW_TAG_TI_branch
	.dwattr $C$DW$93, DW_AT_low_pc(0x00)
	.dwattr $C$DW$93, DW_AT_TI_return
        POP       {A4, PC}              ; [DPU_3_PIPE] 
	.dwcfi	cfa_offset, 0
        ; BRANCH OCCURS                  ; [] 
	.dwattr $C$DW$87, DW_AT_TI_end_file("../esp8266.c")
	.dwattr $C$DW$87, DW_AT_TI_end_line(0x14d)
	.dwattr $C$DW$87, DW_AT_TI_end_column(0x01)
	.dwendentry
	.dwendtag $C$DW$87

;******************************************************************************
;* CONSTANT TABLE                                                             *
;******************************************************************************
	.sect	".text"
	.align	4
||$C$CON25||:	.bits	1073795096,32
	.sect	".text"
	.clink
	.thumbfunc ESP8266_SetWifiMode
	.thumb
	.global	ESP8266_SetWifiMode

$C$DW$94	.dwtag  DW_TAG_subprogram, DW_AT_name("ESP8266_SetWifiMode")
	.dwattr $C$DW$94, DW_AT_low_pc(ESP8266_SetWifiMode)
	.dwattr $C$DW$94, DW_AT_high_pc(0x00)
	.dwattr $C$DW$94, DW_AT_TI_symbol_name("ESP8266_SetWifiMode")
	.dwattr $C$DW$94, DW_AT_external
	.dwattr $C$DW$94, DW_AT_type(*$C$DW$T$10)
	.dwattr $C$DW$94, DW_AT_TI_begin_file("../esp8266.c")
	.dwattr $C$DW$94, DW_AT_TI_begin_line(0x153)
	.dwattr $C$DW$94, DW_AT_TI_begin_column(0x05)
	.dwattr $C$DW$94, DW_AT_decl_file("../esp8266.c")
	.dwattr $C$DW$94, DW_AT_decl_line(0x153)
	.dwattr $C$DW$94, DW_AT_decl_column(0x05)
	.dwattr $C$DW$94, DW_AT_TI_max_frame_size(0x10)
	.dwpsn	file "../esp8266.c",line 339,column 38,is_stmt,address ESP8266_SetWifiMode,isa 1

	.dwfde $C$DW$CIE, ESP8266_SetWifiMode
$C$DW$95	.dwtag  DW_TAG_formal_parameter, DW_AT_name("mode")
	.dwattr $C$DW$95, DW_AT_TI_symbol_name("mode")
	.dwattr $C$DW$95, DW_AT_type(*$C$DW$T$48)
	.dwattr $C$DW$95, DW_AT_location[DW_OP_reg0]

;*****************************************************************************
;* FUNCTION NAME: ESP8266_SetWifiMode                                        *
;*                                                                           *
;*   Regs Modified     : A1,A2,A3,A4,V9,SP,LR,SR,D0,D0_hi,D1,D1_hi,D2,D2_hi, *
;*                           D3,D3_hi,D4,D4_hi,D5,D5_hi,D6,D6_hi,D7,D7_hi,   *
;*                           FPEXC,FPSCR                                     *
;*   Regs Used         : A1,A2,A3,A4,V9,SP,LR,SR,D0,D0_hi,D1,D1_hi,D2,D2_hi, *
;*                           D3,D3_hi,D4,D4_hi,D5,D5_hi,D6,D6_hi,D7,D7_hi,   *
;*                           FPEXC,FPSCR                                     *
;*   Local Frame Size  : 0 Args + 8 Auto + 4 Save = 12 byte                  *
;*****************************************************************************
ESP8266_SetWifiMode:
;* --------------------------------------------------------------------------*
	.dwcfi	cfa_offset, 0
        PUSH      {A2, A3, A4, LR}      ; [DPU_3_PIPE] 
	.dwcfi	cfa_offset, 16
	.dwcfi	save_reg_to_mem, 14, -4
	.dwcfi	save_reg_to_mem, 3, -8
	.dwcfi	save_reg_to_mem, 2, -12
	.dwcfi	save_reg_to_mem, 1, -16
$C$DW$96	.dwtag  DW_TAG_variable, DW_AT_name("mode")
	.dwattr $C$DW$96, DW_AT_TI_symbol_name("mode")
	.dwattr $C$DW$96, DW_AT_type(*$C$DW$T$48)
	.dwattr $C$DW$96, DW_AT_location[DW_OP_breg13 0]
$C$DW$97	.dwtag  DW_TAG_variable, DW_AT_name("try")
	.dwattr $C$DW$97, DW_AT_TI_symbol_name("try")
	.dwattr $C$DW$97, DW_AT_type(*$C$DW$T$10)
	.dwattr $C$DW$97, DW_AT_location[DW_OP_breg13 4]
;----------------------------------------------------------------------
; 339 | int ESP8266_SetWifiMode(uint8_t mode){int try=MAXTRY;                  
;----------------------------------------------------------------------
        STRB      A1, [SP, #0]          ; [DPU_3_PIPE] |339| 
	.dwpsn	file "../esp8266.c",line 339,column 46,is_stmt,isa 1
        MOVS      A1, #10               ; [DPU_3_PIPE] |339| 
        STR       A1, [SP, #4]          ; [DPU_3_PIPE] |339| 
	.dwpsn	file "../esp8266.c",line 340,column 3,is_stmt,isa 1
;----------------------------------------------------------------------
; 340 | if(mode > ESP8266_WIFI_MODE_AP_AND_CLIENT)return 0; // fail            
;----------------------------------------------------------------------
        LDRB      A1, [SP, #0]          ; [DPU_3_PIPE] |340| 
        CMP       A1, #3                ; [DPU_3_PIPE] |340| 
        BLE       ||$C$L36||            ; [DPU_3_PIPE] |340| 
        ; BRANCHCC OCCURS {||$C$L36||}   ; [] |340| 
;* --------------------------------------------------------------------------*
	.dwpsn	file "../esp8266.c",line 340,column 45,is_stmt,isa 1
        MOVS      A1, #0                ; [DPU_3_PIPE] |340| 
        B         ||$C$L40||            ; [DPU_3_PIPE] |340| 
        ; BRANCH OCCURS {||$C$L40||}     ; [] |340| 
;* --------------------------------------------------------------------------*
||$C$L36||:    
	.dwpsn	file "../esp8266.c",line 341,column 3,is_stmt,isa 1
;----------------------------------------------------------------------
; 341 | strcpy(SearchString, "no change");                                     
;----------------------------------------------------------------------
        LDR       A1, $C$CON24          ; [DPU_3_PIPE] |341| 
        ADR       A2, $C$SL14           ; [DPU_3_PIPE] |341| 
$C$DW$98	.dwtag  DW_TAG_TI_branch
	.dwattr $C$DW$98, DW_AT_low_pc(0x00)
	.dwattr $C$DW$98, DW_AT_name("strcpy")
	.dwattr $C$DW$98, DW_AT_TI_call
        BL        strcpy                ; [DPU_3_PIPE] |341| 
        ; CALL OCCURS {strcpy }          ; [] |341| 
	.dwpsn	file "../esp8266.c",line 342,column 3,is_stmt,isa 1
;----------------------------------------------------------------------
; 342 | SearchLooking = true;                                                  
;----------------------------------------------------------------------
        LDR       A2, $C$CON27          ; [DPU_3_PIPE] |342| 
        MOVS      A1, #1                ; [DPU_3_PIPE] |342| 
        STRB      A1, [A2, #0]          ; [DPU_3_PIPE] |342| 
	.dwpsn	file "../esp8266.c",line 343,column 3,is_stmt,isa 1
;----------------------------------------------------------------------
; 343 | SearchFound = false;                                                   
;----------------------------------------------------------------------
        LDR       A2, $C$CON26          ; [DPU_3_PIPE] |343| 
        MOVS      A1, #0                ; [DPU_3_PIPE] |343| 
        STRB      A1, [A2, #0]          ; [DPU_3_PIPE] |343| 
	.dwpsn	file "../esp8266.c",line 344,column 3,is_stmt,isa 1
;----------------------------------------------------------------------
; 344 | while(try){                                                            
;----------------------------------------------------------------------
        LDR       A1, [SP, #4]          ; [DPU_3_PIPE] |344| 
        CBZ       A1, ||$C$L39||        ; [] 
        ; BRANCHCC OCCURS {||$C$L39||}   ; [] |344| 
;* --------------------------------------------------------------------------*
        B         ||$C$L37||            ; [] 
        ; BRANCH OCCURS {||$C$L37||}     ; [] 
;******************************************************************************
;* CONSTANT TABLE                                                             *
;******************************************************************************
	.sect	".text"
	.align	4
||$C$CON24||:	.bits	SearchString,32
;* --------------------------------------------------------------------------*
;*   BEGIN LOOP ||$C$L37||
;*
;*   Loop source line                : 344
;*   Loop closing brace source line  : 350
;*   Known Minimum Trip Count        : 1
;*   Known Maximum Trip Count        : 4294967295
;*   Known Max Trip Count Factor     : 1
;* --------------------------------------------------------------------------*
||$C$L37||:    
	.dwpsn	file "../esp8266.c",line 345,column 5,is_stmt,isa 1
;----------------------------------------------------------------------
; 345 | sprintf((char*)ESP8266_TXBuffer, "AT+CWMODE=%d\r\n", mode);            
;----------------------------------------------------------------------
        LDRB      A3, [SP, #0]          ; [DPU_3_PIPE] |345| 
        LDR       A1, $C$CON29          ; [DPU_3_PIPE] |345| 
        ADR       A2, $C$SL15           ; [DPU_3_PIPE] |345| 
$C$DW$99	.dwtag  DW_TAG_TI_branch
	.dwattr $C$DW$99, DW_AT_low_pc(0x00)
	.dwattr $C$DW$99, DW_AT_name("sprintf")
	.dwattr $C$DW$99, DW_AT_TI_call
        BL        sprintf               ; [DPU_3_PIPE] |345| 
        ; CALL OCCURS {sprintf }         ; [] |345| 
	.dwpsn	file "../esp8266.c",line 346,column 5,is_stmt,isa 1
;----------------------------------------------------------------------
; 346 | ESP8266SendCommand((const char*)ESP8266_TXBuffer);                     
;----------------------------------------------------------------------
        LDR       A1, $C$CON29          ; [DPU_3_PIPE] |346| 
$C$DW$100	.dwtag  DW_TAG_TI_branch
	.dwattr $C$DW$100, DW_AT_low_pc(0x00)
	.dwattr $C$DW$100, DW_AT_name("ESP8266SendCommand")
	.dwattr $C$DW$100, DW_AT_TI_call
        BL        ESP8266SendCommand    ; [DPU_3_PIPE] |346| 
        ; CALL OCCURS {ESP8266SendCommand }  ; [] |346| 
	.dwpsn	file "../esp8266.c",line 347,column 5,is_stmt,isa 1
;----------------------------------------------------------------------
; 347 | DelayMsSearching(5000);                                                
;----------------------------------------------------------------------
        MOV       A1, #5000             ; [DPU_3_PIPE] |347| 
$C$DW$101	.dwtag  DW_TAG_TI_branch
	.dwattr $C$DW$101, DW_AT_low_pc(0x00)
	.dwattr $C$DW$101, DW_AT_name("DelayMsSearching")
	.dwattr $C$DW$101, DW_AT_TI_call
        BL        DelayMsSearching      ; [DPU_3_PIPE] |347| 
        ; CALL OCCURS {DelayMsSearching }  ; [] |347| 
	.dwpsn	file "../esp8266.c",line 348,column 5,is_stmt,isa 1
;----------------------------------------------------------------------
; 348 | if(SearchFound) return 1; // success                                   
;----------------------------------------------------------------------
        LDR       A1, $C$CON26          ; [DPU_3_PIPE] |348| 
        LDRB      A1, [A1, #0]          ; [DPU_3_PIPE] |348| 
        CBZ       A1, ||$C$L38||        ; [] 
        ; BRANCHCC OCCURS {||$C$L38||}   ; [] |348| 
;* --------------------------------------------------------------------------*
	.dwpsn	file "../esp8266.c",line 348,column 21,is_stmt,isa 1
        MOVS      A1, #1                ; [DPU_3_PIPE] |348| 
        B         ||$C$L40||            ; [DPU_3_PIPE] |348| 
        ; BRANCH OCCURS {||$C$L40||}     ; [] |348| 
;* --------------------------------------------------------------------------*
||$C$L38||:    
	.dwpsn	file "../esp8266.c",line 349,column 5,is_stmt,isa 1
;----------------------------------------------------------------------
; 349 | try--;                                                                 
;----------------------------------------------------------------------
        LDR       A1, [SP, #4]          ; [DPU_3_PIPE] |349| 
        SUBS      A1, A1, #1            ; [DPU_3_PIPE] |349| 
        STR       A1, [SP, #4]          ; [DPU_3_PIPE] |349| 
	.dwpsn	file "../esp8266.c",line 344,column 3,is_stmt,isa 1
        LDR       A1, [SP, #4]          ; [DPU_3_PIPE] |344| 
        CMP       A1, #0                ; [DPU_3_PIPE] |344| 
        BNE       ||$C$L37||            ; [DPU_3_PIPE] |344| 
        ; BRANCHCC OCCURS {||$C$L37||}   ; [] |344| 
;* --------------------------------------------------------------------------*
||$C$L39||:    
	.dwpsn	file "../esp8266.c",line 351,column 3,is_stmt,isa 1
;----------------------------------------------------------------------
; 351 | return 0; // fail                                                      
;----------------------------------------------------------------------
        MOVS      A1, #0                ; [DPU_3_PIPE] |351| 
;* --------------------------------------------------------------------------*
||$C$L40||:    
	.dwpsn	file "../esp8266.c",line 352,column 1,is_stmt,isa 1
$C$DW$102	.dwtag  DW_TAG_TI_branch
	.dwattr $C$DW$102, DW_AT_low_pc(0x00)
	.dwattr $C$DW$102, DW_AT_TI_return
        POP       {A2, A3, A4, PC}      ; [DPU_3_PIPE] 
	.dwcfi	cfa_offset, 0
        ; BRANCH OCCURS                  ; [] 
	.dwattr $C$DW$94, DW_AT_TI_end_file("../esp8266.c")
	.dwattr $C$DW$94, DW_AT_TI_end_line(0x160)
	.dwattr $C$DW$94, DW_AT_TI_end_column(0x01)
	.dwendentry
	.dwendtag $C$DW$94

	.sect	".text"
	.clink
	.thumbfunc ESP8266_SetConnectionMux
	.thumb
	.global	ESP8266_SetConnectionMux

$C$DW$103	.dwtag  DW_TAG_subprogram, DW_AT_name("ESP8266_SetConnectionMux")
	.dwattr $C$DW$103, DW_AT_low_pc(ESP8266_SetConnectionMux)
	.dwattr $C$DW$103, DW_AT_high_pc(0x00)
	.dwattr $C$DW$103, DW_AT_TI_symbol_name("ESP8266_SetConnectionMux")
	.dwattr $C$DW$103, DW_AT_external
	.dwattr $C$DW$103, DW_AT_type(*$C$DW$T$10)
	.dwattr $C$DW$103, DW_AT_TI_begin_file("../esp8266.c")
	.dwattr $C$DW$103, DW_AT_TI_begin_line(0x168)
	.dwattr $C$DW$103, DW_AT_TI_begin_column(0x05)
	.dwattr $C$DW$103, DW_AT_decl_file("../esp8266.c")
	.dwattr $C$DW$103, DW_AT_decl_line(0x168)
	.dwattr $C$DW$103, DW_AT_decl_column(0x05)
	.dwattr $C$DW$103, DW_AT_TI_max_frame_size(0x10)
	.dwpsn	file "../esp8266.c",line 360,column 46,is_stmt,address ESP8266_SetConnectionMux,isa 1

	.dwfde $C$DW$CIE, ESP8266_SetConnectionMux
$C$DW$104	.dwtag  DW_TAG_formal_parameter, DW_AT_name("enabled")
	.dwattr $C$DW$104, DW_AT_TI_symbol_name("enabled")
	.dwattr $C$DW$104, DW_AT_type(*$C$DW$T$48)
	.dwattr $C$DW$104, DW_AT_location[DW_OP_reg0]

;*****************************************************************************
;* FUNCTION NAME: ESP8266_SetConnectionMux                                   *
;*                                                                           *
;*   Regs Modified     : A1,A2,A3,A4,V9,SP,LR,SR,D0,D0_hi,D1,D1_hi,D2,D2_hi, *
;*                           D3,D3_hi,D4,D4_hi,D5,D5_hi,D6,D6_hi,D7,D7_hi,   *
;*                           FPEXC,FPSCR                                     *
;*   Regs Used         : A1,A2,A3,A4,V9,SP,LR,SR,D0,D0_hi,D1,D1_hi,D2,D2_hi, *
;*                           D3,D3_hi,D4,D4_hi,D5,D5_hi,D6,D6_hi,D7,D7_hi,   *
;*                           FPEXC,FPSCR                                     *
;*   Local Frame Size  : 0 Args + 8 Auto + 4 Save = 12 byte                  *
;*****************************************************************************
ESP8266_SetConnectionMux:
;* --------------------------------------------------------------------------*
	.dwcfi	cfa_offset, 0
        PUSH      {A2, A3, A4, LR}      ; [DPU_3_PIPE] 
	.dwcfi	cfa_offset, 16
	.dwcfi	save_reg_to_mem, 14, -4
	.dwcfi	save_reg_to_mem, 3, -8
	.dwcfi	save_reg_to_mem, 2, -12
	.dwcfi	save_reg_to_mem, 1, -16
$C$DW$105	.dwtag  DW_TAG_variable, DW_AT_name("enabled")
	.dwattr $C$DW$105, DW_AT_TI_symbol_name("enabled")
	.dwattr $C$DW$105, DW_AT_type(*$C$DW$T$48)
	.dwattr $C$DW$105, DW_AT_location[DW_OP_breg13 0]
$C$DW$106	.dwtag  DW_TAG_variable, DW_AT_name("try")
	.dwattr $C$DW$106, DW_AT_TI_symbol_name("try")
	.dwattr $C$DW$106, DW_AT_type(*$C$DW$T$10)
	.dwattr $C$DW$106, DW_AT_location[DW_OP_breg13 4]
;----------------------------------------------------------------------
; 360 | int ESP8266_SetConnectionMux(uint8_t enabled){                         
;----------------------------------------------------------------------
        STRB      A1, [SP, #0]          ; [DPU_3_PIPE] |360| 
	.dwpsn	file "../esp8266.c",line 361,column 10,is_stmt,isa 1
;----------------------------------------------------------------------
; 361 | int try=MAXTRY;                                                        
;----------------------------------------------------------------------
        MOVS      A1, #10               ; [DPU_3_PIPE] |361| 
        STR       A1, [SP, #4]          ; [DPU_3_PIPE] |361| 
	.dwpsn	file "../esp8266.c",line 362,column 3,is_stmt,isa 1
;----------------------------------------------------------------------
; 362 | strcpy(SearchString, "OK");                                            
;----------------------------------------------------------------------
        LDR       A1, $C$CON30          ; [DPU_3_PIPE] |362| 
        ADR       A2, $C$SL16           ; [DPU_3_PIPE] |362| 
$C$DW$107	.dwtag  DW_TAG_TI_branch
	.dwattr $C$DW$107, DW_AT_low_pc(0x00)
	.dwattr $C$DW$107, DW_AT_name("strcpy")
	.dwattr $C$DW$107, DW_AT_TI_call
        BL        strcpy                ; [DPU_3_PIPE] |362| 
        ; CALL OCCURS {strcpy }          ; [] |362| 
	.dwpsn	file "../esp8266.c",line 363,column 3,is_stmt,isa 1
;----------------------------------------------------------------------
; 363 | SearchLooking = true;                                                  
;----------------------------------------------------------------------
        LDR       A2, $C$CON27          ; [DPU_3_PIPE] |363| 
        MOVS      A1, #1                ; [DPU_3_PIPE] |363| 
        STRB      A1, [A2, #0]          ; [DPU_3_PIPE] |363| 
	.dwpsn	file "../esp8266.c",line 364,column 3,is_stmt,isa 1
;----------------------------------------------------------------------
; 364 | SearchFound = false;                                                   
;----------------------------------------------------------------------
        LDR       A2, $C$CON26          ; [DPU_3_PIPE] |364| 
        MOVS      A1, #0                ; [DPU_3_PIPE] |364| 
        STRB      A1, [A2, #0]          ; [DPU_3_PIPE] |364| 
	.dwpsn	file "../esp8266.c",line 365,column 3,is_stmt,isa 1
;----------------------------------------------------------------------
; 365 | while(try){                                                            
;----------------------------------------------------------------------
        LDR       A1, [SP, #4]          ; [DPU_3_PIPE] |365| 
        CBZ       A1, ||$C$L43||        ; [] 
        ; BRANCHCC OCCURS {||$C$L43||}   ; [] |365| 
;* --------------------------------------------------------------------------*
;*   BEGIN LOOP ||$C$L41||
;*
;*   Loop source line                : 365
;*   Loop closing brace source line  : 371
;*   Known Minimum Trip Count        : 1
;*   Known Maximum Trip Count        : 4294967295
;*   Known Max Trip Count Factor     : 1
;* --------------------------------------------------------------------------*
||$C$L41||:    
	.dwpsn	file "../esp8266.c",line 366,column 5,is_stmt,isa 1
;----------------------------------------------------------------------
; 366 | sprintf((char*)ESP8266_TXBuffer, "AT+CIPMUX=%d\r\n", enabled);         
;----------------------------------------------------------------------
        LDRB      A3, [SP, #0]          ; [DPU_3_PIPE] |366| 
        LDR       A1, $C$CON29          ; [DPU_3_PIPE] |366| 
        ADR       A2, $C$SL17           ; [DPU_3_PIPE] |366| 
$C$DW$108	.dwtag  DW_TAG_TI_branch
	.dwattr $C$DW$108, DW_AT_low_pc(0x00)
	.dwattr $C$DW$108, DW_AT_name("sprintf")
	.dwattr $C$DW$108, DW_AT_TI_call
        BL        sprintf               ; [DPU_3_PIPE] |366| 
        ; CALL OCCURS {sprintf }         ; [] |366| 
	.dwpsn	file "../esp8266.c",line 367,column 5,is_stmt,isa 1
;----------------------------------------------------------------------
; 367 | ESP8266SendCommand((const char*)ESP8266_TXBuffer);                     
;----------------------------------------------------------------------
        LDR       A1, $C$CON29          ; [DPU_3_PIPE] |367| 
$C$DW$109	.dwtag  DW_TAG_TI_branch
	.dwattr $C$DW$109, DW_AT_low_pc(0x00)
	.dwattr $C$DW$109, DW_AT_name("ESP8266SendCommand")
	.dwattr $C$DW$109, DW_AT_TI_call
        BL        ESP8266SendCommand    ; [DPU_3_PIPE] |367| 
        ; CALL OCCURS {ESP8266SendCommand }  ; [] |367| 
	.dwpsn	file "../esp8266.c",line 368,column 5,is_stmt,isa 1
;----------------------------------------------------------------------
; 368 | DelayMsSearching(5000);                                                
;----------------------------------------------------------------------
        MOV       A1, #5000             ; [DPU_3_PIPE] |368| 
$C$DW$110	.dwtag  DW_TAG_TI_branch
	.dwattr $C$DW$110, DW_AT_low_pc(0x00)
	.dwattr $C$DW$110, DW_AT_name("DelayMsSearching")
	.dwattr $C$DW$110, DW_AT_TI_call
        BL        DelayMsSearching      ; [DPU_3_PIPE] |368| 
        ; CALL OCCURS {DelayMsSearching }  ; [] |368| 
	.dwpsn	file "../esp8266.c",line 369,column 5,is_stmt,isa 1
;----------------------------------------------------------------------
; 369 | if(SearchFound) return 1; // success                                   
;----------------------------------------------------------------------
        LDR       A1, $C$CON26          ; [DPU_3_PIPE] |369| 
        LDRB      A1, [A1, #0]          ; [DPU_3_PIPE] |369| 
        CBZ       A1, ||$C$L42||        ; [] 
        ; BRANCHCC OCCURS {||$C$L42||}   ; [] |369| 
;* --------------------------------------------------------------------------*
	.dwpsn	file "../esp8266.c",line 369,column 21,is_stmt,isa 1
        MOVS      A1, #1                ; [DPU_3_PIPE] |369| 
        B         ||$C$L44||            ; [DPU_3_PIPE] |369| 
        ; BRANCH OCCURS {||$C$L44||}     ; [] |369| 
;* --------------------------------------------------------------------------*
||$C$L42||:    
	.dwpsn	file "../esp8266.c",line 370,column 5,is_stmt,isa 1
;----------------------------------------------------------------------
; 370 | try--;                                                                 
;----------------------------------------------------------------------
        LDR       A1, [SP, #4]          ; [DPU_3_PIPE] |370| 
        SUBS      A1, A1, #1            ; [DPU_3_PIPE] |370| 
        STR       A1, [SP, #4]          ; [DPU_3_PIPE] |370| 
	.dwpsn	file "../esp8266.c",line 365,column 3,is_stmt,isa 1
        LDR       A1, [SP, #4]          ; [DPU_3_PIPE] |365| 
        CMP       A1, #0                ; [DPU_3_PIPE] |365| 
        BNE       ||$C$L41||            ; [DPU_3_PIPE] |365| 
        ; BRANCHCC OCCURS {||$C$L41||}   ; [] |365| 
;* --------------------------------------------------------------------------*
||$C$L43||:    
	.dwpsn	file "../esp8266.c",line 372,column 3,is_stmt,isa 1
;----------------------------------------------------------------------
; 372 | return 0; // fail                                                      
;----------------------------------------------------------------------
        MOVS      A1, #0                ; [DPU_3_PIPE] |372| 
;* --------------------------------------------------------------------------*
||$C$L44||:    
	.dwpsn	file "../esp8266.c",line 373,column 1,is_stmt,isa 1
$C$DW$111	.dwtag  DW_TAG_TI_branch
	.dwattr $C$DW$111, DW_AT_low_pc(0x00)
	.dwattr $C$DW$111, DW_AT_TI_return
        POP       {A2, A3, A4, PC}      ; [DPU_3_PIPE] 
	.dwcfi	cfa_offset, 0
        ; BRANCH OCCURS                  ; [] 
	.dwattr $C$DW$103, DW_AT_TI_end_file("../esp8266.c")
	.dwattr $C$DW$103, DW_AT_TI_end_line(0x175)
	.dwattr $C$DW$103, DW_AT_TI_end_column(0x01)
	.dwendentry
	.dwendtag $C$DW$103

;******************************************************************************
;* CONSTANT TABLE                                                             *
;******************************************************************************
	.sect	".text"
	.align	4
||$C$CON26||:	.bits	SearchFound,32
	.sect	".text"
	.clink
	.thumbfunc ESP8266_SetServerTimeout
	.thumb
	.global	ESP8266_SetServerTimeout

$C$DW$112	.dwtag  DW_TAG_subprogram, DW_AT_name("ESP8266_SetServerTimeout")
	.dwattr $C$DW$112, DW_AT_low_pc(ESP8266_SetServerTimeout)
	.dwattr $C$DW$112, DW_AT_high_pc(0x00)
	.dwattr $C$DW$112, DW_AT_TI_symbol_name("ESP8266_SetServerTimeout")
	.dwattr $C$DW$112, DW_AT_external
	.dwattr $C$DW$112, DW_AT_TI_begin_file("../esp8266.c")
	.dwattr $C$DW$112, DW_AT_TI_begin_line(0x17e)
	.dwattr $C$DW$112, DW_AT_TI_begin_column(0x06)
	.dwattr $C$DW$112, DW_AT_decl_file("../esp8266.c")
	.dwattr $C$DW$112, DW_AT_decl_line(0x17e)
	.dwattr $C$DW$112, DW_AT_decl_column(0x06)
	.dwattr $C$DW$112, DW_AT_TI_max_frame_size(0x08)
	.dwpsn	file "../esp8266.c",line 382,column 48,is_stmt,address ESP8266_SetServerTimeout,isa 1

	.dwfde $C$DW$CIE, ESP8266_SetServerTimeout
$C$DW$113	.dwtag  DW_TAG_formal_parameter, DW_AT_name("timeout")
	.dwattr $C$DW$113, DW_AT_TI_symbol_name("timeout")
	.dwattr $C$DW$113, DW_AT_type(*$C$DW$T$42)
	.dwattr $C$DW$113, DW_AT_location[DW_OP_reg0]

;*****************************************************************************
;* FUNCTION NAME: ESP8266_SetServerTimeout                                   *
;*                                                                           *
;*   Regs Modified     : A1,A2,A3,A4,V9,SP,LR,SR,D0,D0_hi,D1,D1_hi,D2,D2_hi, *
;*                           D3,D3_hi,D4,D4_hi,D5,D5_hi,D6,D6_hi,D7,D7_hi,   *
;*                           FPEXC,FPSCR                                     *
;*   Regs Used         : A1,A2,A3,A4,V9,SP,LR,SR,D0,D0_hi,D1,D1_hi,D2,D2_hi, *
;*                           D3,D3_hi,D4,D4_hi,D5,D5_hi,D6,D6_hi,D7,D7_hi,   *
;*                           FPEXC,FPSCR                                     *
;*   Local Frame Size  : 0 Args + 4 Auto + 4 Save = 8 byte                   *
;*****************************************************************************
ESP8266_SetServerTimeout:
;* --------------------------------------------------------------------------*
	.dwcfi	cfa_offset, 0
        PUSH      {A4, LR}              ; [DPU_3_PIPE] 
	.dwcfi	cfa_offset, 8
	.dwcfi	save_reg_to_mem, 14, -4
	.dwcfi	save_reg_to_mem, 3, -8
$C$DW$114	.dwtag  DW_TAG_variable, DW_AT_name("timeout")
	.dwattr $C$DW$114, DW_AT_TI_symbol_name("timeout")
	.dwattr $C$DW$114, DW_AT_type(*$C$DW$T$42)
	.dwattr $C$DW$114, DW_AT_location[DW_OP_breg13 0]
;----------------------------------------------------------------------
; 382 | void ESP8266_SetServerTimeout(uint16_t timeout){                       
;----------------------------------------------------------------------
        STRH      A1, [SP, #0]          ; [DPU_3_PIPE] |382| 
	.dwpsn	file "../esp8266.c",line 383,column 3,is_stmt,isa 1
;----------------------------------------------------------------------
; 383 | ESP8266_ServerTimeout = timeout;                                       
;----------------------------------------------------------------------
        LDR       A2, $C$CON31          ; [DPU_3_PIPE] |383| 
        LDRH      A1, [SP, #0]          ; [DPU_3_PIPE] |383| 
        STRH      A1, [A2, #0]          ; [DPU_3_PIPE] |383| 
	.dwpsn	file "../esp8266.c",line 384,column 3,is_stmt,isa 1
;----------------------------------------------------------------------
; 384 | sprintf((char*)ESP8266_TXBuffer, "AT+CIPSTO=%d\r\n", ESP8266_ServerTime
;     | out);                                                                  
;----------------------------------------------------------------------
        LDR       A1, $C$CON31          ; [DPU_3_PIPE] |384| 
        LDRH      A3, [A1, #0]          ; [DPU_3_PIPE] |384| 
        LDR       A1, $C$CON29          ; [DPU_3_PIPE] |384| 
        ADR       A2, $C$SL18           ; [DPU_3_PIPE] |384| 
$C$DW$115	.dwtag  DW_TAG_TI_branch
	.dwattr $C$DW$115, DW_AT_low_pc(0x00)
	.dwattr $C$DW$115, DW_AT_name("sprintf")
	.dwattr $C$DW$115, DW_AT_TI_call
        BL        sprintf               ; [DPU_3_PIPE] |384| 
        ; CALL OCCURS {sprintf }         ; [] |384| 
	.dwpsn	file "../esp8266.c",line 385,column 3,is_stmt,isa 1
;----------------------------------------------------------------------
; 385 | ESP8266SendCommand((const char*)ESP8266_TXBuffer);                     
;----------------------------------------------------------------------
        LDR       A1, $C$CON29          ; [DPU_3_PIPE] |385| 
$C$DW$116	.dwtag  DW_TAG_TI_branch
	.dwattr $C$DW$116, DW_AT_low_pc(0x00)
	.dwattr $C$DW$116, DW_AT_name("ESP8266SendCommand")
	.dwattr $C$DW$116, DW_AT_TI_call
        BL        ESP8266SendCommand    ; [DPU_3_PIPE] |385| 
        ; CALL OCCURS {ESP8266SendCommand }  ; [] |385| 
	.dwpsn	file "../esp8266.c",line 386,column 1,is_stmt,isa 1
$C$DW$117	.dwtag  DW_TAG_TI_branch
	.dwattr $C$DW$117, DW_AT_low_pc(0x00)
	.dwattr $C$DW$117, DW_AT_TI_return
        POP       {A4, PC}              ; [DPU_3_PIPE] 
	.dwcfi	cfa_offset, 0
        ; BRANCH OCCURS                  ; [] 
	.dwattr $C$DW$112, DW_AT_TI_end_file("../esp8266.c")
	.dwattr $C$DW$112, DW_AT_TI_end_line(0x182)
	.dwattr $C$DW$112, DW_AT_TI_end_column(0x01)
	.dwendentry
	.dwendtag $C$DW$112

	.sect	".text"
	.clink
	.thumbfunc ESP8266_EnableServer
	.thumb
	.global	ESP8266_EnableServer

$C$DW$118	.dwtag  DW_TAG_subprogram, DW_AT_name("ESP8266_EnableServer")
	.dwattr $C$DW$118, DW_AT_low_pc(ESP8266_EnableServer)
	.dwattr $C$DW$118, DW_AT_high_pc(0x00)
	.dwattr $C$DW$118, DW_AT_TI_symbol_name("ESP8266_EnableServer")
	.dwattr $C$DW$118, DW_AT_external
	.dwattr $C$DW$118, DW_AT_TI_begin_file("../esp8266.c")
	.dwattr $C$DW$118, DW_AT_TI_begin_line(0x18b)
	.dwattr $C$DW$118, DW_AT_TI_begin_column(0x06)
	.dwattr $C$DW$118, DW_AT_decl_file("../esp8266.c")
	.dwattr $C$DW$118, DW_AT_decl_line(0x18b)
	.dwattr $C$DW$118, DW_AT_decl_column(0x06)
	.dwattr $C$DW$118, DW_AT_TI_max_frame_size(0x08)
	.dwpsn	file "../esp8266.c",line 395,column 41,is_stmt,address ESP8266_EnableServer,isa 1

	.dwfde $C$DW$CIE, ESP8266_EnableServer
$C$DW$119	.dwtag  DW_TAG_formal_parameter, DW_AT_name("port")
	.dwattr $C$DW$119, DW_AT_TI_symbol_name("port")
	.dwattr $C$DW$119, DW_AT_type(*$C$DW$T$42)
	.dwattr $C$DW$119, DW_AT_location[DW_OP_reg0]

;*****************************************************************************
;* FUNCTION NAME: ESP8266_EnableServer                                       *
;*                                                                           *
;*   Regs Modified     : A1,A2,A3,A4,V9,SP,LR,SR,D0,D0_hi,D1,D1_hi,D2,D2_hi, *
;*                           D3,D3_hi,D4,D4_hi,D5,D5_hi,D6,D6_hi,D7,D7_hi,   *
;*                           FPEXC,FPSCR                                     *
;*   Regs Used         : A1,A2,A3,A4,V9,SP,LR,SR,D0,D0_hi,D1,D1_hi,D2,D2_hi, *
;*                           D3,D3_hi,D4,D4_hi,D5,D5_hi,D6,D6_hi,D7,D7_hi,   *
;*                           FPEXC,FPSCR                                     *
;*   Local Frame Size  : 0 Args + 4 Auto + 4 Save = 8 byte                   *
;*****************************************************************************
ESP8266_EnableServer:
;* --------------------------------------------------------------------------*
	.dwcfi	cfa_offset, 0
        PUSH      {A4, LR}              ; [DPU_3_PIPE] 
	.dwcfi	cfa_offset, 8
	.dwcfi	save_reg_to_mem, 14, -4
	.dwcfi	save_reg_to_mem, 3, -8
$C$DW$120	.dwtag  DW_TAG_variable, DW_AT_name("port")
	.dwattr $C$DW$120, DW_AT_TI_symbol_name("port")
	.dwattr $C$DW$120, DW_AT_type(*$C$DW$T$42)
	.dwattr $C$DW$120, DW_AT_location[DW_OP_breg13 0]
;----------------------------------------------------------------------
; 395 | void ESP8266_EnableServer(uint16_t port){                              
;----------------------------------------------------------------------
        STRH      A1, [SP, #0]          ; [DPU_3_PIPE] |395| 
	.dwpsn	file "../esp8266.c",line 396,column 3,is_stmt,isa 1
;----------------------------------------------------------------------
; 396 | ESP8266_ServerPort = port;                                             
;----------------------------------------------------------------------
        LDR       A2, $C$CON32          ; [DPU_3_PIPE] |396| 
        LDRH      A1, [SP, #0]          ; [DPU_3_PIPE] |396| 
        STRH      A1, [A2, #0]          ; [DPU_3_PIPE] |396| 
	.dwpsn	file "../esp8266.c",line 397,column 3,is_stmt,isa 1
;----------------------------------------------------------------------
; 397 | sprintf((char*)ESP8266_TXBuffer, "AT+CIPSERVER=1,%d\r\n", ESP8266_Serve
;     | rPort);                                                                
;----------------------------------------------------------------------
        LDR       A1, $C$CON32          ; [DPU_3_PIPE] |397| 
        LDRH      A3, [A1, #0]          ; [DPU_3_PIPE] |397| 
        LDR       A1, $C$CON29          ; [DPU_3_PIPE] |397| 
        ADR       A2, $C$SL19           ; [DPU_3_PIPE] |397| 
$C$DW$121	.dwtag  DW_TAG_TI_branch
	.dwattr $C$DW$121, DW_AT_low_pc(0x00)
	.dwattr $C$DW$121, DW_AT_name("sprintf")
	.dwattr $C$DW$121, DW_AT_TI_call
        BL        sprintf               ; [DPU_3_PIPE] |397| 
        ; CALL OCCURS {sprintf }         ; [] |397| 
	.dwpsn	file "../esp8266.c",line 398,column 3,is_stmt,isa 1
;----------------------------------------------------------------------
; 398 | ESP8266SendCommand((const char*)ESP8266_TXBuffer);                     
;----------------------------------------------------------------------
        LDR       A1, $C$CON29          ; [DPU_3_PIPE] |398| 
$C$DW$122	.dwtag  DW_TAG_TI_branch
	.dwattr $C$DW$122, DW_AT_low_pc(0x00)
	.dwattr $C$DW$122, DW_AT_name("ESP8266SendCommand")
	.dwattr $C$DW$122, DW_AT_TI_call
        BL        ESP8266SendCommand    ; [DPU_3_PIPE] |398| 
        ; CALL OCCURS {ESP8266SendCommand }  ; [] |398| 
	.dwpsn	file "../esp8266.c",line 399,column 1,is_stmt,isa 1
$C$DW$123	.dwtag  DW_TAG_TI_branch
	.dwattr $C$DW$123, DW_AT_low_pc(0x00)
	.dwattr $C$DW$123, DW_AT_TI_return
        POP       {A4, PC}              ; [DPU_3_PIPE] 
	.dwcfi	cfa_offset, 0
        ; BRANCH OCCURS                  ; [] 
	.dwattr $C$DW$118, DW_AT_TI_end_file("../esp8266.c")
	.dwattr $C$DW$118, DW_AT_TI_end_line(0x18f)
	.dwattr $C$DW$118, DW_AT_TI_end_column(0x01)
	.dwendentry
	.dwendtag $C$DW$118

	.sect	".text"
	.clink
	.thumbfunc ESP8266_DisableServer
	.thumb
	.global	ESP8266_DisableServer

$C$DW$124	.dwtag  DW_TAG_subprogram, DW_AT_name("ESP8266_DisableServer")
	.dwattr $C$DW$124, DW_AT_low_pc(ESP8266_DisableServer)
	.dwattr $C$DW$124, DW_AT_high_pc(0x00)
	.dwattr $C$DW$124, DW_AT_TI_symbol_name("ESP8266_DisableServer")
	.dwattr $C$DW$124, DW_AT_external
	.dwattr $C$DW$124, DW_AT_type(*$C$DW$T$10)
	.dwattr $C$DW$124, DW_AT_TI_begin_file("../esp8266.c")
	.dwattr $C$DW$124, DW_AT_TI_begin_line(0x196)
	.dwattr $C$DW$124, DW_AT_TI_begin_column(0x05)
	.dwattr $C$DW$124, DW_AT_decl_file("../esp8266.c")
	.dwattr $C$DW$124, DW_AT_decl_line(0x196)
	.dwattr $C$DW$124, DW_AT_decl_column(0x05)
	.dwattr $C$DW$124, DW_AT_TI_max_frame_size(0x08)
	.dwpsn	file "../esp8266.c",line 406,column 32,is_stmt,address ESP8266_DisableServer,isa 1

	.dwfde $C$DW$CIE, ESP8266_DisableServer
;----------------------------------------------------------------------
; 406 | int ESP8266_DisableServer(void){                                       
;----------------------------------------------------------------------

;*****************************************************************************
;* FUNCTION NAME: ESP8266_DisableServer                                      *
;*                                                                           *
;*   Regs Modified     : A1,A2,A3,A4,V9,SP,LR,SR,D0,D0_hi,D1,D1_hi,D2,D2_hi, *
;*                           D3,D3_hi,D4,D4_hi,D5,D5_hi,D6,D6_hi,D7,D7_hi,   *
;*                           FPEXC,FPSCR                                     *
;*   Regs Used         : A1,A2,A3,A4,V9,SP,LR,SR,D0,D0_hi,D1,D1_hi,D2,D2_hi, *
;*                           D3,D3_hi,D4,D4_hi,D5,D5_hi,D6,D6_hi,D7,D7_hi,   *
;*                           FPEXC,FPSCR                                     *
;*   Local Frame Size  : 0 Args + 4 Auto + 4 Save = 8 byte                   *
;*****************************************************************************
ESP8266_DisableServer:
;* --------------------------------------------------------------------------*
	.dwcfi	cfa_offset, 0
        PUSH      {A4, LR}              ; [DPU_3_PIPE] 
	.dwcfi	cfa_offset, 8
	.dwcfi	save_reg_to_mem, 14, -4
	.dwcfi	save_reg_to_mem, 3, -8
$C$DW$125	.dwtag  DW_TAG_variable, DW_AT_name("try")
	.dwattr $C$DW$125, DW_AT_TI_symbol_name("try")
	.dwattr $C$DW$125, DW_AT_type(*$C$DW$T$10)
	.dwattr $C$DW$125, DW_AT_location[DW_OP_breg13 0]
	.dwpsn	file "../esp8266.c",line 407,column 10,is_stmt,isa 1
;----------------------------------------------------------------------
; 407 | int try=MAXTRY;                                                        
;----------------------------------------------------------------------
        MOVS      A1, #10               ; [DPU_3_PIPE] |407| 
        STR       A1, [SP, #0]          ; [DPU_3_PIPE] |407| 
	.dwpsn	file "../esp8266.c",line 408,column 3,is_stmt,isa 1
;----------------------------------------------------------------------
; 408 | strcpy(SearchString, "OK");                                            
;----------------------------------------------------------------------
        LDR       A1, $C$CON30          ; [DPU_3_PIPE] |408| 
        ADR       A2, $C$SL16           ; [DPU_3_PIPE] |408| 
$C$DW$126	.dwtag  DW_TAG_TI_branch
	.dwattr $C$DW$126, DW_AT_low_pc(0x00)
	.dwattr $C$DW$126, DW_AT_name("strcpy")
	.dwattr $C$DW$126, DW_AT_TI_call
        BL        strcpy                ; [DPU_3_PIPE] |408| 
        ; CALL OCCURS {strcpy }          ; [] |408| 
	.dwpsn	file "../esp8266.c",line 409,column 3,is_stmt,isa 1
;----------------------------------------------------------------------
; 409 | SearchLooking = true;                                                  
;----------------------------------------------------------------------
        LDR       A2, $C$CON27          ; [DPU_3_PIPE] |409| 
        MOVS      A1, #1                ; [DPU_3_PIPE] |409| 
        STRB      A1, [A2, #0]          ; [DPU_3_PIPE] |409| 
	.dwpsn	file "../esp8266.c",line 410,column 3,is_stmt,isa 1
;----------------------------------------------------------------------
; 410 | SearchFound = false;                                                   
;----------------------------------------------------------------------
        LDR       A2, $C$CON33          ; [DPU_3_PIPE] |410| 
        MOVS      A1, #0                ; [DPU_3_PIPE] |410| 
        STRB      A1, [A2, #0]          ; [DPU_3_PIPE] |410| 
	.dwpsn	file "../esp8266.c",line 411,column 3,is_stmt,isa 1
;----------------------------------------------------------------------
; 411 | while(try){                                                            
;----------------------------------------------------------------------
        LDR       A1, [SP, #0]          ; [DPU_3_PIPE] |411| 
        CBZ       A1, ||$C$L47||        ; [] 
        ; BRANCHCC OCCURS {||$C$L47||}   ; [] |411| 
;* --------------------------------------------------------------------------*
;*   BEGIN LOOP ||$C$L45||
;*
;*   Loop source line                : 411
;*   Loop closing brace source line  : 417
;*   Known Minimum Trip Count        : 1
;*   Known Maximum Trip Count        : 4294967295
;*   Known Max Trip Count Factor     : 1
;* --------------------------------------------------------------------------*
||$C$L45||:    
	.dwpsn	file "../esp8266.c",line 412,column 5,is_stmt,isa 1
;----------------------------------------------------------------------
; 412 | sprintf((char*)ESP8266_TXBuffer, "AT+CIPSERVER=0,%d\r\n", ESP8266_Serve
;     | rPort);                                                                
;----------------------------------------------------------------------
        LDR       A1, $C$CON32          ; [DPU_3_PIPE] |412| 
        LDRH      A3, [A1, #0]          ; [DPU_3_PIPE] |412| 
        LDR       A1, $C$CON29          ; [DPU_3_PIPE] |412| 
        ADR       A2, $C$SL20           ; [DPU_3_PIPE] |412| 
$C$DW$127	.dwtag  DW_TAG_TI_branch
	.dwattr $C$DW$127, DW_AT_low_pc(0x00)
	.dwattr $C$DW$127, DW_AT_name("sprintf")
	.dwattr $C$DW$127, DW_AT_TI_call
        BL        sprintf               ; [DPU_3_PIPE] |412| 
        ; CALL OCCURS {sprintf }         ; [] |412| 
	.dwpsn	file "../esp8266.c",line 413,column 5,is_stmt,isa 1
;----------------------------------------------------------------------
; 413 | ESP8266SendCommand((const char*)ESP8266_TXBuffer);                     
;----------------------------------------------------------------------
        LDR       A1, $C$CON29          ; [DPU_3_PIPE] |413| 
$C$DW$128	.dwtag  DW_TAG_TI_branch
	.dwattr $C$DW$128, DW_AT_low_pc(0x00)
	.dwattr $C$DW$128, DW_AT_name("ESP8266SendCommand")
	.dwattr $C$DW$128, DW_AT_TI_call
        BL        ESP8266SendCommand    ; [DPU_3_PIPE] |413| 
        ; CALL OCCURS {ESP8266SendCommand }  ; [] |413| 
	.dwpsn	file "../esp8266.c",line 414,column 5,is_stmt,isa 1
;----------------------------------------------------------------------
; 414 | DelayMsSearching(4000);                                                
;----------------------------------------------------------------------
        MOV       A1, #4000             ; [DPU_3_PIPE] |414| 
$C$DW$129	.dwtag  DW_TAG_TI_branch
	.dwattr $C$DW$129, DW_AT_low_pc(0x00)
	.dwattr $C$DW$129, DW_AT_name("DelayMsSearching")
	.dwattr $C$DW$129, DW_AT_TI_call
        BL        DelayMsSearching      ; [DPU_3_PIPE] |414| 
        ; CALL OCCURS {DelayMsSearching }  ; [] |414| 
	.dwpsn	file "../esp8266.c",line 415,column 5,is_stmt,isa 1
;----------------------------------------------------------------------
; 415 | if(SearchFound) return 1; // success                                   
;----------------------------------------------------------------------
        LDR       A1, $C$CON33          ; [DPU_3_PIPE] |415| 
        LDRB      A1, [A1, #0]          ; [DPU_3_PIPE] |415| 
        CBZ       A1, ||$C$L46||        ; [] 
        ; BRANCHCC OCCURS {||$C$L46||}   ; [] |415| 
;* --------------------------------------------------------------------------*
	.dwpsn	file "../esp8266.c",line 415,column 21,is_stmt,isa 1
        MOVS      A1, #1                ; [DPU_3_PIPE] |415| 
        B         ||$C$L48||            ; [DPU_3_PIPE] |415| 
        ; BRANCH OCCURS {||$C$L48||}     ; [] |415| 
;* --------------------------------------------------------------------------*
||$C$L46||:    
	.dwpsn	file "../esp8266.c",line 416,column 5,is_stmt,isa 1
;----------------------------------------------------------------------
; 416 | try--;                                                                 
;----------------------------------------------------------------------
        LDR       A1, [SP, #0]          ; [DPU_3_PIPE] |416| 
        SUBS      A1, A1, #1            ; [DPU_3_PIPE] |416| 
        STR       A1, [SP, #0]          ; [DPU_3_PIPE] |416| 
	.dwpsn	file "../esp8266.c",line 411,column 3,is_stmt,isa 1
        LDR       A1, [SP, #0]          ; [DPU_3_PIPE] |411| 
        CMP       A1, #0                ; [DPU_3_PIPE] |411| 
        BNE       ||$C$L45||            ; [DPU_3_PIPE] |411| 
        ; BRANCHCC OCCURS {||$C$L45||}   ; [] |411| 
;* --------------------------------------------------------------------------*
||$C$L47||:    
	.dwpsn	file "../esp8266.c",line 418,column 3,is_stmt,isa 1
;----------------------------------------------------------------------
; 418 | return 0; // fail                                                      
;----------------------------------------------------------------------
        MOVS      A1, #0                ; [DPU_3_PIPE] |418| 
;* --------------------------------------------------------------------------*
||$C$L48||:    
	.dwpsn	file "../esp8266.c",line 419,column 1,is_stmt,isa 1
$C$DW$130	.dwtag  DW_TAG_TI_branch
	.dwattr $C$DW$130, DW_AT_low_pc(0x00)
	.dwattr $C$DW$130, DW_AT_TI_return
        POP       {A4, PC}              ; [DPU_3_PIPE] 
	.dwcfi	cfa_offset, 0
        ; BRANCH OCCURS                  ; [] 
	.dwattr $C$DW$124, DW_AT_TI_end_file("../esp8266.c")
	.dwattr $C$DW$124, DW_AT_TI_end_line(0x1a3)
	.dwattr $C$DW$124, DW_AT_TI_end_column(0x01)
	.dwendentry
	.dwendtag $C$DW$124

	.sect	".text"
	.clink
	.thumbfunc ESP8266_JoinAccessPoint
	.thumb
	.global	ESP8266_JoinAccessPoint

$C$DW$131	.dwtag  DW_TAG_subprogram, DW_AT_name("ESP8266_JoinAccessPoint")
	.dwattr $C$DW$131, DW_AT_low_pc(ESP8266_JoinAccessPoint)
	.dwattr $C$DW$131, DW_AT_high_pc(0x00)
	.dwattr $C$DW$131, DW_AT_TI_symbol_name("ESP8266_JoinAccessPoint")
	.dwattr $C$DW$131, DW_AT_external
	.dwattr $C$DW$131, DW_AT_type(*$C$DW$T$10)
	.dwattr $C$DW$131, DW_AT_TI_begin_file("../esp8266.c")
	.dwattr $C$DW$131, DW_AT_TI_begin_line(0x1a9)
	.dwattr $C$DW$131, DW_AT_TI_begin_column(0x05)
	.dwattr $C$DW$131, DW_AT_decl_file("../esp8266.c")
	.dwattr $C$DW$131, DW_AT_decl_line(0x1a9)
	.dwattr $C$DW$131, DW_AT_decl_column(0x05)
	.dwattr $C$DW$131, DW_AT_TI_max_frame_size(0x10)
	.dwpsn	file "../esp8266.c",line 425,column 68,is_stmt,address ESP8266_JoinAccessPoint,isa 1

	.dwfde $C$DW$CIE, ESP8266_JoinAccessPoint
$C$DW$132	.dwtag  DW_TAG_formal_parameter, DW_AT_name("ssid")
	.dwattr $C$DW$132, DW_AT_TI_symbol_name("ssid")
	.dwattr $C$DW$132, DW_AT_type(*$C$DW$T$36)
	.dwattr $C$DW$132, DW_AT_location[DW_OP_reg0]
$C$DW$133	.dwtag  DW_TAG_formal_parameter, DW_AT_name("password")
	.dwattr $C$DW$133, DW_AT_TI_symbol_name("password")
	.dwattr $C$DW$133, DW_AT_type(*$C$DW$T$36)
	.dwattr $C$DW$133, DW_AT_location[DW_OP_reg1]

;*****************************************************************************
;* FUNCTION NAME: ESP8266_JoinAccessPoint                                    *
;*                                                                           *
;*   Regs Modified     : A1,A2,A3,A4,V9,SP,LR,SR,D0,D0_hi,D1,D1_hi,D2,D2_hi, *
;*                           D3,D3_hi,D4,D4_hi,D5,D5_hi,D6,D6_hi,D7,D7_hi,   *
;*                           FPEXC,FPSCR                                     *
;*   Regs Used         : A1,A2,A3,A4,V9,SP,LR,SR,D0,D0_hi,D1,D1_hi,D2,D2_hi, *
;*                           D3,D3_hi,D4,D4_hi,D5,D5_hi,D6,D6_hi,D7,D7_hi,   *
;*                           FPEXC,FPSCR                                     *
;*   Local Frame Size  : 0 Args + 12 Auto + 4 Save = 16 byte                 *
;*****************************************************************************
ESP8266_JoinAccessPoint:
;* --------------------------------------------------------------------------*
	.dwcfi	cfa_offset, 0
        PUSH      {A2, A3, A4, LR}      ; [DPU_3_PIPE] 
	.dwcfi	cfa_offset, 16
	.dwcfi	save_reg_to_mem, 14, -4
	.dwcfi	save_reg_to_mem, 3, -8
	.dwcfi	save_reg_to_mem, 2, -12
	.dwcfi	save_reg_to_mem, 1, -16
$C$DW$134	.dwtag  DW_TAG_variable, DW_AT_name("ssid")
	.dwattr $C$DW$134, DW_AT_TI_symbol_name("ssid")
	.dwattr $C$DW$134, DW_AT_type(*$C$DW$T$36)
	.dwattr $C$DW$134, DW_AT_location[DW_OP_breg13 0]
$C$DW$135	.dwtag  DW_TAG_variable, DW_AT_name("password")
	.dwattr $C$DW$135, DW_AT_TI_symbol_name("password")
	.dwattr $C$DW$135, DW_AT_type(*$C$DW$T$36)
	.dwattr $C$DW$135, DW_AT_location[DW_OP_breg13 4]
$C$DW$136	.dwtag  DW_TAG_variable, DW_AT_name("try")
	.dwattr $C$DW$136, DW_AT_TI_symbol_name("try")
	.dwattr $C$DW$136, DW_AT_type(*$C$DW$T$10)
	.dwattr $C$DW$136, DW_AT_location[DW_OP_breg13 8]
;----------------------------------------------------------------------
; 425 | int ESP8266_JoinAccessPoint(const char* ssid, const char* password){   
;----------------------------------------------------------------------
        STR       A2, [SP, #4]          ; [DPU_3_PIPE] |425| 
        STR       A1, [SP, #0]          ; [DPU_3_PIPE] |425| 
	.dwpsn	file "../esp8266.c",line 426,column 10,is_stmt,isa 1
;----------------------------------------------------------------------
; 426 | int try=MAXTRY;                                                        
;----------------------------------------------------------------------
        MOVS      A1, #10               ; [DPU_3_PIPE] |426| 
        STR       A1, [SP, #8]          ; [DPU_3_PIPE] |426| 
	.dwpsn	file "../esp8266.c",line 427,column 3,is_stmt,isa 1
;----------------------------------------------------------------------
; 427 | strcpy(SearchString, "OK");                                            
;----------------------------------------------------------------------
        LDR       A1, $C$CON30          ; [DPU_3_PIPE] |427| 
        ADR       A2, $C$SL16           ; [DPU_3_PIPE] |427| 
$C$DW$137	.dwtag  DW_TAG_TI_branch
	.dwattr $C$DW$137, DW_AT_low_pc(0x00)
	.dwattr $C$DW$137, DW_AT_name("strcpy")
	.dwattr $C$DW$137, DW_AT_TI_call
        BL        strcpy                ; [DPU_3_PIPE] |427| 
        ; CALL OCCURS {strcpy }          ; [] |427| 
	.dwpsn	file "../esp8266.c",line 428,column 3,is_stmt,isa 1
;----------------------------------------------------------------------
; 428 | SearchLooking = true;                                                  
;----------------------------------------------------------------------
        LDR       A2, $C$CON27          ; [DPU_3_PIPE] |428| 
        MOVS      A1, #1                ; [DPU_3_PIPE] |428| 
        STRB      A1, [A2, #0]          ; [DPU_3_PIPE] |428| 
	.dwpsn	file "../esp8266.c",line 429,column 3,is_stmt,isa 1
;----------------------------------------------------------------------
; 429 | SearchFound = false;                                                   
;----------------------------------------------------------------------
        LDR       A2, $C$CON33          ; [DPU_3_PIPE] |429| 
        MOVS      A1, #0                ; [DPU_3_PIPE] |429| 
        STRB      A1, [A2, #0]          ; [DPU_3_PIPE] |429| 
	.dwpsn	file "../esp8266.c",line 430,column 3,is_stmt,isa 1
;----------------------------------------------------------------------
; 430 | while(try){                                                            
;----------------------------------------------------------------------
        LDR       A1, [SP, #8]          ; [DPU_3_PIPE] |430| 
        CBZ       A1, ||$C$L51||        ; [] 
        ; BRANCHCC OCCURS {||$C$L51||}   ; [] |430| 
;* --------------------------------------------------------------------------*
;*   BEGIN LOOP ||$C$L49||
;*
;*   Loop source line                : 430
;*   Loop closing brace source line  : 436
;*   Known Minimum Trip Count        : 1
;*   Known Maximum Trip Count        : 4294967295
;*   Known Max Trip Count Factor     : 1
;* --------------------------------------------------------------------------*
||$C$L49||:    
	.dwpsn	file "../esp8266.c",line 431,column 5,is_stmt,isa 1
;----------------------------------------------------------------------
; 431 | sprintf((char*)ESP8266_TXBuffer, "AT+CWJAP=\"%s\",\"%s\"\r\n", ssid, pa
;     | ssword);                                                               
;----------------------------------------------------------------------
        LDR       A1, $C$CON29          ; [DPU_3_PIPE] |431| 
        LDR       A3, [SP, #0]          ; [DPU_3_PIPE] |431| 
        LDR       A4, [SP, #4]          ; [DPU_3_PIPE] |431| 
        ADR       A2, $C$SL21           ; [DPU_3_PIPE] |431| 
$C$DW$138	.dwtag  DW_TAG_TI_branch
	.dwattr $C$DW$138, DW_AT_low_pc(0x00)
	.dwattr $C$DW$138, DW_AT_name("sprintf")
	.dwattr $C$DW$138, DW_AT_TI_call
        BL        sprintf               ; [DPU_3_PIPE] |431| 
        ; CALL OCCURS {sprintf }         ; [] |431| 
	.dwpsn	file "../esp8266.c",line 432,column 5,is_stmt,isa 1
;----------------------------------------------------------------------
; 432 | ESP8266SendCommand((const char*)ESP8266_TXBuffer);                     
;----------------------------------------------------------------------
        LDR       A1, $C$CON29          ; [DPU_3_PIPE] |432| 
$C$DW$139	.dwtag  DW_TAG_TI_branch
	.dwattr $C$DW$139, DW_AT_low_pc(0x00)
	.dwattr $C$DW$139, DW_AT_name("ESP8266SendCommand")
	.dwattr $C$DW$139, DW_AT_TI_call
        BL        ESP8266SendCommand    ; [DPU_3_PIPE] |432| 
        ; CALL OCCURS {ESP8266SendCommand }  ; [] |432| 
	.dwpsn	file "../esp8266.c",line 433,column 5,is_stmt,isa 1
;----------------------------------------------------------------------
; 433 | DelayMsSearching(4000);                                                
;----------------------------------------------------------------------
        MOV       A1, #4000             ; [DPU_3_PIPE] |433| 
$C$DW$140	.dwtag  DW_TAG_TI_branch
	.dwattr $C$DW$140, DW_AT_low_pc(0x00)
	.dwattr $C$DW$140, DW_AT_name("DelayMsSearching")
	.dwattr $C$DW$140, DW_AT_TI_call
        BL        DelayMsSearching      ; [DPU_3_PIPE] |433| 
        ; CALL OCCURS {DelayMsSearching }  ; [] |433| 
	.dwpsn	file "../esp8266.c",line 434,column 5,is_stmt,isa 1
;----------------------------------------------------------------------
; 434 | if(SearchFound) return 1; // success                                   
;----------------------------------------------------------------------
        LDR       A1, $C$CON33          ; [DPU_3_PIPE] |434| 
        LDRB      A1, [A1, #0]          ; [DPU_3_PIPE] |434| 
        CBZ       A1, ||$C$L50||        ; [] 
        ; BRANCHCC OCCURS {||$C$L50||}   ; [] |434| 
;* --------------------------------------------------------------------------*
	.dwpsn	file "../esp8266.c",line 434,column 21,is_stmt,isa 1
        MOVS      A1, #1                ; [DPU_3_PIPE] |434| 
        B         ||$C$L52||            ; [DPU_3_PIPE] |434| 
        ; BRANCH OCCURS {||$C$L52||}     ; [] |434| 
;* --------------------------------------------------------------------------*
||$C$L50||:    
	.dwpsn	file "../esp8266.c",line 435,column 5,is_stmt,isa 1
;----------------------------------------------------------------------
; 435 | try--;                                                                 
;----------------------------------------------------------------------
        LDR       A1, [SP, #8]          ; [DPU_3_PIPE] |435| 
        SUBS      A1, A1, #1            ; [DPU_3_PIPE] |435| 
        STR       A1, [SP, #8]          ; [DPU_3_PIPE] |435| 
	.dwpsn	file "../esp8266.c",line 430,column 3,is_stmt,isa 1
        LDR       A1, [SP, #8]          ; [DPU_3_PIPE] |430| 
        CMP       A1, #0                ; [DPU_3_PIPE] |430| 
        BNE       ||$C$L49||            ; [DPU_3_PIPE] |430| 
        ; BRANCHCC OCCURS {||$C$L49||}   ; [] |430| 
;* --------------------------------------------------------------------------*
||$C$L51||:    
	.dwpsn	file "../esp8266.c",line 437,column 3,is_stmt,isa 1
;----------------------------------------------------------------------
; 437 | return 0; // fail                                                      
;----------------------------------------------------------------------
        MOVS      A1, #0                ; [DPU_3_PIPE] |437| 
;* --------------------------------------------------------------------------*
||$C$L52||:    
	.dwpsn	file "../esp8266.c",line 438,column 1,is_stmt,isa 1
$C$DW$141	.dwtag  DW_TAG_TI_branch
	.dwattr $C$DW$141, DW_AT_low_pc(0x00)
	.dwattr $C$DW$141, DW_AT_TI_return
        POP       {A2, A3, A4, PC}      ; [DPU_3_PIPE] 
	.dwcfi	cfa_offset, 0
        ; BRANCH OCCURS                  ; [] 
	.dwattr $C$DW$131, DW_AT_TI_end_file("../esp8266.c")
	.dwattr $C$DW$131, DW_AT_TI_end_line(0x1b6)
	.dwattr $C$DW$131, DW_AT_TI_end_column(0x01)
	.dwendentry
	.dwendtag $C$DW$131

;******************************************************************************
;* CONSTANT TABLE                                                             *
;******************************************************************************
	.sect	".text"
	.align	4
||$C$CON28||:	.bits	1073763324,32
	.sect	".text"
	.clink
	.thumbfunc ESP8266_ListAccessPoints
	.thumb
	.global	ESP8266_ListAccessPoints

$C$DW$142	.dwtag  DW_TAG_subprogram, DW_AT_name("ESP8266_ListAccessPoints")
	.dwattr $C$DW$142, DW_AT_low_pc(ESP8266_ListAccessPoints)
	.dwattr $C$DW$142, DW_AT_high_pc(0x00)
	.dwattr $C$DW$142, DW_AT_TI_symbol_name("ESP8266_ListAccessPoints")
	.dwattr $C$DW$142, DW_AT_external
	.dwattr $C$DW$142, DW_AT_type(*$C$DW$T$10)
	.dwattr $C$DW$142, DW_AT_TI_begin_file("../esp8266.c")
	.dwattr $C$DW$142, DW_AT_TI_begin_line(0x1be)
	.dwattr $C$DW$142, DW_AT_TI_begin_column(0x05)
	.dwattr $C$DW$142, DW_AT_decl_file("../esp8266.c")
	.dwattr $C$DW$142, DW_AT_decl_line(0x1be)
	.dwattr $C$DW$142, DW_AT_decl_column(0x05)
	.dwattr $C$DW$142, DW_AT_TI_max_frame_size(0x08)
	.dwpsn	file "../esp8266.c",line 446,column 35,is_stmt,address ESP8266_ListAccessPoints,isa 1

	.dwfde $C$DW$CIE, ESP8266_ListAccessPoints
;----------------------------------------------------------------------
; 446 | int ESP8266_ListAccessPoints(void){                                    
;----------------------------------------------------------------------

;*****************************************************************************
;* FUNCTION NAME: ESP8266_ListAccessPoints                                   *
;*                                                                           *
;*   Regs Modified     : A1,A2,A3,A4,V9,SP,LR,SR,D0,D0_hi,D1,D1_hi,D2,D2_hi, *
;*                           D3,D3_hi,D4,D4_hi,D5,D5_hi,D6,D6_hi,D7,D7_hi,   *
;*                           FPEXC,FPSCR                                     *
;*   Regs Used         : A1,A2,A3,A4,V9,SP,LR,SR,D0,D0_hi,D1,D1_hi,D2,D2_hi, *
;*                           D3,D3_hi,D4,D4_hi,D5,D5_hi,D6,D6_hi,D7,D7_hi,   *
;*                           FPEXC,FPSCR                                     *
;*   Local Frame Size  : 0 Args + 4 Auto + 4 Save = 8 byte                   *
;*****************************************************************************
ESP8266_ListAccessPoints:
;* --------------------------------------------------------------------------*
	.dwcfi	cfa_offset, 0
        PUSH      {A4, LR}              ; [DPU_3_PIPE] 
	.dwcfi	cfa_offset, 8
	.dwcfi	save_reg_to_mem, 14, -4
	.dwcfi	save_reg_to_mem, 3, -8
$C$DW$143	.dwtag  DW_TAG_variable, DW_AT_name("try")
	.dwattr $C$DW$143, DW_AT_TI_symbol_name("try")
	.dwattr $C$DW$143, DW_AT_type(*$C$DW$T$10)
	.dwattr $C$DW$143, DW_AT_location[DW_OP_breg13 0]
	.dwpsn	file "../esp8266.c",line 447,column 10,is_stmt,isa 1
;----------------------------------------------------------------------
; 447 | int try=MAXTRY;                                                        
;----------------------------------------------------------------------
        MOVS      A1, #10               ; [DPU_3_PIPE] |447| 
        STR       A1, [SP, #0]          ; [DPU_3_PIPE] |447| 
	.dwpsn	file "../esp8266.c",line 448,column 3,is_stmt,isa 1
;----------------------------------------------------------------------
; 448 | strcpy(SearchString, "OK");                                            
;----------------------------------------------------------------------
        LDR       A1, $C$CON30          ; [DPU_3_PIPE] |448| 
        ADR       A2, $C$SL16           ; [DPU_3_PIPE] |448| 
$C$DW$144	.dwtag  DW_TAG_TI_branch
	.dwattr $C$DW$144, DW_AT_low_pc(0x00)
	.dwattr $C$DW$144, DW_AT_name("strcpy")
	.dwattr $C$DW$144, DW_AT_TI_call
        BL        strcpy                ; [DPU_3_PIPE] |448| 
        ; CALL OCCURS {strcpy }          ; [] |448| 
	.dwpsn	file "../esp8266.c",line 449,column 3,is_stmt,isa 1
;----------------------------------------------------------------------
; 449 | SearchLooking = true;                                                  
;----------------------------------------------------------------------
        LDR       A2, $C$CON27          ; [DPU_3_PIPE] |449| 
        MOVS      A1, #1                ; [DPU_3_PIPE] |449| 
        STRB      A1, [A2, #0]          ; [DPU_3_PIPE] |449| 
	.dwpsn	file "../esp8266.c",line 450,column 3,is_stmt,isa 1
;----------------------------------------------------------------------
; 450 | SearchFound = false;                                                   
;----------------------------------------------------------------------
        LDR       A2, $C$CON33          ; [DPU_3_PIPE] |450| 
        MOVS      A1, #0                ; [DPU_3_PIPE] |450| 
        STRB      A1, [A2, #0]          ; [DPU_3_PIPE] |450| 
	.dwpsn	file "../esp8266.c",line 451,column 3,is_stmt,isa 1
;----------------------------------------------------------------------
; 451 | while(try){                                                            
;----------------------------------------------------------------------
        LDR       A1, [SP, #0]          ; [DPU_3_PIPE] |451| 
        CBZ       A1, ||$C$L55||        ; [] 
        ; BRANCHCC OCCURS {||$C$L55||}   ; [] |451| 
;* --------------------------------------------------------------------------*
;*   BEGIN LOOP ||$C$L53||
;*
;*   Loop source line                : 451
;*   Loop closing brace source line  : 456
;*   Known Minimum Trip Count        : 1
;*   Known Maximum Trip Count        : 4294967295
;*   Known Max Trip Count Factor     : 1
;* --------------------------------------------------------------------------*
||$C$L53||:    
	.dwpsn	file "../esp8266.c",line 452,column 5,is_stmt,isa 1
;----------------------------------------------------------------------
; 452 | ESP8266SendCommand("AT+CWLAP\r\n");                                    
;----------------------------------------------------------------------
        ADR       A1, $C$SL22           ; [DPU_3_PIPE] |452| 
$C$DW$145	.dwtag  DW_TAG_TI_branch
	.dwattr $C$DW$145, DW_AT_low_pc(0x00)
	.dwattr $C$DW$145, DW_AT_name("ESP8266SendCommand")
	.dwattr $C$DW$145, DW_AT_TI_call
        BL        ESP8266SendCommand    ; [DPU_3_PIPE] |452| 
        ; CALL OCCURS {ESP8266SendCommand }  ; [] |452| 
	.dwpsn	file "../esp8266.c",line 453,column 5,is_stmt,isa 1
;----------------------------------------------------------------------
; 453 | DelayMsSearching(8000);                                                
;----------------------------------------------------------------------
        MOV       A1, #8000             ; [DPU_3_PIPE] |453| 
$C$DW$146	.dwtag  DW_TAG_TI_branch
	.dwattr $C$DW$146, DW_AT_low_pc(0x00)
	.dwattr $C$DW$146, DW_AT_name("DelayMsSearching")
	.dwattr $C$DW$146, DW_AT_TI_call
        BL        DelayMsSearching      ; [DPU_3_PIPE] |453| 
        ; CALL OCCURS {DelayMsSearching }  ; [] |453| 
	.dwpsn	file "../esp8266.c",line 454,column 5,is_stmt,isa 1
;----------------------------------------------------------------------
; 454 | if(SearchFound) return 1; // success                                   
;----------------------------------------------------------------------
        LDR       A1, $C$CON33          ; [DPU_3_PIPE] |454| 
        LDRB      A1, [A1, #0]          ; [DPU_3_PIPE] |454| 
        CBZ       A1, ||$C$L54||        ; [] 
        ; BRANCHCC OCCURS {||$C$L54||}   ; [] |454| 
;* --------------------------------------------------------------------------*
	.dwpsn	file "../esp8266.c",line 454,column 21,is_stmt,isa 1
        MOVS      A1, #1                ; [DPU_3_PIPE] |454| 
        B         ||$C$L56||            ; [DPU_3_PIPE] |454| 
        ; BRANCH OCCURS {||$C$L56||}     ; [] |454| 
;* --------------------------------------------------------------------------*
||$C$L54||:    
	.dwpsn	file "../esp8266.c",line 455,column 5,is_stmt,isa 1
;----------------------------------------------------------------------
; 455 | try--;                                                                 
;----------------------------------------------------------------------
        LDR       A1, [SP, #0]          ; [DPU_3_PIPE] |455| 
        SUBS      A1, A1, #1            ; [DPU_3_PIPE] |455| 
        STR       A1, [SP, #0]          ; [DPU_3_PIPE] |455| 
	.dwpsn	file "../esp8266.c",line 451,column 3,is_stmt,isa 1
        LDR       A1, [SP, #0]          ; [DPU_3_PIPE] |451| 
        CMP       A1, #0                ; [DPU_3_PIPE] |451| 
        BNE       ||$C$L53||            ; [DPU_3_PIPE] |451| 
        ; BRANCHCC OCCURS {||$C$L53||}   ; [] |451| 
;* --------------------------------------------------------------------------*
||$C$L55||:    
	.dwpsn	file "../esp8266.c",line 457,column 3,is_stmt,isa 1
;----------------------------------------------------------------------
; 457 | return 0; // fail                                                      
;----------------------------------------------------------------------
        MOVS      A1, #0                ; [DPU_3_PIPE] |457| 
;* --------------------------------------------------------------------------*
||$C$L56||:    
	.dwpsn	file "../esp8266.c",line 458,column 1,is_stmt,isa 1
$C$DW$147	.dwtag  DW_TAG_TI_branch
	.dwattr $C$DW$147, DW_AT_low_pc(0x00)
	.dwattr $C$DW$147, DW_AT_TI_return
        POP       {A4, PC}              ; [DPU_3_PIPE] 
	.dwcfi	cfa_offset, 0
        ; BRANCH OCCURS                  ; [] 
;******************************************************************************
;* CONSTANT TABLE                                                             *
;******************************************************************************
	.sect	".text"
	.align	4
||$C$CON27||:	.bits	SearchLooking,32
	.dwattr $C$DW$142, DW_AT_TI_end_file("../esp8266.c")
	.dwattr $C$DW$142, DW_AT_TI_end_line(0x1ca)
	.dwattr $C$DW$142, DW_AT_TI_end_column(0x01)
	.dwendentry
	.dwendtag $C$DW$142

	.sect	".text"
	.clink
	.thumbfunc ESP8266_QuitAccessPoint
	.thumb
	.global	ESP8266_QuitAccessPoint

$C$DW$148	.dwtag  DW_TAG_subprogram, DW_AT_name("ESP8266_QuitAccessPoint")
	.dwattr $C$DW$148, DW_AT_low_pc(ESP8266_QuitAccessPoint)
	.dwattr $C$DW$148, DW_AT_high_pc(0x00)
	.dwattr $C$DW$148, DW_AT_TI_symbol_name("ESP8266_QuitAccessPoint")
	.dwattr $C$DW$148, DW_AT_external
	.dwattr $C$DW$148, DW_AT_TI_begin_file("../esp8266.c")
	.dwattr $C$DW$148, DW_AT_TI_begin_line(0x1d2)
	.dwattr $C$DW$148, DW_AT_TI_begin_column(0x06)
	.dwattr $C$DW$148, DW_AT_decl_file("../esp8266.c")
	.dwattr $C$DW$148, DW_AT_decl_line(0x1d2)
	.dwattr $C$DW$148, DW_AT_decl_column(0x06)
	.dwattr $C$DW$148, DW_AT_TI_max_frame_size(0x08)
	.dwpsn	file "../esp8266.c",line 466,column 31,is_stmt,address ESP8266_QuitAccessPoint,isa 1

	.dwfde $C$DW$CIE, ESP8266_QuitAccessPoint
;----------------------------------------------------------------------
; 466 | void ESP8266_QuitAccessPoint(){                                        
;----------------------------------------------------------------------

;*****************************************************************************
;* FUNCTION NAME: ESP8266_QuitAccessPoint                                    *
;*                                                                           *
;*   Regs Modified     : A1,A2,A3,A4,V9,SP,LR,SR,D0,D0_hi,D1,D1_hi,D2,D2_hi, *
;*                           D3,D3_hi,D4,D4_hi,D5,D5_hi,D6,D6_hi,D7,D7_hi,   *
;*                           FPEXC,FPSCR                                     *
;*   Regs Used         : A1,A2,A3,A4,V9,SP,LR,SR,D0,D0_hi,D1,D1_hi,D2,D2_hi, *
;*                           D3,D3_hi,D4,D4_hi,D5,D5_hi,D6,D6_hi,D7,D7_hi,   *
;*                           FPEXC,FPSCR                                     *
;*   Local Frame Size  : 0 Args + 0 Auto + 4 Save = 4 byte                   *
;*****************************************************************************
ESP8266_QuitAccessPoint:
;* --------------------------------------------------------------------------*
	.dwcfi	cfa_offset, 0
        PUSH      {A4, LR}              ; [DPU_3_PIPE] 
	.dwcfi	cfa_offset, 8
	.dwcfi	save_reg_to_mem, 14, -4
	.dwcfi	save_reg_to_mem, 3, -8
	.dwpsn	file "../esp8266.c",line 467,column 3,is_stmt,isa 1
;----------------------------------------------------------------------
; 467 | ESP8266SendCommand("AT+CWQAP\r\n");                                    
;----------------------------------------------------------------------
        ADR       A1, $C$SL23           ; [DPU_3_PIPE] |467| 
$C$DW$149	.dwtag  DW_TAG_TI_branch
	.dwattr $C$DW$149, DW_AT_low_pc(0x00)
	.dwattr $C$DW$149, DW_AT_name("ESP8266SendCommand")
	.dwattr $C$DW$149, DW_AT_TI_call
        BL        ESP8266SendCommand    ; [DPU_3_PIPE] |467| 
        ; CALL OCCURS {ESP8266SendCommand }  ; [] |467| 
	.dwpsn	file "../esp8266.c",line 468,column 1,is_stmt,isa 1
$C$DW$150	.dwtag  DW_TAG_TI_branch
	.dwattr $C$DW$150, DW_AT_low_pc(0x00)
	.dwattr $C$DW$150, DW_AT_TI_return
        POP       {A4, PC}              ; [DPU_3_PIPE] 
	.dwcfi	cfa_offset, 0
        ; BRANCH OCCURS                  ; [] 
	.dwattr $C$DW$148, DW_AT_TI_end_file("../esp8266.c")
	.dwattr $C$DW$148, DW_AT_TI_end_line(0x1d4)
	.dwattr $C$DW$148, DW_AT_TI_end_column(0x01)
	.dwendentry
	.dwendtag $C$DW$148

;******************************************************************************
;* STRINGS                                                                    *
;******************************************************************************
	.sect	".text"
	.align	4
||$C$SL12||:	.string	"System Ready",0
	.align	4
||$C$SL13||:	.string	"AT+RST",13,10,0
	.sect	".text"
	.clink
	.thumbfunc ESP8266_ConfigureAccessPoint
	.thumb
	.global	ESP8266_ConfigureAccessPoint

$C$DW$151	.dwtag  DW_TAG_subprogram, DW_AT_name("ESP8266_ConfigureAccessPoint")
	.dwattr $C$DW$151, DW_AT_low_pc(ESP8266_ConfigureAccessPoint)
	.dwattr $C$DW$151, DW_AT_high_pc(0x00)
	.dwattr $C$DW$151, DW_AT_TI_symbol_name("ESP8266_ConfigureAccessPoint")
	.dwattr $C$DW$151, DW_AT_external
	.dwattr $C$DW$151, DW_AT_type(*$C$DW$T$10)
	.dwattr $C$DW$151, DW_AT_TI_begin_file("../esp8266.c")
	.dwattr $C$DW$151, DW_AT_TI_begin_line(0x1db)
	.dwattr $C$DW$151, DW_AT_TI_begin_column(0x05)
	.dwattr $C$DW$151, DW_AT_decl_file("../esp8266.c")
	.dwattr $C$DW$151, DW_AT_decl_line(0x1db)
	.dwattr $C$DW$151, DW_AT_decl_column(0x05)
	.dwattr $C$DW$151, DW_AT_TI_max_frame_size(0x20)
	.dwpsn	file "../esp8266.c",line 475,column 111,is_stmt,address ESP8266_ConfigureAccessPoint,isa 1

	.dwfde $C$DW$CIE, ESP8266_ConfigureAccessPoint
$C$DW$152	.dwtag  DW_TAG_formal_parameter, DW_AT_name("ssid")
	.dwattr $C$DW$152, DW_AT_TI_symbol_name("ssid")
	.dwattr $C$DW$152, DW_AT_type(*$C$DW$T$36)
	.dwattr $C$DW$152, DW_AT_location[DW_OP_reg0]
$C$DW$153	.dwtag  DW_TAG_formal_parameter, DW_AT_name("password")
	.dwattr $C$DW$153, DW_AT_TI_symbol_name("password")
	.dwattr $C$DW$153, DW_AT_type(*$C$DW$T$36)
	.dwattr $C$DW$153, DW_AT_location[DW_OP_reg1]
$C$DW$154	.dwtag  DW_TAG_formal_parameter, DW_AT_name("channel")
	.dwattr $C$DW$154, DW_AT_TI_symbol_name("channel")
	.dwattr $C$DW$154, DW_AT_type(*$C$DW$T$48)
	.dwattr $C$DW$154, DW_AT_location[DW_OP_reg2]
$C$DW$155	.dwtag  DW_TAG_formal_parameter, DW_AT_name("encryptMode")
	.dwattr $C$DW$155, DW_AT_TI_symbol_name("encryptMode")
	.dwattr $C$DW$155, DW_AT_type(*$C$DW$T$48)
	.dwattr $C$DW$155, DW_AT_location[DW_OP_reg3]

;*****************************************************************************
;* FUNCTION NAME: ESP8266_ConfigureAccessPoint                               *
;*                                                                           *
;*   Regs Modified     : A1,A2,A3,A4,V9,SP,LR,SR,D0,D0_hi,D1,D1_hi,D2,D2_hi, *
;*                           D3,D3_hi,D4,D4_hi,D5,D5_hi,D6,D6_hi,D7,D7_hi,   *
;*                           FPEXC,FPSCR                                     *
;*   Regs Used         : A1,A2,A3,A4,V9,SP,LR,SR,D0,D0_hi,D1,D1_hi,D2,D2_hi, *
;*                           D3,D3_hi,D4,D4_hi,D5,D5_hi,D6,D6_hi,D7,D7_hi,   *
;*                           FPEXC,FPSCR                                     *
;*   Local Frame Size  : 8 Args + 16 Auto + 4 Save = 28 byte                 *
;*****************************************************************************
ESP8266_ConfigureAccessPoint:
;* --------------------------------------------------------------------------*
	.dwcfi	cfa_offset, 0
        PUSH      {LR}                  ; [DPU_3_PIPE] 
	.dwcfi	cfa_offset, 4
	.dwcfi	save_reg_to_mem, 14, -4
        SUB       SP, SP, #28           ; [DPU_3_PIPE] 
	.dwcfi	cfa_offset, 32
$C$DW$156	.dwtag  DW_TAG_variable, DW_AT_name("ssid")
	.dwattr $C$DW$156, DW_AT_TI_symbol_name("ssid")
	.dwattr $C$DW$156, DW_AT_type(*$C$DW$T$36)
	.dwattr $C$DW$156, DW_AT_location[DW_OP_breg13 8]
$C$DW$157	.dwtag  DW_TAG_variable, DW_AT_name("password")
	.dwattr $C$DW$157, DW_AT_TI_symbol_name("password")
	.dwattr $C$DW$157, DW_AT_type(*$C$DW$T$36)
	.dwattr $C$DW$157, DW_AT_location[DW_OP_breg13 12]
$C$DW$158	.dwtag  DW_TAG_variable, DW_AT_name("channel")
	.dwattr $C$DW$158, DW_AT_TI_symbol_name("channel")
	.dwattr $C$DW$158, DW_AT_type(*$C$DW$T$48)
	.dwattr $C$DW$158, DW_AT_location[DW_OP_breg13 16]
$C$DW$159	.dwtag  DW_TAG_variable, DW_AT_name("encryptMode")
	.dwattr $C$DW$159, DW_AT_TI_symbol_name("encryptMode")
	.dwattr $C$DW$159, DW_AT_type(*$C$DW$T$48)
	.dwattr $C$DW$159, DW_AT_location[DW_OP_breg13 17]
$C$DW$160	.dwtag  DW_TAG_variable, DW_AT_name("try")
	.dwattr $C$DW$160, DW_AT_TI_symbol_name("try")
	.dwattr $C$DW$160, DW_AT_type(*$C$DW$T$10)
	.dwattr $C$DW$160, DW_AT_location[DW_OP_breg13 20]
;----------------------------------------------------------------------
; 475 | int ESP8266_ConfigureAccessPoint(const char* ssid, const char* password
;     | , uint8_t channel, uint8_t encryptMode){                               
;----------------------------------------------------------------------
        STRB      A4, [SP, #17]         ; [DPU_3_PIPE] |475| 
        STRB      A3, [SP, #16]         ; [DPU_3_PIPE] |475| 
        STR       A2, [SP, #12]         ; [DPU_3_PIPE] |475| 
        STR       A1, [SP, #8]          ; [DPU_3_PIPE] |475| 
	.dwpsn	file "../esp8266.c",line 476,column 10,is_stmt,isa 1
;----------------------------------------------------------------------
; 476 | int try=MAXTRY;                                                        
;----------------------------------------------------------------------
        MOVS      A1, #10               ; [DPU_3_PIPE] |476| 
        STR       A1, [SP, #20]         ; [DPU_3_PIPE] |476| 
	.dwpsn	file "../esp8266.c",line 477,column 3,is_stmt,isa 1
;----------------------------------------------------------------------
; 477 | strcpy(SearchString, "OK");                                            
;----------------------------------------------------------------------
        LDR       A1, $C$CON30          ; [DPU_3_PIPE] |477| 
        ADR       A2, $C$SL16           ; [DPU_3_PIPE] |477| 
$C$DW$161	.dwtag  DW_TAG_TI_branch
	.dwattr $C$DW$161, DW_AT_low_pc(0x00)
	.dwattr $C$DW$161, DW_AT_name("strcpy")
	.dwattr $C$DW$161, DW_AT_TI_call
        BL        strcpy                ; [DPU_3_PIPE] |477| 
        ; CALL OCCURS {strcpy }          ; [] |477| 
	.dwpsn	file "../esp8266.c",line 478,column 3,is_stmt,isa 1
;----------------------------------------------------------------------
; 478 | SearchLooking = true;                                                  
;----------------------------------------------------------------------
        LDR       A2, $C$CON34          ; [DPU_3_PIPE] |478| 
        MOVS      A1, #1                ; [DPU_3_PIPE] |478| 
        STRB      A1, [A2, #0]          ; [DPU_3_PIPE] |478| 
	.dwpsn	file "../esp8266.c",line 479,column 3,is_stmt,isa 1
;----------------------------------------------------------------------
; 479 | SearchFound = false;                                                   
;----------------------------------------------------------------------
        LDR       A2, $C$CON33          ; [DPU_3_PIPE] |479| 
        MOVS      A1, #0                ; [DPU_3_PIPE] |479| 
        STRB      A1, [A2, #0]          ; [DPU_3_PIPE] |479| 
	.dwpsn	file "../esp8266.c",line 480,column 3,is_stmt,isa 1
;----------------------------------------------------------------------
; 480 | while(try){                                                            
;----------------------------------------------------------------------
        LDR       A1, [SP, #20]         ; [DPU_3_PIPE] |480| 
        CBZ       A1, ||$C$L59||        ; [] 
        ; BRANCHCC OCCURS {||$C$L59||}   ; [] |480| 
;* --------------------------------------------------------------------------*
;*   BEGIN LOOP ||$C$L57||
;*
;*   Loop source line                : 480
;*   Loop closing brace source line  : 486
;*   Known Minimum Trip Count        : 1
;*   Known Maximum Trip Count        : 4294967295
;*   Known Max Trip Count Factor     : 1
;* --------------------------------------------------------------------------*
||$C$L57||:    
	.dwpsn	file "../esp8266.c",line 481,column 5,is_stmt,isa 1
;----------------------------------------------------------------------
; 481 | sprintf((char*)ESP8266_TXBuffer, "AT+CWSAP=\"%s\",\"%s\",%d,%d\r\n", ss
;     | id, password, channel, encryptMode);                                   
;----------------------------------------------------------------------
        LDRB      A1, [SP, #16]         ; [DPU_3_PIPE] |481| 
        STR       A1, [SP, #0]          ; [DPU_3_PIPE] |481| 
        LDRB      A1, [SP, #17]         ; [DPU_3_PIPE] |481| 
        STR       A1, [SP, #4]          ; [DPU_3_PIPE] |481| 
        LDR       A1, $C$CON29          ; [DPU_3_PIPE] |481| 
        LDR       A3, [SP, #8]          ; [DPU_3_PIPE] |481| 
        LDR       A4, [SP, #12]         ; [DPU_3_PIPE] |481| 
        ADR       A2, $C$SL24           ; [DPU_3_PIPE] |481| 
$C$DW$162	.dwtag  DW_TAG_TI_branch
	.dwattr $C$DW$162, DW_AT_low_pc(0x00)
	.dwattr $C$DW$162, DW_AT_name("sprintf")
	.dwattr $C$DW$162, DW_AT_TI_call
        BL        sprintf               ; [DPU_3_PIPE] |481| 
        ; CALL OCCURS {sprintf }         ; [] |481| 
	.dwpsn	file "../esp8266.c",line 482,column 5,is_stmt,isa 1
;----------------------------------------------------------------------
; 482 | ESP8266SendCommand((const char*)ESP8266_TXBuffer);                     
;----------------------------------------------------------------------
        LDR       A1, $C$CON29          ; [DPU_3_PIPE] |482| 
$C$DW$163	.dwtag  DW_TAG_TI_branch
	.dwattr $C$DW$163, DW_AT_low_pc(0x00)
	.dwattr $C$DW$163, DW_AT_name("ESP8266SendCommand")
	.dwattr $C$DW$163, DW_AT_TI_call
        BL        ESP8266SendCommand    ; [DPU_3_PIPE] |482| 
        ; CALL OCCURS {ESP8266SendCommand }  ; [] |482| 
	.dwpsn	file "../esp8266.c",line 483,column 5,is_stmt,isa 1
;----------------------------------------------------------------------
; 483 | DelayMsSearching(4000);                                                
;----------------------------------------------------------------------
        MOV       A1, #4000             ; [DPU_3_PIPE] |483| 
$C$DW$164	.dwtag  DW_TAG_TI_branch
	.dwattr $C$DW$164, DW_AT_low_pc(0x00)
	.dwattr $C$DW$164, DW_AT_name("DelayMsSearching")
	.dwattr $C$DW$164, DW_AT_TI_call
        BL        DelayMsSearching      ; [DPU_3_PIPE] |483| 
        ; CALL OCCURS {DelayMsSearching }  ; [] |483| 
	.dwpsn	file "../esp8266.c",line 484,column 5,is_stmt,isa 1
;----------------------------------------------------------------------
; 484 | if(SearchFound) return 1; // success                                   
;----------------------------------------------------------------------
        LDR       A1, $C$CON33          ; [DPU_3_PIPE] |484| 
        LDRB      A1, [A1, #0]          ; [DPU_3_PIPE] |484| 
        CBZ       A1, ||$C$L58||        ; [] 
        ; BRANCHCC OCCURS {||$C$L58||}   ; [] |484| 
;* --------------------------------------------------------------------------*
	.dwpsn	file "../esp8266.c",line 484,column 21,is_stmt,isa 1
        MOVS      A1, #1                ; [DPU_3_PIPE] |484| 
        B         ||$C$L60||            ; [DPU_3_PIPE] |484| 
        ; BRANCH OCCURS {||$C$L60||}     ; [] |484| 
;* --------------------------------------------------------------------------*
||$C$L58||:    
	.dwpsn	file "../esp8266.c",line 485,column 5,is_stmt,isa 1
;----------------------------------------------------------------------
; 485 | try--;                                                                 
;----------------------------------------------------------------------
        LDR       A1, [SP, #20]         ; [DPU_3_PIPE] |485| 
        SUBS      A1, A1, #1            ; [DPU_3_PIPE] |485| 
        STR       A1, [SP, #20]         ; [DPU_3_PIPE] |485| 
	.dwpsn	file "../esp8266.c",line 480,column 3,is_stmt,isa 1
        LDR       A1, [SP, #20]         ; [DPU_3_PIPE] |480| 
        CMP       A1, #0                ; [DPU_3_PIPE] |480| 
        BNE       ||$C$L57||            ; [DPU_3_PIPE] |480| 
        ; BRANCHCC OCCURS {||$C$L57||}   ; [] |480| 
;* --------------------------------------------------------------------------*
||$C$L59||:    
	.dwpsn	file "../esp8266.c",line 487,column 3,is_stmt,isa 1
;----------------------------------------------------------------------
; 487 | return 0; // fail                                                      
;----------------------------------------------------------------------
        MOVS      A1, #0                ; [DPU_3_PIPE] |487| 
;* --------------------------------------------------------------------------*
||$C$L60||:    
	.dwpsn	file "../esp8266.c",line 488,column 1,is_stmt,isa 1
        ADD       SP, SP, #28           ; [DPU_3_PIPE] 
	.dwcfi	cfa_offset, 4
$C$DW$165	.dwtag  DW_TAG_TI_branch
	.dwattr $C$DW$165, DW_AT_low_pc(0x00)
	.dwattr $C$DW$165, DW_AT_TI_return
        POP       {PC}                  ; [DPU_3_PIPE] 
	.dwcfi	cfa_offset, 0
        ; BRANCH OCCURS                  ; [] 
;******************************************************************************
;* CONSTANT TABLE                                                             *
;******************************************************************************
	.sect	".text"
	.align	4
||$C$CON29||:	.bits	ESP8266_TXBuffer,32
	.align	4
||$C$CON30||:	.bits	SearchString,32
	.dwattr $C$DW$151, DW_AT_TI_end_file("../esp8266.c")
	.dwattr $C$DW$151, DW_AT_TI_end_line(0x1e8)
	.dwattr $C$DW$151, DW_AT_TI_end_column(0x01)
	.dwendentry
	.dwendtag $C$DW$151

;******************************************************************************
;* STRINGS                                                                    *
;******************************************************************************
	.sect	".text"
	.align	4
||$C$SL14||:	.string	"no change",0
	.align	4
||$C$SL15||:	.string	"AT+CWMODE=%d",13,10,0
	.align	4
||$C$SL16||:	.string	"OK",0
	.align	4
||$C$SL17||:	.string	"AT+CIPMUX=%d",13,10,0
;******************************************************************************
;* CONSTANT TABLE                                                             *
;******************************************************************************
	.sect	".text"
	.align	4
||$C$CON31||:	.bits	ESP8266_ServerTimeout,32
	.align	4
||$C$CON32||:	.bits	ESP8266_ServerPort,32
	.align	4
||$C$CON33||:	.bits	SearchFound,32
	.sect	".text"
	.clink
	.thumbfunc ESP8266ProcessInput
	.thumb
	.global	ESP8266ProcessInput

$C$DW$166	.dwtag  DW_TAG_subprogram, DW_AT_name("ESP8266ProcessInput")
	.dwattr $C$DW$166, DW_AT_low_pc(ESP8266ProcessInput)
	.dwattr $C$DW$166, DW_AT_high_pc(0x00)
	.dwattr $C$DW$166, DW_AT_TI_symbol_name("ESP8266ProcessInput")
	.dwattr $C$DW$166, DW_AT_external
	.dwattr $C$DW$166, DW_AT_TI_begin_file("../esp8266.c")
	.dwattr $C$DW$166, DW_AT_TI_begin_line(0x1f0)
	.dwattr $C$DW$166, DW_AT_TI_begin_column(0x06)
	.dwattr $C$DW$166, DW_AT_decl_file("../esp8266.c")
	.dwattr $C$DW$166, DW_AT_decl_line(0x1f0)
	.dwattr $C$DW$166, DW_AT_decl_column(0x06)
	.dwattr $C$DW$166, DW_AT_TI_max_frame_size(0x10)
	.dwpsn	file "../esp8266.c",line 496,column 45,is_stmt,address ESP8266ProcessInput,isa 1

	.dwfde $C$DW$CIE, ESP8266ProcessInput
$C$DW$167	.dwtag  DW_TAG_formal_parameter, DW_AT_name("buffer")
	.dwattr $C$DW$167, DW_AT_TI_symbol_name("buffer")
	.dwattr $C$DW$167, DW_AT_type(*$C$DW$T$36)
	.dwattr $C$DW$167, DW_AT_location[DW_OP_reg0]

;*****************************************************************************
;* FUNCTION NAME: ESP8266ProcessInput                                        *
;*                                                                           *
;*   Regs Modified     : A1,A2,A3,A4,V9,SP,LR,SR,D0,D0_hi,D1,D1_hi,D2,D2_hi, *
;*                           D3,D3_hi,D4,D4_hi,D5,D5_hi,D6,D6_hi,D7,D7_hi,   *
;*                           FPEXC,FPSCR                                     *
;*   Regs Used         : A1,A2,A3,A4,V9,SP,LR,SR,D0,D0_hi,D1,D1_hi,D2,D2_hi, *
;*                           D3,D3_hi,D4,D4_hi,D5,D5_hi,D6,D6_hi,D7,D7_hi,   *
;*                           FPEXC,FPSCR                                     *
;*   Local Frame Size  : 0 Args + 12 Auto + 4 Save = 16 byte                 *
;*****************************************************************************
ESP8266ProcessInput:
;* --------------------------------------------------------------------------*
	.dwcfi	cfa_offset, 0
        PUSH      {A2, A3, A4, LR}      ; [DPU_3_PIPE] 
	.dwcfi	cfa_offset, 16
	.dwcfi	save_reg_to_mem, 14, -4
	.dwcfi	save_reg_to_mem, 3, -8
	.dwcfi	save_reg_to_mem, 2, -12
	.dwcfi	save_reg_to_mem, 1, -16
$C$DW$168	.dwtag  DW_TAG_variable, DW_AT_name("buffer")
	.dwattr $C$DW$168, DW_AT_TI_symbol_name("buffer")
	.dwattr $C$DW$168, DW_AT_type(*$C$DW$T$36)
	.dwattr $C$DW$168, DW_AT_location[DW_OP_breg13 0]
$C$DW$169	.dwtag  DW_TAG_variable, DW_AT_name("ptr")
	.dwattr $C$DW$169, DW_AT_TI_symbol_name("ptr")
	.dwattr $C$DW$169, DW_AT_type(*$C$DW$T$59)
	.dwattr $C$DW$169, DW_AT_location[DW_OP_breg13 4]
;----------------------------------------------------------------------
; 496 | void ESP8266ProcessInput(const char* buffer){                          
; 497 | char* ptr;                                                             
; 498 | // "+IPD" indicates data coming in from IP server                      
;----------------------------------------------------------------------
        STR       A1, [SP, #0]          ; [DPU_3_PIPE] |496| 
	.dwpsn	file "../esp8266.c",line 499,column 3,is_stmt,isa 1
;----------------------------------------------------------------------
; 499 | if (buffer[0] == '+' && buffer[1] == 'I' && buffer[2] == 'P' && buffer[
;     | 3] == 'D' && buffer[8] != '\n'){                                       
;----------------------------------------------------------------------
        LDR       A1, [SP, #0]          ; [DPU_3_PIPE] |499| 
        LDRB      A1, [A1, #0]          ; [DPU_3_PIPE] |499| 
        CMP       A1, #43               ; [DPU_3_PIPE] |499| 
        BNE       ||$C$L64||            ; [DPU_3_PIPE] |499| 
        ; BRANCHCC OCCURS {||$C$L64||}   ; [] |499| 
;* --------------------------------------------------------------------------*
        LDR       A1, [SP, #0]          ; [DPU_3_PIPE] |499| 
        LDRB      A1, [A1, #1]          ; [DPU_3_PIPE] |499| 
        CMP       A1, #73               ; [DPU_3_PIPE] |499| 
        BNE       ||$C$L64||            ; [DPU_3_PIPE] |499| 
        ; BRANCHCC OCCURS {||$C$L64||}   ; [] |499| 
;* --------------------------------------------------------------------------*
        LDR       A1, [SP, #0]          ; [DPU_3_PIPE] |499| 
        LDRB      A1, [A1, #2]          ; [DPU_3_PIPE] |499| 
        CMP       A1, #80               ; [DPU_3_PIPE] |499| 
        BNE       ||$C$L64||            ; [DPU_3_PIPE] |499| 
        ; BRANCHCC OCCURS {||$C$L64||}   ; [] |499| 
;* --------------------------------------------------------------------------*
        LDR       A1, [SP, #0]          ; [DPU_3_PIPE] |499| 
        LDRB      A1, [A1, #3]          ; [DPU_3_PIPE] |499| 
        CMP       A1, #68               ; [DPU_3_PIPE] |499| 
        BNE       ||$C$L64||            ; [DPU_3_PIPE] |499| 
        ; BRANCHCC OCCURS {||$C$L64||}   ; [] |499| 
;* --------------------------------------------------------------------------*
        LDR       A1, [SP, #0]          ; [DPU_3_PIPE] |499| 
        LDRB      A1, [A1, #8]          ; [DPU_3_PIPE] |499| 
        CMP       A1, #10               ; [DPU_3_PIPE] |499| 
        BEQ       ||$C$L64||            ; [DPU_3_PIPE] |499| 
        ; BRANCHCC OCCURS {||$C$L64||}   ; [] |499| 
;* --------------------------------------------------------------------------*
	.dwpsn	file "../esp8266.c",line 500,column 5,is_stmt,isa 1
;----------------------------------------------------------------------
; 500 | ptr = (char *)buffer + 7;                                              
;----------------------------------------------------------------------
        LDR       A1, [SP, #0]          ; [DPU_3_PIPE] |500| 
        ADDS      A1, A1, #7            ; [DPU_3_PIPE] |500| 
        STR       A1, [SP, #4]          ; [DPU_3_PIPE] |500| 
	.dwpsn	file "../esp8266.c",line 501,column 5,is_stmt,isa 1
;----------------------------------------------------------------------
; 501 | while (*ptr != ':'){                                                   
;----------------------------------------------------------------------
        B         ||$C$L62||            ; [DPU_3_PIPE] |501| 
        ; BRANCH OCCURS {||$C$L62||}     ; [] |501| 
;* --------------------------------------------------------------------------*
||$C$L61||:    
	.dwpsn	file "../esp8266.c",line 502,column 7,is_stmt,isa 1
;----------------------------------------------------------------------
; 502 | ptr++;                                                                 
;----------------------------------------------------------------------
        LDR       A1, [SP, #4]          ; [DPU_3_PIPE] |502| 
        ADDS      A1, A1, #1            ; [DPU_3_PIPE] |502| 
        STR       A1, [SP, #4]          ; [DPU_3_PIPE] |502| 
;* --------------------------------------------------------------------------*
;*   BEGIN LOOP ||$C$L62||
;* --------------------------------------------------------------------------*
||$C$L62||:    
	.dwpsn	file "../esp8266.c",line 501,column 12,is_stmt,isa 1
        LDR       A1, [SP, #4]          ; [DPU_3_PIPE] |501| 
        LDRB      A1, [A1, #0]          ; [DPU_3_PIPE] |501| 
        CMP       A1, #58               ; [DPU_3_PIPE] |501| 
        BNE       ||$C$L61||            ; [DPU_3_PIPE] |501| 
        ; BRANCHCC OCCURS {||$C$L61||}   ; [] |501| 
;* --------------------------------------------------------------------------*
	.dwpsn	file "../esp8266.c",line 504,column 5,is_stmt,isa 1
;----------------------------------------------------------------------
; 504 | ptr++;                                                                 
; 506 | // check for HTTP GET                                                  
;----------------------------------------------------------------------
        LDR       A1, [SP, #4]          ; [DPU_3_PIPE] |504| 
        ADDS      A1, A1, #1            ; [DPU_3_PIPE] |504| 
        STR       A1, [SP, #4]          ; [DPU_3_PIPE] |504| 
	.dwpsn	file "../esp8266.c",line 507,column 5,is_stmt,isa 1
;----------------------------------------------------------------------
; 507 | if (*ptr == 'G' && *(ptr + 1) == 'E' && *(ptr + 2) == 'T') {           
;----------------------------------------------------------------------
        LDR       A1, [SP, #4]          ; [DPU_3_PIPE] |507| 
        LDRB      A1, [A1, #0]          ; [DPU_3_PIPE] |507| 
        CMP       A1, #71               ; [DPU_3_PIPE] |507| 
        BNE       ||$C$L64||            ; [DPU_3_PIPE] |507| 
        ; BRANCHCC OCCURS {||$C$L64||}   ; [] |507| 
;* --------------------------------------------------------------------------*
        LDR       A1, [SP, #4]          ; [DPU_3_PIPE] |507| 
        LDRB      A1, [A1, #1]          ; [DPU_3_PIPE] |507| 
        CMP       A1, #69               ; [DPU_3_PIPE] |507| 
        BNE       ||$C$L64||            ; [DPU_3_PIPE] |507| 
        ; BRANCHCC OCCURS {||$C$L64||}   ; [] |507| 
;* --------------------------------------------------------------------------*
        LDR       A1, [SP, #4]          ; [DPU_3_PIPE] |507| 
        LDRB      A1, [A1, #2]          ; [DPU_3_PIPE] |507| 
        CMP       A1, #84               ; [DPU_3_PIPE] |507| 
        BNE       ||$C$L64||            ; [DPU_3_PIPE] |507| 
        ; BRANCHCC OCCURS {||$C$L64||}   ; [] |507| 
;* --------------------------------------------------------------------------*
	.dwpsn	file "../esp8266.c",line 508,column 7,is_stmt,isa 1
;----------------------------------------------------------------------
; 508 | if (*(ptr + 5) == '?'){ // means data to process                       
;----------------------------------------------------------------------
        LDR       A1, [SP, #4]          ; [DPU_3_PIPE] |508| 
        LDRB      A1, [A1, #5]          ; [DPU_3_PIPE] |508| 
        CMP       A1, #63               ; [DPU_3_PIPE] |508| 
        BNE       ||$C$L63||            ; [DPU_3_PIPE] |508| 
        ; BRANCHCC OCCURS {||$C$L63||}   ; [] |508| 
;* --------------------------------------------------------------------------*

$C$DW$170	.dwtag  DW_TAG_lexical_block, DW_AT_low_pc(0x00), DW_AT_high_pc(0x00)
$C$DW$171	.dwtag  DW_TAG_variable, DW_AT_name("messagePtr")
	.dwattr $C$DW$171, DW_AT_TI_symbol_name("messagePtr")
	.dwattr $C$DW$171, DW_AT_type(*$C$DW$T$59)
	.dwattr $C$DW$171, DW_AT_location[DW_OP_breg13 8]
	.dwpsn	file "../esp8266.c",line 509,column 26,is_stmt,isa 1
;----------------------------------------------------------------------
; 509 | char* messagePtr = strstr(ptr, "message=") + 8;                        
;----------------------------------------------------------------------
        LDR       A1, [SP, #4]          ; [DPU_3_PIPE] |509| 
        ADR       A2, $C$SL25           ; [DPU_3_PIPE] |509| 
$C$DW$172	.dwtag  DW_TAG_TI_branch
	.dwattr $C$DW$172, DW_AT_low_pc(0x00)
	.dwattr $C$DW$172, DW_AT_name("strstr")
	.dwattr $C$DW$172, DW_AT_TI_call
        BL        strstr                ; [DPU_3_PIPE] |509| 
        ; CALL OCCURS {strstr }          ; [] |509| 
        ADDS      A1, A1, #8            ; [DPU_3_PIPE] |509| 
        STR       A1, [SP, #8]          ; [DPU_3_PIPE] |509| 
	.dwpsn	file "../esp8266.c",line 510,column 9,is_stmt,isa 1
;----------------------------------------------------------------------
; 510 | printf("Message from ESP8266: %s\n", messagePtr);                      
;----------------------------------------------------------------------
        LDR       A2, [SP, #8]          ; [DPU_3_PIPE] |510| 
        ADR       A1, $C$SL26           ; [DPU_3_PIPE] |510| 
$C$DW$173	.dwtag  DW_TAG_TI_branch
	.dwattr $C$DW$173, DW_AT_low_pc(0x00)
	.dwattr $C$DW$173, DW_AT_name("printf")
	.dwattr $C$DW$173, DW_AT_TI_call
        BL        printf                ; [DPU_3_PIPE] |510| 
        ; CALL OCCURS {printf }          ; [] |510| 
	.dwendtag $C$DW$170

;* --------------------------------------------------------------------------*
||$C$L63||:    
	.dwpsn	file "../esp8266.c",line 512,column 7,is_stmt,isa 1
;----------------------------------------------------------------------
; 512 | ESP8266_PageRequested = true;                                          
;----------------------------------------------------------------------
        LDR       A2, $C$CON35          ; [DPU_3_PIPE] |512| 
        MOVS      A1, #1                ; [DPU_3_PIPE] |512| 
        STRB      A1, [A2, #0]          ; [DPU_3_PIPE] |512| 
	.dwpsn	file "../esp8266.c",line 513,column 5,is_stmt,isa 1
;----------------------------------------------------------------------
; 513 | } else {                                                               
; 514 |   // handle data that may be sent via means other than HTTP GET        
;----------------------------------------------------------------------
        B         ||$C$L64||            ; [DPU_3_PIPE] |513| 
        ; BRANCH OCCURS {||$C$L64||}     ; [] |513| 
;* --------------------------------------------------------------------------*
;* --------------------------------------------------------------------------*
||$C$L64||:    
$C$DW$174	.dwtag  DW_TAG_TI_branch
	.dwattr $C$DW$174, DW_AT_low_pc(0x00)
	.dwattr $C$DW$174, DW_AT_TI_return
        POP       {A2, A3, A4, PC}      ; [DPU_3_PIPE] 
	.dwcfi	cfa_offset, 0
        ; BRANCH OCCURS                  ; [] 
	.dwattr $C$DW$166, DW_AT_TI_end_file("../esp8266.c")
	.dwattr $C$DW$166, DW_AT_TI_end_line(0x205)
	.dwattr $C$DW$166, DW_AT_TI_end_column(0x01)
	.dwendentry
	.dwendtag $C$DW$166

	.sect	".text"
	.clink
	.thumbfunc ESP8266EnableRXInterrupt
	.thumb
	.global	ESP8266EnableRXInterrupt

$C$DW$175	.dwtag  DW_TAG_subprogram, DW_AT_name("ESP8266EnableRXInterrupt")
	.dwattr $C$DW$175, DW_AT_low_pc(ESP8266EnableRXInterrupt)
	.dwattr $C$DW$175, DW_AT_high_pc(0x00)
	.dwattr $C$DW$175, DW_AT_TI_symbol_name("ESP8266EnableRXInterrupt")
	.dwattr $C$DW$175, DW_AT_external
	.dwattr $C$DW$175, DW_AT_TI_begin_file("../esp8266.c")
	.dwattr $C$DW$175, DW_AT_TI_begin_line(0x20e)
	.dwattr $C$DW$175, DW_AT_TI_begin_column(0x06)
	.dwattr $C$DW$175, DW_AT_decl_file("../esp8266.c")
	.dwattr $C$DW$175, DW_AT_decl_line(0x20e)
	.dwattr $C$DW$175, DW_AT_decl_column(0x06)
	.dwattr $C$DW$175, DW_AT_TI_max_frame_size(0x00)
	.dwpsn	file "../esp8266.c",line 526,column 36,is_stmt,address ESP8266EnableRXInterrupt,isa 1

	.dwfde $C$DW$CIE, ESP8266EnableRXInterrupt
;----------------------------------------------------------------------
; 526 | void ESP8266EnableRXInterrupt(void){                                   
;----------------------------------------------------------------------

;*****************************************************************************
;* FUNCTION NAME: ESP8266EnableRXInterrupt                                   *
;*                                                                           *
;*   Regs Modified     : A1,A2,SR                                            *
;*   Regs Used         : A1,A2,LR,SR                                         *
;*   Local Frame Size  : 0 Args + 0 Auto + 0 Save = 0 byte                   *
;*****************************************************************************
ESP8266EnableRXInterrupt:
;* --------------------------------------------------------------------------*
	.dwcfi	cfa_offset, 0
	.dwpsn	file "../esp8266.c",line 527,column 3,is_stmt,isa 1
;----------------------------------------------------------------------
; 527 | NVIC_EN0_R = 1<<6; // interrupt 6                                      
;----------------------------------------------------------------------
        LDR       A2, $C$CON36          ; [DPU_3_PIPE] |527| 
        MOVS      A1, #64               ; [DPU_3_PIPE] |527| 
        STR       A1, [A2, #0]          ; [DPU_3_PIPE] |527| 
	.dwpsn	file "../esp8266.c",line 528,column 1,is_stmt,isa 1
$C$DW$176	.dwtag  DW_TAG_TI_branch
	.dwattr $C$DW$176, DW_AT_low_pc(0x00)
	.dwattr $C$DW$176, DW_AT_TI_return
        BX        LR                    ; [DPU_3_PIPE] 
        ; BRANCH OCCURS                  ; [] 
	.dwattr $C$DW$175, DW_AT_TI_end_file("../esp8266.c")
	.dwattr $C$DW$175, DW_AT_TI_end_line(0x210)
	.dwattr $C$DW$175, DW_AT_TI_end_column(0x01)
	.dwendentry
	.dwendtag $C$DW$175

	.sect	".text"
	.clink
	.thumbfunc ESP8266DisableRXInterrupt
	.thumb
	.global	ESP8266DisableRXInterrupt

$C$DW$177	.dwtag  DW_TAG_subprogram, DW_AT_name("ESP8266DisableRXInterrupt")
	.dwattr $C$DW$177, DW_AT_low_pc(ESP8266DisableRXInterrupt)
	.dwattr $C$DW$177, DW_AT_high_pc(0x00)
	.dwattr $C$DW$177, DW_AT_TI_symbol_name("ESP8266DisableRXInterrupt")
	.dwattr $C$DW$177, DW_AT_external
	.dwattr $C$DW$177, DW_AT_TI_begin_file("../esp8266.c")
	.dwattr $C$DW$177, DW_AT_TI_begin_line(0x219)
	.dwattr $C$DW$177, DW_AT_TI_begin_column(0x06)
	.dwattr $C$DW$177, DW_AT_decl_file("../esp8266.c")
	.dwattr $C$DW$177, DW_AT_decl_line(0x219)
	.dwattr $C$DW$177, DW_AT_decl_column(0x06)
	.dwattr $C$DW$177, DW_AT_TI_max_frame_size(0x00)
	.dwpsn	file "../esp8266.c",line 537,column 37,is_stmt,address ESP8266DisableRXInterrupt,isa 1

	.dwfde $C$DW$CIE, ESP8266DisableRXInterrupt
;----------------------------------------------------------------------
; 537 | void ESP8266DisableRXInterrupt(void){                                  
;----------------------------------------------------------------------

;*****************************************************************************
;* FUNCTION NAME: ESP8266DisableRXInterrupt                                  *
;*                                                                           *
;*   Regs Modified     : A1,A2,SR                                            *
;*   Regs Used         : A1,A2,LR,SR                                         *
;*   Local Frame Size  : 0 Args + 0 Auto + 0 Save = 0 byte                   *
;*****************************************************************************
ESP8266DisableRXInterrupt:
;* --------------------------------------------------------------------------*
	.dwcfi	cfa_offset, 0
	.dwpsn	file "../esp8266.c",line 538,column 3,is_stmt,isa 1
;----------------------------------------------------------------------
; 538 | NVIC_DIS0_R = 1<<6; // interrupt 6                                     
;----------------------------------------------------------------------
        LDR       A2, $C$CON37          ; [DPU_3_PIPE] |538| 
        MOVS      A1, #64               ; [DPU_3_PIPE] |538| 
        STR       A1, [A2, #0]          ; [DPU_3_PIPE] |538| 
	.dwpsn	file "../esp8266.c",line 539,column 1,is_stmt,isa 1
$C$DW$178	.dwtag  DW_TAG_TI_branch
	.dwattr $C$DW$178, DW_AT_low_pc(0x00)
	.dwattr $C$DW$178, DW_AT_TI_return
        BX        LR                    ; [DPU_3_PIPE] 
        ; BRANCH OCCURS                  ; [] 
	.dwattr $C$DW$177, DW_AT_TI_end_file("../esp8266.c")
	.dwattr $C$DW$177, DW_AT_TI_end_line(0x21b)
	.dwattr $C$DW$177, DW_AT_TI_end_column(0x01)
	.dwendentry
	.dwendtag $C$DW$177

;******************************************************************************
;* STRINGS                                                                    *
;******************************************************************************
	.sect	".text"
	.align	4
||$C$SL18||:	.string	"AT+CIPSTO=%d",13,10,0
	.sect	".text"
	.clink
	.thumbfunc ESP8266PrintChar
	.thumb
	.global	ESP8266PrintChar

$C$DW$179	.dwtag  DW_TAG_subprogram, DW_AT_name("ESP8266PrintChar")
	.dwattr $C$DW$179, DW_AT_low_pc(ESP8266PrintChar)
	.dwattr $C$DW$179, DW_AT_high_pc(0x00)
	.dwattr $C$DW$179, DW_AT_TI_symbol_name("ESP8266PrintChar")
	.dwattr $C$DW$179, DW_AT_external
	.dwattr $C$DW$179, DW_AT_TI_begin_file("../esp8266.c")
	.dwattr $C$DW$179, DW_AT_TI_begin_line(0x224)
	.dwattr $C$DW$179, DW_AT_TI_begin_column(0x06)
	.dwattr $C$DW$179, DW_AT_decl_file("../esp8266.c")
	.dwattr $C$DW$179, DW_AT_decl_line(0x224)
	.dwattr $C$DW$179, DW_AT_decl_column(0x06)
	.dwattr $C$DW$179, DW_AT_TI_max_frame_size(0x08)
	.dwpsn	file "../esp8266.c",line 548,column 34,is_stmt,address ESP8266PrintChar,isa 1

	.dwfde $C$DW$CIE, ESP8266PrintChar
$C$DW$180	.dwtag  DW_TAG_formal_parameter, DW_AT_name("input")
	.dwattr $C$DW$180, DW_AT_TI_symbol_name("input")
	.dwattr $C$DW$180, DW_AT_type(*$C$DW$T$6)
	.dwattr $C$DW$180, DW_AT_location[DW_OP_reg0]

;*****************************************************************************
;* FUNCTION NAME: ESP8266PrintChar                                           *
;*                                                                           *
;*   Regs Modified     : A1,A2,SP,SR                                         *
;*   Regs Used         : A1,A2,SP,LR,SR                                      *
;*   Local Frame Size  : 0 Args + 4 Auto + 0 Save = 4 byte                   *
;*****************************************************************************
ESP8266PrintChar:
;* --------------------------------------------------------------------------*
	.dwcfi	cfa_offset, 0
        SUB       SP, SP, #8            ; [DPU_3_PIPE] 
	.dwcfi	cfa_offset, 8
$C$DW$181	.dwtag  DW_TAG_variable, DW_AT_name("input")
	.dwattr $C$DW$181, DW_AT_TI_symbol_name("input")
	.dwattr $C$DW$181, DW_AT_type(*$C$DW$T$6)
	.dwattr $C$DW$181, DW_AT_location[DW_OP_breg13 0]
;----------------------------------------------------------------------
; 548 | void ESP8266PrintChar(char input){                                     
;----------------------------------------------------------------------
        STRB      A1, [SP, #0]          ; [DPU_3_PIPE] |548| 
	.dwpsn	file "../esp8266.c",line 549,column 3,is_stmt,isa 1
;----------------------------------------------------------------------
; 549 | while((UART1_FR_R&UART_FR_TXFF) != 0) {};                              
;----------------------------------------------------------------------
;* --------------------------------------------------------------------------*
;*   BEGIN LOOP ||$C$L65||
;*
;*   Loop source line                : 549
;*   Loop closing brace source line  : 549
;*   Known Minimum Trip Count        : 1
;*   Known Maximum Trip Count        : 4294967295
;*   Known Max Trip Count Factor     : 1
;* --------------------------------------------------------------------------*
||$C$L65||:    
	.dwpsn	file "../esp8266.c",line 549,column 9,is_stmt,isa 1
        LDR       A1, $C$CON38          ; [DPU_3_PIPE] |549| 
        LDR       A1, [A1, #0]          ; [DPU_3_PIPE] |549| 
        LSRS      A1, A1, #6            ; [DPU_3_PIPE] |549| 
        BCS       ||$C$L65||            ; [DPU_3_PIPE] |549| 
        ; BRANCHCC OCCURS {||$C$L65||}   ; [] |549| 
;* --------------------------------------------------------------------------*
	.dwpsn	file "../esp8266.c",line 550,column 3,is_stmt,isa 1
;----------------------------------------------------------------------
; 550 | UART1_DR_R = input;                                                    
; 551 | //  UART_OutChar(input); // debugging                                  
;----------------------------------------------------------------------
        LDRB      A1, [SP, #0]          ; [DPU_3_PIPE] |550| 
        LDR       A2, $C$CON39          ; [DPU_3_PIPE] |550| 
        STR       A1, [A2, #0]          ; [DPU_3_PIPE] |550| 
	.dwpsn	file "../esp8266.c",line 552,column 1,is_stmt,isa 1
        ADD       SP, SP, #8            ; [DPU_3_PIPE] 
	.dwcfi	cfa_offset, 0
$C$DW$182	.dwtag  DW_TAG_TI_branch
	.dwattr $C$DW$182, DW_AT_low_pc(0x00)
	.dwattr $C$DW$182, DW_AT_TI_return
        BX        LR                    ; [DPU_3_PIPE] 
        ; BRANCH OCCURS                  ; [] 
	.dwattr $C$DW$179, DW_AT_TI_end_file("../esp8266.c")
	.dwattr $C$DW$179, DW_AT_TI_end_line(0x228)
	.dwattr $C$DW$179, DW_AT_TI_end_column(0x01)
	.dwendentry
	.dwendtag $C$DW$179

;******************************************************************************
;* STRINGS                                                                    *
;******************************************************************************
	.sect	".text"
	.align	4
||$C$SL19||:	.string	"AT+CIPSERVER=1,%d",13,10,0
	.align	4
||$C$SL20||:	.string	"AT+CIPSERVER=0,%d",13,10,0
	.sect	".text"
	.clink
	.thumbfunc ESP8266_GetIPAddress
	.thumb
	.global	ESP8266_GetIPAddress

$C$DW$183	.dwtag  DW_TAG_subprogram, DW_AT_name("ESP8266_GetIPAddress")
	.dwattr $C$DW$183, DW_AT_low_pc(ESP8266_GetIPAddress)
	.dwattr $C$DW$183, DW_AT_high_pc(0x00)
	.dwattr $C$DW$183, DW_AT_TI_symbol_name("ESP8266_GetIPAddress")
	.dwattr $C$DW$183, DW_AT_external
	.dwattr $C$DW$183, DW_AT_type(*$C$DW$T$10)
	.dwattr $C$DW$183, DW_AT_TI_begin_file("../esp8266.c")
	.dwattr $C$DW$183, DW_AT_TI_begin_line(0x22f)
	.dwattr $C$DW$183, DW_AT_TI_begin_column(0x05)
	.dwattr $C$DW$183, DW_AT_decl_file("../esp8266.c")
	.dwattr $C$DW$183, DW_AT_decl_line(0x22f)
	.dwattr $C$DW$183, DW_AT_decl_column(0x05)
	.dwattr $C$DW$183, DW_AT_TI_max_frame_size(0x08)
	.dwpsn	file "../esp8266.c",line 559,column 31,is_stmt,address ESP8266_GetIPAddress,isa 1

	.dwfde $C$DW$CIE, ESP8266_GetIPAddress
;----------------------------------------------------------------------
; 559 | int ESP8266_GetIPAddress(void){                                        
;----------------------------------------------------------------------

;*****************************************************************************
;* FUNCTION NAME: ESP8266_GetIPAddress                                       *
;*                                                                           *
;*   Regs Modified     : A1,A2,A3,A4,V9,SP,LR,SR,D0,D0_hi,D1,D1_hi,D2,D2_hi, *
;*                           D3,D3_hi,D4,D4_hi,D5,D5_hi,D6,D6_hi,D7,D7_hi,   *
;*                           FPEXC,FPSCR                                     *
;*   Regs Used         : A1,A2,A3,A4,V9,SP,LR,SR,D0,D0_hi,D1,D1_hi,D2,D2_hi, *
;*                           D3,D3_hi,D4,D4_hi,D5,D5_hi,D6,D6_hi,D7,D7_hi,   *
;*                           FPEXC,FPSCR                                     *
;*   Local Frame Size  : 0 Args + 4 Auto + 4 Save = 8 byte                   *
;*****************************************************************************
ESP8266_GetIPAddress:
;* --------------------------------------------------------------------------*
	.dwcfi	cfa_offset, 0
        PUSH      {A4, LR}              ; [DPU_3_PIPE] 
	.dwcfi	cfa_offset, 8
	.dwcfi	save_reg_to_mem, 14, -4
	.dwcfi	save_reg_to_mem, 3, -8
$C$DW$184	.dwtag  DW_TAG_variable, DW_AT_name("try")
	.dwattr $C$DW$184, DW_AT_TI_symbol_name("try")
	.dwattr $C$DW$184, DW_AT_type(*$C$DW$T$10)
	.dwattr $C$DW$184, DW_AT_location[DW_OP_breg13 0]
	.dwpsn	file "../esp8266.c",line 560,column 10,is_stmt,isa 1
;----------------------------------------------------------------------
; 560 | int try=MAXTRY;                                                        
;----------------------------------------------------------------------
        MOVS      A1, #10               ; [DPU_3_PIPE] |560| 
        STR       A1, [SP, #0]          ; [DPU_3_PIPE] |560| 
	.dwpsn	file "../esp8266.c",line 561,column 3,is_stmt,isa 1
;----------------------------------------------------------------------
; 561 | strcpy(SearchString, "OK");                                            
;----------------------------------------------------------------------
        LDR       A1, $C$CON40          ; [DPU_3_PIPE] |561| 
        LDR       A2, $C$CON41          ; [] |561| 
$C$DW$185	.dwtag  DW_TAG_TI_branch
	.dwattr $C$DW$185, DW_AT_low_pc(0x00)
	.dwattr $C$DW$185, DW_AT_name("strcpy")
	.dwattr $C$DW$185, DW_AT_TI_call
        BL        strcpy                ; [DPU_3_PIPE] |561| 
        ; CALL OCCURS {strcpy }          ; [] |561| 
	.dwpsn	file "../esp8266.c",line 562,column 3,is_stmt,isa 1
;----------------------------------------------------------------------
; 562 | SearchLooking = true;                                                  
;----------------------------------------------------------------------
        LDR       A2, $C$CON34          ; [DPU_3_PIPE] |562| 
        MOVS      A1, #1                ; [DPU_3_PIPE] |562| 
        STRB      A1, [A2, #0]          ; [DPU_3_PIPE] |562| 
	.dwpsn	file "../esp8266.c",line 563,column 3,is_stmt,isa 1
;----------------------------------------------------------------------
; 563 | SearchFound = false;                                                   
;----------------------------------------------------------------------
        LDR       A2, $C$CON42          ; [DPU_3_PIPE] |563| 
        MOVS      A1, #0                ; [DPU_3_PIPE] |563| 
        STRB      A1, [A2, #0]          ; [DPU_3_PIPE] |563| 
	.dwpsn	file "../esp8266.c",line 564,column 3,is_stmt,isa 1
;----------------------------------------------------------------------
; 564 | while(try){                                                            
;----------------------------------------------------------------------
        LDR       A1, [SP, #0]          ; [DPU_3_PIPE] |564| 
        CBZ       A1, ||$C$L68||        ; [] 
        ; BRANCHCC OCCURS {||$C$L68||}   ; [] |564| 
;* --------------------------------------------------------------------------*
;*   BEGIN LOOP ||$C$L66||
;*
;*   Loop source line                : 564
;*   Loop closing brace source line  : 570
;*   Known Minimum Trip Count        : 1
;*   Known Maximum Trip Count        : 4294967295
;*   Known Max Trip Count Factor     : 1
;* --------------------------------------------------------------------------*
||$C$L66||:    
	.dwpsn	file "../esp8266.c",line 565,column 5,is_stmt,isa 1
;----------------------------------------------------------------------
; 565 | ESP8266SendCommand("AT+CIFSR\r\n");                                    
;----------------------------------------------------------------------
        ADR       A1, $C$SL27           ; [DPU_3_PIPE] |565| 
$C$DW$186	.dwtag  DW_TAG_TI_branch
	.dwattr $C$DW$186, DW_AT_low_pc(0x00)
	.dwattr $C$DW$186, DW_AT_name("ESP8266SendCommand")
	.dwattr $C$DW$186, DW_AT_TI_call
        BL        ESP8266SendCommand    ; [DPU_3_PIPE] |565| 
        ; CALL OCCURS {ESP8266SendCommand }  ; [] |565| 
	.dwpsn	file "../esp8266.c",line 567,column 5,is_stmt,isa 1
;----------------------------------------------------------------------
; 567 | DelayMsSearching(5000);                                                
;----------------------------------------------------------------------
        MOV       A1, #5000             ; [DPU_3_PIPE] |567| 
$C$DW$187	.dwtag  DW_TAG_TI_branch
	.dwattr $C$DW$187, DW_AT_low_pc(0x00)
	.dwattr $C$DW$187, DW_AT_name("DelayMsSearching")
	.dwattr $C$DW$187, DW_AT_TI_call
        BL        DelayMsSearching      ; [DPU_3_PIPE] |567| 
        ; CALL OCCURS {DelayMsSearching }  ; [] |567| 
	.dwpsn	file "../esp8266.c",line 568,column 5,is_stmt,isa 1
;----------------------------------------------------------------------
; 568 | if(SearchFound) return 1; // success                                   
;----------------------------------------------------------------------
        LDR       A1, $C$CON42          ; [DPU_3_PIPE] |568| 
        LDRB      A1, [A1, #0]          ; [DPU_3_PIPE] |568| 
        CBZ       A1, ||$C$L67||        ; [] 
        ; BRANCHCC OCCURS {||$C$L67||}   ; [] |568| 
;* --------------------------------------------------------------------------*
	.dwpsn	file "../esp8266.c",line 568,column 21,is_stmt,isa 1
        MOVS      A1, #1                ; [DPU_3_PIPE] |568| 
        B         ||$C$L69||            ; [DPU_3_PIPE] |568| 
        ; BRANCH OCCURS {||$C$L69||}     ; [] |568| 
;* --------------------------------------------------------------------------*
||$C$L67||:    
	.dwpsn	file "../esp8266.c",line 569,column 5,is_stmt,isa 1
;----------------------------------------------------------------------
; 569 | try--;                                                                 
;----------------------------------------------------------------------
        LDR       A1, [SP, #0]          ; [DPU_3_PIPE] |569| 
        SUBS      A1, A1, #1            ; [DPU_3_PIPE] |569| 
        STR       A1, [SP, #0]          ; [DPU_3_PIPE] |569| 
	.dwpsn	file "../esp8266.c",line 564,column 3,is_stmt,isa 1
        LDR       A1, [SP, #0]          ; [DPU_3_PIPE] |564| 
        CMP       A1, #0                ; [DPU_3_PIPE] |564| 
        BNE       ||$C$L66||            ; [DPU_3_PIPE] |564| 
        ; BRANCHCC OCCURS {||$C$L66||}   ; [] |564| 
;* --------------------------------------------------------------------------*
||$C$L68||:    
	.dwpsn	file "../esp8266.c",line 571,column 3,is_stmt,isa 1
;----------------------------------------------------------------------
; 571 | return 0; // fail                                                      
;----------------------------------------------------------------------
        MOVS      A1, #0                ; [DPU_3_PIPE] |571| 
;* --------------------------------------------------------------------------*
||$C$L69||:    
	.dwpsn	file "../esp8266.c",line 572,column 1,is_stmt,isa 1
$C$DW$188	.dwtag  DW_TAG_TI_branch
	.dwattr $C$DW$188, DW_AT_low_pc(0x00)
	.dwattr $C$DW$188, DW_AT_TI_return
        POP       {A4, PC}              ; [DPU_3_PIPE] 
	.dwcfi	cfa_offset, 0
        ; BRANCH OCCURS                  ; [] 
	.dwattr $C$DW$183, DW_AT_TI_end_file("../esp8266.c")
	.dwattr $C$DW$183, DW_AT_TI_end_line(0x23c)
	.dwattr $C$DW$183, DW_AT_TI_end_column(0x01)
	.dwendentry
	.dwendtag $C$DW$183

;******************************************************************************
;* STRINGS                                                                    *
;******************************************************************************
	.sect	".text"
	.align	4
||$C$SL21||:	.string	"AT+CWJAP=",34,"%s",34,",",34,"%s",34,13,10,0
	.sect	".text"
	.clink
	.thumbfunc ESP8266_MakeTCPConnection
	.thumb
	.global	ESP8266_MakeTCPConnection

$C$DW$189	.dwtag  DW_TAG_subprogram, DW_AT_name("ESP8266_MakeTCPConnection")
	.dwattr $C$DW$189, DW_AT_low_pc(ESP8266_MakeTCPConnection)
	.dwattr $C$DW$189, DW_AT_high_pc(0x00)
	.dwattr $C$DW$189, DW_AT_TI_symbol_name("ESP8266_MakeTCPConnection")
	.dwattr $C$DW$189, DW_AT_external
	.dwattr $C$DW$189, DW_AT_type(*$C$DW$T$10)
	.dwattr $C$DW$189, DW_AT_TI_begin_file("../esp8266.c")
	.dwattr $C$DW$189, DW_AT_TI_begin_line(0x242)
	.dwattr $C$DW$189, DW_AT_TI_begin_column(0x05)
	.dwattr $C$DW$189, DW_AT_decl_file("../esp8266.c")
	.dwattr $C$DW$189, DW_AT_decl_line(0x242)
	.dwattr $C$DW$189, DW_AT_decl_column(0x05)
	.dwattr $C$DW$189, DW_AT_TI_max_frame_size(0x08)
	.dwpsn	file "../esp8266.c",line 578,column 36,is_stmt,address ESP8266_MakeTCPConnection,isa 1

	.dwfde $C$DW$CIE, ESP8266_MakeTCPConnection
;----------------------------------------------------------------------
; 578 | int ESP8266_MakeTCPConnection(void){                                   
;----------------------------------------------------------------------

;*****************************************************************************
;* FUNCTION NAME: ESP8266_MakeTCPConnection                                  *
;*                                                                           *
;*   Regs Modified     : A1,A2,A3,A4,V9,SP,LR,SR,D0,D0_hi,D1,D1_hi,D2,D2_hi, *
;*                           D3,D3_hi,D4,D4_hi,D5,D5_hi,D6,D6_hi,D7,D7_hi,   *
;*                           FPEXC,FPSCR                                     *
;*   Regs Used         : A1,A2,A3,A4,V9,SP,LR,SR,D0,D0_hi,D1,D1_hi,D2,D2_hi, *
;*                           D3,D3_hi,D4,D4_hi,D5,D5_hi,D6,D6_hi,D7,D7_hi,   *
;*                           FPEXC,FPSCR                                     *
;*   Local Frame Size  : 0 Args + 4 Auto + 4 Save = 8 byte                   *
;*****************************************************************************
ESP8266_MakeTCPConnection:
;* --------------------------------------------------------------------------*
	.dwcfi	cfa_offset, 0
        PUSH      {A4, LR}              ; [DPU_3_PIPE] 
	.dwcfi	cfa_offset, 8
	.dwcfi	save_reg_to_mem, 14, -4
	.dwcfi	save_reg_to_mem, 3, -8
$C$DW$190	.dwtag  DW_TAG_variable, DW_AT_name("try")
	.dwattr $C$DW$190, DW_AT_TI_symbol_name("try")
	.dwattr $C$DW$190, DW_AT_type(*$C$DW$T$10)
	.dwattr $C$DW$190, DW_AT_location[DW_OP_breg13 0]
	.dwpsn	file "../esp8266.c",line 579,column 10,is_stmt,isa 1
;----------------------------------------------------------------------
; 579 | int try=MAXTRY;                                                        
;----------------------------------------------------------------------
        MOVS      A1, #10               ; [DPU_3_PIPE] |579| 
        STR       A1, [SP, #0]          ; [DPU_3_PIPE] |579| 
	.dwpsn	file "../esp8266.c",line 580,column 3,is_stmt,isa 1
;----------------------------------------------------------------------
; 580 | strcpy(SearchString, "OK");                                            
;----------------------------------------------------------------------
        LDR       A1, $C$CON40          ; [DPU_3_PIPE] |580| 
        LDR       A2, $C$CON41          ; [] |580| 
$C$DW$191	.dwtag  DW_TAG_TI_branch
	.dwattr $C$DW$191, DW_AT_low_pc(0x00)
	.dwattr $C$DW$191, DW_AT_name("strcpy")
	.dwattr $C$DW$191, DW_AT_TI_call
        BL        strcpy                ; [DPU_3_PIPE] |580| 
        ; CALL OCCURS {strcpy }          ; [] |580| 
	.dwpsn	file "../esp8266.c",line 581,column 3,is_stmt,isa 1
;----------------------------------------------------------------------
; 581 | SearchLooking = true;                                                  
;----------------------------------------------------------------------
        LDR       A2, $C$CON34          ; [DPU_3_PIPE] |581| 
        MOVS      A1, #1                ; [DPU_3_PIPE] |581| 
        STRB      A1, [A2, #0]          ; [DPU_3_PIPE] |581| 
	.dwpsn	file "../esp8266.c",line 582,column 3,is_stmt,isa 1
;----------------------------------------------------------------------
; 582 | SearchFound = false;                                                   
;----------------------------------------------------------------------
        LDR       A2, $C$CON42          ; [DPU_3_PIPE] |582| 
        MOVS      A1, #0                ; [DPU_3_PIPE] |582| 
        STRB      A1, [A2, #0]          ; [DPU_3_PIPE] |582| 
	.dwpsn	file "../esp8266.c",line 583,column 3,is_stmt,isa 1
;----------------------------------------------------------------------
; 583 | while(try){                                                            
;----------------------------------------------------------------------
        LDR       A1, [SP, #0]          ; [DPU_3_PIPE] |583| 
        CBZ       A1, ||$C$L72||        ; [] 
        ; BRANCHCC OCCURS {||$C$L72||}   ; [] |583| 
;* --------------------------------------------------------------------------*
;*   BEGIN LOOP ||$C$L70||
;*
;*   Loop source line                : 583
;*   Loop closing brace source line  : 589
;*   Known Minimum Trip Count        : 1
;*   Known Maximum Trip Count        : 4294967295
;*   Known Max Trip Count Factor     : 1
;* --------------------------------------------------------------------------*
||$C$L70||:    
	.dwpsn	file "../esp8266.c",line 584,column 5,is_stmt,isa 1
;----------------------------------------------------------------------
; 584 | ESP8266SendCommand("AT+CIPSTART=\"TCP\",\"144.76.83.20\",80\r\n");   //
;     |  openweathermap.org                                                    
; 585 | //    ESP8266SendCommand("AT+CIPSTART=\"TCP\",\"64.233.171.141\",80\r\n
;     | ");   //embedded-systems-server.appspot.com                            
;----------------------------------------------------------------------
        ADR       A1, $C$SL28           ; [DPU_3_PIPE] |584| 
$C$DW$192	.dwtag  DW_TAG_TI_branch
	.dwattr $C$DW$192, DW_AT_low_pc(0x00)
	.dwattr $C$DW$192, DW_AT_name("ESP8266SendCommand")
	.dwattr $C$DW$192, DW_AT_TI_call
        BL        ESP8266SendCommand    ; [DPU_3_PIPE] |584| 
        ; CALL OCCURS {ESP8266SendCommand }  ; [] |584| 
	.dwpsn	file "../esp8266.c",line 586,column 5,is_stmt,isa 1
;----------------------------------------------------------------------
; 586 | DelayMsSearching(8000);                                                
;----------------------------------------------------------------------
        MOV       A1, #8000             ; [DPU_3_PIPE] |586| 
$C$DW$193	.dwtag  DW_TAG_TI_branch
	.dwattr $C$DW$193, DW_AT_low_pc(0x00)
	.dwattr $C$DW$193, DW_AT_name("DelayMsSearching")
	.dwattr $C$DW$193, DW_AT_TI_call
        BL        DelayMsSearching      ; [DPU_3_PIPE] |586| 
        ; CALL OCCURS {DelayMsSearching }  ; [] |586| 
	.dwpsn	file "../esp8266.c",line 587,column 5,is_stmt,isa 1
;----------------------------------------------------------------------
; 587 | if(SearchFound) return 1; // success                                   
;----------------------------------------------------------------------
        LDR       A1, $C$CON42          ; [DPU_3_PIPE] |587| 
        LDRB      A1, [A1, #0]          ; [DPU_3_PIPE] |587| 
        CBZ       A1, ||$C$L71||        ; [] 
        ; BRANCHCC OCCURS {||$C$L71||}   ; [] |587| 
;* --------------------------------------------------------------------------*
	.dwpsn	file "../esp8266.c",line 587,column 21,is_stmt,isa 1
        MOVS      A1, #1                ; [DPU_3_PIPE] |587| 
        B         ||$C$L73||            ; [DPU_3_PIPE] |587| 
        ; BRANCH OCCURS {||$C$L73||}     ; [] |587| 
;* --------------------------------------------------------------------------*
||$C$L71||:    
	.dwpsn	file "../esp8266.c",line 588,column 5,is_stmt,isa 1
;----------------------------------------------------------------------
; 588 | try--;                                                                 
;----------------------------------------------------------------------
        LDR       A1, [SP, #0]          ; [DPU_3_PIPE] |588| 
        SUBS      A1, A1, #1            ; [DPU_3_PIPE] |588| 
        STR       A1, [SP, #0]          ; [DPU_3_PIPE] |588| 
	.dwpsn	file "../esp8266.c",line 583,column 3,is_stmt,isa 1
        LDR       A1, [SP, #0]          ; [DPU_3_PIPE] |583| 
        CMP       A1, #0                ; [DPU_3_PIPE] |583| 
        BNE       ||$C$L70||            ; [DPU_3_PIPE] |583| 
        ; BRANCHCC OCCURS {||$C$L70||}   ; [] |583| 
;* --------------------------------------------------------------------------*
||$C$L72||:    
	.dwpsn	file "../esp8266.c",line 590,column 3,is_stmt,isa 1
;----------------------------------------------------------------------
; 590 | return 0; // fail                                                      
;----------------------------------------------------------------------
        MOVS      A1, #0                ; [DPU_3_PIPE] |590| 
;* --------------------------------------------------------------------------*
||$C$L73||:    
	.dwpsn	file "../esp8266.c",line 591,column 1,is_stmt,isa 1
$C$DW$194	.dwtag  DW_TAG_TI_branch
	.dwattr $C$DW$194, DW_AT_low_pc(0x00)
	.dwattr $C$DW$194, DW_AT_TI_return
        POP       {A4, PC}              ; [DPU_3_PIPE] 
	.dwcfi	cfa_offset, 0
        ; BRANCH OCCURS                  ; [] 
	.dwattr $C$DW$189, DW_AT_TI_end_file("../esp8266.c")
	.dwattr $C$DW$189, DW_AT_TI_end_line(0x24f)
	.dwattr $C$DW$189, DW_AT_TI_end_column(0x01)
	.dwendentry
	.dwendtag $C$DW$189

	.sect	".text"
	.clink
	.thumbfunc ESP8266_SendTCP
	.thumb
	.global	ESP8266_SendTCP

$C$DW$195	.dwtag  DW_TAG_subprogram, DW_AT_name("ESP8266_SendTCP")
	.dwattr $C$DW$195, DW_AT_low_pc(ESP8266_SendTCP)
	.dwattr $C$DW$195, DW_AT_high_pc(0x00)
	.dwattr $C$DW$195, DW_AT_TI_symbol_name("ESP8266_SendTCP")
	.dwattr $C$DW$195, DW_AT_external
	.dwattr $C$DW$195, DW_AT_type(*$C$DW$T$10)
	.dwattr $C$DW$195, DW_AT_TI_begin_file("../esp8266.c")
	.dwattr $C$DW$195, DW_AT_TI_begin_line(0x257)
	.dwattr $C$DW$195, DW_AT_TI_begin_column(0x05)
	.dwattr $C$DW$195, DW_AT_decl_file("../esp8266.c")
	.dwattr $C$DW$195, DW_AT_decl_line(0x257)
	.dwattr $C$DW$195, DW_AT_decl_column(0x05)
	.dwattr $C$DW$195, DW_AT_TI_max_frame_size(0x08)
	.dwpsn	file "../esp8266.c",line 599,column 26,is_stmt,address ESP8266_SendTCP,isa 1

	.dwfde $C$DW$CIE, ESP8266_SendTCP
;----------------------------------------------------------------------
; 599 | int ESP8266_SendTCP(void){                                             
;----------------------------------------------------------------------

;*****************************************************************************
;* FUNCTION NAME: ESP8266_SendTCP                                            *
;*                                                                           *
;*   Regs Modified     : A1,A2,A3,A4,V9,SP,LR,SR,D0,D0_hi,D1,D1_hi,D2,D2_hi, *
;*                           D3,D3_hi,D4,D4_hi,D5,D5_hi,D6,D6_hi,D7,D7_hi,   *
;*                           FPEXC,FPSCR                                     *
;*   Regs Used         : A1,A2,A3,A4,V9,SP,LR,SR,D0,D0_hi,D1,D1_hi,D2,D2_hi, *
;*                           D3,D3_hi,D4,D4_hi,D5,D5_hi,D6,D6_hi,D7,D7_hi,   *
;*                           FPEXC,FPSCR                                     *
;*   Local Frame Size  : 0 Args + 0 Auto + 4 Save = 4 byte                   *
;*****************************************************************************
ESP8266_SendTCP:
;* --------------------------------------------------------------------------*
	.dwcfi	cfa_offset, 0
        PUSH      {A4, LR}              ; [DPU_3_PIPE] 
	.dwcfi	cfa_offset, 8
	.dwcfi	save_reg_to_mem, 14, -4
	.dwcfi	save_reg_to_mem, 3, -8
	.dwpsn	file "../esp8266.c",line 600,column 3,is_stmt,isa 1
;----------------------------------------------------------------------
; 600 | sprintf((char*)ESP8266_TXBuffer, "AT+CIPSEND=%d\r\n", strlen(Fetch));  
;----------------------------------------------------------------------
        LDR       A1, $C$CON43          ; [DPU_3_PIPE] |600| 
$C$DW$196	.dwtag  DW_TAG_TI_branch
	.dwattr $C$DW$196, DW_AT_low_pc(0x00)
	.dwattr $C$DW$196, DW_AT_name("strlen")
	.dwattr $C$DW$196, DW_AT_TI_call
        BL        strlen                ; [DPU_3_PIPE] |600| 
        ; CALL OCCURS {strlen }          ; [] |600| 
        MOV       A3, A1                ; [DPU_3_PIPE] |600| 
        LDR       A1, $C$CON44          ; [DPU_3_PIPE] |600| 
        ADR       A2, $C$SL29           ; [DPU_3_PIPE] |600| 
$C$DW$197	.dwtag  DW_TAG_TI_branch
	.dwattr $C$DW$197, DW_AT_low_pc(0x00)
	.dwattr $C$DW$197, DW_AT_name("sprintf")
	.dwattr $C$DW$197, DW_AT_TI_call
        BL        sprintf               ; [DPU_3_PIPE] |600| 
        ; CALL OCCURS {sprintf }         ; [] |600| 
	.dwpsn	file "../esp8266.c",line 601,column 3,is_stmt,isa 1
;----------------------------------------------------------------------
; 601 | ESP8266SendCommand(ESP8266_TXBuffer);                                  
;----------------------------------------------------------------------
        LDR       A1, $C$CON44          ; [DPU_3_PIPE] |601| 
$C$DW$198	.dwtag  DW_TAG_TI_branch
	.dwattr $C$DW$198, DW_AT_low_pc(0x00)
	.dwattr $C$DW$198, DW_AT_name("ESP8266SendCommand")
	.dwattr $C$DW$198, DW_AT_TI_call
        BL        ESP8266SendCommand    ; [DPU_3_PIPE] |601| 
        ; CALL OCCURS {ESP8266SendCommand }  ; [] |601| 
	.dwpsn	file "../esp8266.c",line 602,column 3,is_stmt,isa 1
;----------------------------------------------------------------------
; 602 | DelayMs(500);                                                          
;----------------------------------------------------------------------
        MOV       A1, #500              ; [DPU_3_PIPE] |602| 
$C$DW$199	.dwtag  DW_TAG_TI_branch
	.dwattr $C$DW$199, DW_AT_low_pc(0x00)
	.dwattr $C$DW$199, DW_AT_name("DelayMs")
	.dwattr $C$DW$199, DW_AT_TI_call
        BL        DelayMs               ; [DPU_3_PIPE] |602| 
        ; CALL OCCURS {DelayMs }         ; [] |602| 
	.dwpsn	file "../esp8266.c",line 603,column 3,is_stmt,isa 1
;----------------------------------------------------------------------
; 603 | ESP8266SendCommand(Fetch);                                             
;----------------------------------------------------------------------
        LDR       A1, $C$CON43          ; [DPU_3_PIPE] |603| 
$C$DW$200	.dwtag  DW_TAG_TI_branch
	.dwattr $C$DW$200, DW_AT_low_pc(0x00)
	.dwattr $C$DW$200, DW_AT_name("ESP8266SendCommand")
	.dwattr $C$DW$200, DW_AT_TI_call
        BL        ESP8266SendCommand    ; [DPU_3_PIPE] |603| 
        ; CALL OCCURS {ESP8266SendCommand }  ; [] |603| 
	.dwpsn	file "../esp8266.c",line 604,column 3,is_stmt,isa 1
;----------------------------------------------------------------------
; 604 | DelayMs(4000);                                                         
;----------------------------------------------------------------------
        MOV       A1, #4000             ; [DPU_3_PIPE] |604| 
$C$DW$201	.dwtag  DW_TAG_TI_branch
	.dwattr $C$DW$201, DW_AT_low_pc(0x00)
	.dwattr $C$DW$201, DW_AT_name("DelayMs")
	.dwattr $C$DW$201, DW_AT_TI_call
        BL        DelayMs               ; [DPU_3_PIPE] |604| 
        ; CALL OCCURS {DelayMs }         ; [] |604| 
	.dwpsn	file "../esp8266.c",line 605,column 3,is_stmt,isa 1
;----------------------------------------------------------------------
; 605 | return 1; // success                                                   
;----------------------------------------------------------------------
        MOVS      A1, #1                ; [DPU_3_PIPE] |605| 
	.dwpsn	file "../esp8266.c",line 606,column 1,is_stmt,isa 1
$C$DW$202	.dwtag  DW_TAG_TI_branch
	.dwattr $C$DW$202, DW_AT_low_pc(0x00)
	.dwattr $C$DW$202, DW_AT_TI_return
        POP       {A4, PC}              ; [DPU_3_PIPE] 
	.dwcfi	cfa_offset, 0
        ; BRANCH OCCURS                  ; [] 
	.dwattr $C$DW$195, DW_AT_TI_end_file("../esp8266.c")
	.dwattr $C$DW$195, DW_AT_TI_end_line(0x25e)
	.dwattr $C$DW$195, DW_AT_TI_end_column(0x01)
	.dwendentry
	.dwendtag $C$DW$195

;******************************************************************************
;* STRINGS                                                                    *
;******************************************************************************
	.sect	".text"
	.align	4
||$C$SL22||:	.string	"AT+CWLAP",13,10,0
	.align	4
||$C$SL23||:	.string	"AT+CWQAP",13,10,0
	.sect	".text"
	.clink
	.thumbfunc ESP8266_CloseTCPConnection
	.thumb
	.global	ESP8266_CloseTCPConnection

$C$DW$203	.dwtag  DW_TAG_subprogram, DW_AT_name("ESP8266_CloseTCPConnection")
	.dwattr $C$DW$203, DW_AT_low_pc(ESP8266_CloseTCPConnection)
	.dwattr $C$DW$203, DW_AT_high_pc(0x00)
	.dwattr $C$DW$203, DW_AT_TI_symbol_name("ESP8266_CloseTCPConnection")
	.dwattr $C$DW$203, DW_AT_external
	.dwattr $C$DW$203, DW_AT_type(*$C$DW$T$10)
	.dwattr $C$DW$203, DW_AT_TI_begin_file("../esp8266.c")
	.dwattr $C$DW$203, DW_AT_TI_begin_line(0x264)
	.dwattr $C$DW$203, DW_AT_TI_begin_column(0x05)
	.dwattr $C$DW$203, DW_AT_decl_file("../esp8266.c")
	.dwattr $C$DW$203, DW_AT_decl_line(0x264)
	.dwattr $C$DW$203, DW_AT_decl_column(0x05)
	.dwattr $C$DW$203, DW_AT_TI_max_frame_size(0x08)
	.dwpsn	file "../esp8266.c",line 612,column 37,is_stmt,address ESP8266_CloseTCPConnection,isa 1

	.dwfde $C$DW$CIE, ESP8266_CloseTCPConnection
;----------------------------------------------------------------------
; 612 | int ESP8266_CloseTCPConnection(void){                                  
;----------------------------------------------------------------------

;*****************************************************************************
;* FUNCTION NAME: ESP8266_CloseTCPConnection                                 *
;*                                                                           *
;*   Regs Modified     : A1,A2,A3,A4,V9,SP,LR,SR,D0,D0_hi,D1,D1_hi,D2,D2_hi, *
;*                           D3,D3_hi,D4,D4_hi,D5,D5_hi,D6,D6_hi,D7,D7_hi,   *
;*                           FPEXC,FPSCR                                     *
;*   Regs Used         : A1,A2,A3,A4,V9,SP,LR,SR,D0,D0_hi,D1,D1_hi,D2,D2_hi, *
;*                           D3,D3_hi,D4,D4_hi,D5,D5_hi,D6,D6_hi,D7,D7_hi,   *
;*                           FPEXC,FPSCR                                     *
;*   Local Frame Size  : 0 Args + 4 Auto + 4 Save = 8 byte                   *
;*****************************************************************************
ESP8266_CloseTCPConnection:
;* --------------------------------------------------------------------------*
	.dwcfi	cfa_offset, 0
        PUSH      {A4, LR}              ; [DPU_3_PIPE] 
	.dwcfi	cfa_offset, 8
	.dwcfi	save_reg_to_mem, 14, -4
	.dwcfi	save_reg_to_mem, 3, -8
$C$DW$204	.dwtag  DW_TAG_variable, DW_AT_name("try")
	.dwattr $C$DW$204, DW_AT_TI_symbol_name("try")
	.dwattr $C$DW$204, DW_AT_type(*$C$DW$T$10)
	.dwattr $C$DW$204, DW_AT_location[DW_OP_breg13 0]
	.dwpsn	file "../esp8266.c",line 613,column 10,is_stmt,isa 1
;----------------------------------------------------------------------
; 613 | int try=MAXTRY;                                                        
;----------------------------------------------------------------------
        MOVS      A1, #10               ; [DPU_3_PIPE] |613| 
        STR       A1, [SP, #0]          ; [DPU_3_PIPE] |613| 
	.dwpsn	file "../esp8266.c",line 614,column 3,is_stmt,isa 1
;----------------------------------------------------------------------
; 614 | strcpy(SearchString, "OK");                                            
;----------------------------------------------------------------------
        LDR       A1, $C$CON40          ; [DPU_3_PIPE] |614| 
        LDR       A2, $C$CON41          ; [] |614| 
$C$DW$205	.dwtag  DW_TAG_TI_branch
	.dwattr $C$DW$205, DW_AT_low_pc(0x00)
	.dwattr $C$DW$205, DW_AT_name("strcpy")
	.dwattr $C$DW$205, DW_AT_TI_call
        BL        strcpy                ; [DPU_3_PIPE] |614| 
        ; CALL OCCURS {strcpy }          ; [] |614| 
	.dwpsn	file "../esp8266.c",line 615,column 3,is_stmt,isa 1
;----------------------------------------------------------------------
; 615 | SearchLooking = true;                                                  
;----------------------------------------------------------------------
        LDR       A2, $C$CON34          ; [DPU_3_PIPE] |615| 
        MOVS      A1, #1                ; [DPU_3_PIPE] |615| 
        STRB      A1, [A2, #0]          ; [DPU_3_PIPE] |615| 
	.dwpsn	file "../esp8266.c",line 616,column 3,is_stmt,isa 1
;----------------------------------------------------------------------
; 616 | SearchFound = false;                                                   
;----------------------------------------------------------------------
        LDR       A2, $C$CON42          ; [DPU_3_PIPE] |616| 
        MOVS      A1, #0                ; [DPU_3_PIPE] |616| 
        STRB      A1, [A2, #0]          ; [DPU_3_PIPE] |616| 
	.dwpsn	file "../esp8266.c",line 617,column 3,is_stmt,isa 1
;----------------------------------------------------------------------
; 617 | while(try){                                                            
;----------------------------------------------------------------------
        LDR       A1, [SP, #0]          ; [DPU_3_PIPE] |617| 
        CBZ       A1, ||$C$L76||        ; [] 
        ; BRANCHCC OCCURS {||$C$L76||}   ; [] |617| 
;* --------------------------------------------------------------------------*
;*   BEGIN LOOP ||$C$L74||
;*
;*   Loop source line                : 617
;*   Loop closing brace source line  : 622
;*   Known Minimum Trip Count        : 1
;*   Known Maximum Trip Count        : 4294967295
;*   Known Max Trip Count Factor     : 1
;* --------------------------------------------------------------------------*
||$C$L74||:    
	.dwpsn	file "../esp8266.c",line 618,column 5,is_stmt,isa 1
;----------------------------------------------------------------------
; 618 | ESP8266SendCommand("AT+CIPCLOSE\r\n");                                 
;----------------------------------------------------------------------
        ADR       A1, $C$SL30           ; [DPU_3_PIPE] |618| 
$C$DW$206	.dwtag  DW_TAG_TI_branch
	.dwattr $C$DW$206, DW_AT_low_pc(0x00)
	.dwattr $C$DW$206, DW_AT_name("ESP8266SendCommand")
	.dwattr $C$DW$206, DW_AT_TI_call
        BL        ESP8266SendCommand    ; [DPU_3_PIPE] |618| 
        ; CALL OCCURS {ESP8266SendCommand }  ; [] |618| 
	.dwpsn	file "../esp8266.c",line 619,column 5,is_stmt,isa 1
;----------------------------------------------------------------------
; 619 | DelayMsSearching(4000);                                                
;----------------------------------------------------------------------
        MOV       A1, #4000             ; [DPU_3_PIPE] |619| 
$C$DW$207	.dwtag  DW_TAG_TI_branch
	.dwattr $C$DW$207, DW_AT_low_pc(0x00)
	.dwattr $C$DW$207, DW_AT_name("DelayMsSearching")
	.dwattr $C$DW$207, DW_AT_TI_call
        BL        DelayMsSearching      ; [DPU_3_PIPE] |619| 
        ; CALL OCCURS {DelayMsSearching }  ; [] |619| 
	.dwpsn	file "../esp8266.c",line 620,column 5,is_stmt,isa 1
;----------------------------------------------------------------------
; 620 | if(SearchFound) return 1; // success                                   
;----------------------------------------------------------------------
        LDR       A1, $C$CON42          ; [DPU_3_PIPE] |620| 
        LDRB      A1, [A1, #0]          ; [DPU_3_PIPE] |620| 
        CBZ       A1, ||$C$L75||        ; [] 
        ; BRANCHCC OCCURS {||$C$L75||}   ; [] |620| 
;* --------------------------------------------------------------------------*
	.dwpsn	file "../esp8266.c",line 620,column 21,is_stmt,isa 1
        MOVS      A1, #1                ; [DPU_3_PIPE] |620| 
        B         ||$C$L77||            ; [DPU_3_PIPE] |620| 
        ; BRANCH OCCURS {||$C$L77||}     ; [] |620| 
;* --------------------------------------------------------------------------*
||$C$L75||:    
	.dwpsn	file "../esp8266.c",line 621,column 5,is_stmt,isa 1
;----------------------------------------------------------------------
; 621 | try--;                                                                 
;----------------------------------------------------------------------
        LDR       A1, [SP, #0]          ; [DPU_3_PIPE] |621| 
        SUBS      A1, A1, #1            ; [DPU_3_PIPE] |621| 
        STR       A1, [SP, #0]          ; [DPU_3_PIPE] |621| 
	.dwpsn	file "../esp8266.c",line 617,column 3,is_stmt,isa 1
        LDR       A1, [SP, #0]          ; [DPU_3_PIPE] |617| 
        CMP       A1, #0                ; [DPU_3_PIPE] |617| 
        BNE       ||$C$L74||            ; [DPU_3_PIPE] |617| 
        ; BRANCHCC OCCURS {||$C$L74||}   ; [] |617| 
;* --------------------------------------------------------------------------*
||$C$L76||:    
	.dwpsn	file "../esp8266.c",line 623,column 3,is_stmt,isa 1
;----------------------------------------------------------------------
; 623 | return 0; // fail                                                      
;----------------------------------------------------------------------
        MOVS      A1, #0                ; [DPU_3_PIPE] |623| 
;* --------------------------------------------------------------------------*
||$C$L77||:    
	.dwpsn	file "../esp8266.c",line 624,column 1,is_stmt,isa 1
$C$DW$208	.dwtag  DW_TAG_TI_branch
	.dwattr $C$DW$208, DW_AT_low_pc(0x00)
	.dwattr $C$DW$208, DW_AT_TI_return
        POP       {A4, PC}              ; [DPU_3_PIPE] 
	.dwcfi	cfa_offset, 0
        ; BRANCH OCCURS                  ; [] 
;******************************************************************************
;* CONSTANT TABLE                                                             *
;******************************************************************************
	.sect	".text"
	.align	4
||$C$CON34||:	.bits	SearchLooking,32
	.dwattr $C$DW$203, DW_AT_TI_end_file("../esp8266.c")
	.dwattr $C$DW$203, DW_AT_TI_end_line(0x270)
	.dwattr $C$DW$203, DW_AT_TI_end_column(0x01)
	.dwendentry
	.dwendtag $C$DW$203

;******************************************************************************
;* STRINGS                                                                    *
;******************************************************************************
	.sect	".text"
	.align	4
||$C$SL24||:	.string	"AT+CWSAP=",34,"%s",34,",",34,"%s",34,",%d,%d",13,10,0
	.sect	".text"
	.clink
	.thumbfunc ESP8266_SetDataTransmissionMode
	.thumb
	.global	ESP8266_SetDataTransmissionMode

$C$DW$209	.dwtag  DW_TAG_subprogram, DW_AT_name("ESP8266_SetDataTransmissionMode")
	.dwattr $C$DW$209, DW_AT_low_pc(ESP8266_SetDataTransmissionMode)
	.dwattr $C$DW$209, DW_AT_high_pc(0x00)
	.dwattr $C$DW$209, DW_AT_TI_symbol_name("ESP8266_SetDataTransmissionMode")
	.dwattr $C$DW$209, DW_AT_external
	.dwattr $C$DW$209, DW_AT_type(*$C$DW$T$10)
	.dwattr $C$DW$209, DW_AT_TI_begin_file("../esp8266.c")
	.dwattr $C$DW$209, DW_AT_TI_begin_line(0x275)
	.dwattr $C$DW$209, DW_AT_TI_begin_column(0x05)
	.dwattr $C$DW$209, DW_AT_decl_file("../esp8266.c")
	.dwattr $C$DW$209, DW_AT_decl_line(0x275)
	.dwattr $C$DW$209, DW_AT_decl_column(0x05)
	.dwattr $C$DW$209, DW_AT_TI_max_frame_size(0x10)
	.dwpsn	file "../esp8266.c",line 629,column 50,is_stmt,address ESP8266_SetDataTransmissionMode,isa 1

	.dwfde $C$DW$CIE, ESP8266_SetDataTransmissionMode
$C$DW$210	.dwtag  DW_TAG_formal_parameter, DW_AT_name("mode")
	.dwattr $C$DW$210, DW_AT_TI_symbol_name("mode")
	.dwattr $C$DW$210, DW_AT_type(*$C$DW$T$48)
	.dwattr $C$DW$210, DW_AT_location[DW_OP_reg0]

;*****************************************************************************
;* FUNCTION NAME: ESP8266_SetDataTransmissionMode                            *
;*                                                                           *
;*   Regs Modified     : A1,A2,A3,A4,V9,SP,LR,SR,D0,D0_hi,D1,D1_hi,D2,D2_hi, *
;*                           D3,D3_hi,D4,D4_hi,D5,D5_hi,D6,D6_hi,D7,D7_hi,   *
;*                           FPEXC,FPSCR                                     *
;*   Regs Used         : A1,A2,A3,A4,V9,SP,LR,SR,D0,D0_hi,D1,D1_hi,D2,D2_hi, *
;*                           D3,D3_hi,D4,D4_hi,D5,D5_hi,D6,D6_hi,D7,D7_hi,   *
;*                           FPEXC,FPSCR                                     *
;*   Local Frame Size  : 0 Args + 8 Auto + 4 Save = 12 byte                  *
;*****************************************************************************
ESP8266_SetDataTransmissionMode:
;* --------------------------------------------------------------------------*
	.dwcfi	cfa_offset, 0
        PUSH      {A2, A3, A4, LR}      ; [DPU_3_PIPE] 
	.dwcfi	cfa_offset, 16
	.dwcfi	save_reg_to_mem, 14, -4
	.dwcfi	save_reg_to_mem, 3, -8
	.dwcfi	save_reg_to_mem, 2, -12
	.dwcfi	save_reg_to_mem, 1, -16
$C$DW$211	.dwtag  DW_TAG_variable, DW_AT_name("mode")
	.dwattr $C$DW$211, DW_AT_TI_symbol_name("mode")
	.dwattr $C$DW$211, DW_AT_type(*$C$DW$T$48)
	.dwattr $C$DW$211, DW_AT_location[DW_OP_breg13 0]
$C$DW$212	.dwtag  DW_TAG_variable, DW_AT_name("try")
	.dwattr $C$DW$212, DW_AT_TI_symbol_name("try")
	.dwattr $C$DW$212, DW_AT_type(*$C$DW$T$10)
	.dwattr $C$DW$212, DW_AT_location[DW_OP_breg13 4]
;----------------------------------------------------------------------
; 629 | int ESP8266_SetDataTransmissionMode(uint8_t mode){                     
;----------------------------------------------------------------------
        STRB      A1, [SP, #0]          ; [DPU_3_PIPE] |629| 
	.dwpsn	file "../esp8266.c",line 630,column 10,is_stmt,isa 1
;----------------------------------------------------------------------
; 630 | int try=MAXTRY;                                                        
;----------------------------------------------------------------------
        MOVS      A1, #10               ; [DPU_3_PIPE] |630| 
        STR       A1, [SP, #4]          ; [DPU_3_PIPE] |630| 
	.dwpsn	file "../esp8266.c",line 631,column 3,is_stmt,isa 1
;----------------------------------------------------------------------
; 631 | strcpy(SearchString, "OK");                                            
;----------------------------------------------------------------------
        LDR       A1, $C$CON40          ; [DPU_3_PIPE] |631| 
        LDR       A2, $C$CON41          ; [] |631| 
$C$DW$213	.dwtag  DW_TAG_TI_branch
	.dwattr $C$DW$213, DW_AT_low_pc(0x00)
	.dwattr $C$DW$213, DW_AT_name("strcpy")
	.dwattr $C$DW$213, DW_AT_TI_call
        BL        strcpy                ; [DPU_3_PIPE] |631| 
        ; CALL OCCURS {strcpy }          ; [] |631| 
	.dwpsn	file "../esp8266.c",line 632,column 3,is_stmt,isa 1
;----------------------------------------------------------------------
; 632 | SearchLooking = true;                                                  
;----------------------------------------------------------------------
        LDR       A2, $C$CON45          ; [DPU_3_PIPE] |632| 
        MOVS      A1, #1                ; [DPU_3_PIPE] |632| 
        STRB      A1, [A2, #0]          ; [DPU_3_PIPE] |632| 
	.dwpsn	file "../esp8266.c",line 633,column 3,is_stmt,isa 1
;----------------------------------------------------------------------
; 633 | SearchFound = false;                                                   
;----------------------------------------------------------------------
        LDR       A2, $C$CON42          ; [DPU_3_PIPE] |633| 
        MOVS      A1, #0                ; [DPU_3_PIPE] |633| 
        STRB      A1, [A2, #0]          ; [DPU_3_PIPE] |633| 
	.dwpsn	file "../esp8266.c",line 634,column 3,is_stmt,isa 1
;----------------------------------------------------------------------
; 634 | while(try){                                                            
;----------------------------------------------------------------------
        LDR       A1, [SP, #4]          ; [DPU_3_PIPE] |634| 
        CBZ       A1, ||$C$L80||        ; [] 
        ; BRANCHCC OCCURS {||$C$L80||}   ; [] |634| 
;* --------------------------------------------------------------------------*
;*   BEGIN LOOP ||$C$L78||
;*
;*   Loop source line                : 634
;*   Loop closing brace source line  : 640
;*   Known Minimum Trip Count        : 1
;*   Known Maximum Trip Count        : 4294967295
;*   Known Max Trip Count Factor     : 1
;* --------------------------------------------------------------------------*
||$C$L78||:    
	.dwpsn	file "../esp8266.c",line 635,column 5,is_stmt,isa 1
;----------------------------------------------------------------------
; 635 | sprintf((char*)ESP8266_TXBuffer, "AT+CIPMODE=%d\r\n", mode);           
;----------------------------------------------------------------------
        LDRB      A3, [SP, #0]          ; [DPU_3_PIPE] |635| 
        LDR       A1, $C$CON44          ; [DPU_3_PIPE] |635| 
        ADR       A2, $C$SL31           ; [DPU_3_PIPE] |635| 
$C$DW$214	.dwtag  DW_TAG_TI_branch
	.dwattr $C$DW$214, DW_AT_low_pc(0x00)
	.dwattr $C$DW$214, DW_AT_name("sprintf")
	.dwattr $C$DW$214, DW_AT_TI_call
        BL        sprintf               ; [DPU_3_PIPE] |635| 
        ; CALL OCCURS {sprintf }         ; [] |635| 
	.dwpsn	file "../esp8266.c",line 636,column 5,is_stmt,isa 1
;----------------------------------------------------------------------
; 636 | ESP8266SendCommand((const char*)ESP8266_TXBuffer);                     
;----------------------------------------------------------------------
        LDR       A1, $C$CON44          ; [DPU_3_PIPE] |636| 
$C$DW$215	.dwtag  DW_TAG_TI_branch
	.dwattr $C$DW$215, DW_AT_low_pc(0x00)
	.dwattr $C$DW$215, DW_AT_name("ESP8266SendCommand")
	.dwattr $C$DW$215, DW_AT_TI_call
        BL        ESP8266SendCommand    ; [DPU_3_PIPE] |636| 
        ; CALL OCCURS {ESP8266SendCommand }  ; [] |636| 
	.dwpsn	file "../esp8266.c",line 637,column 5,is_stmt,isa 1
;----------------------------------------------------------------------
; 637 | DelayMsSearching(5000);                                                
;----------------------------------------------------------------------
        MOV       A1, #5000             ; [DPU_3_PIPE] |637| 
$C$DW$216	.dwtag  DW_TAG_TI_branch
	.dwattr $C$DW$216, DW_AT_low_pc(0x00)
	.dwattr $C$DW$216, DW_AT_name("DelayMsSearching")
	.dwattr $C$DW$216, DW_AT_TI_call
        BL        DelayMsSearching      ; [DPU_3_PIPE] |637| 
        ; CALL OCCURS {DelayMsSearching }  ; [] |637| 
	.dwpsn	file "../esp8266.c",line 638,column 5,is_stmt,isa 1
;----------------------------------------------------------------------
; 638 | if(SearchFound) return 1; // success                                   
;----------------------------------------------------------------------
        LDR       A1, $C$CON42          ; [DPU_3_PIPE] |638| 
        LDRB      A1, [A1, #0]          ; [DPU_3_PIPE] |638| 
        CBZ       A1, ||$C$L79||        ; [] 
        ; BRANCHCC OCCURS {||$C$L79||}   ; [] |638| 
;* --------------------------------------------------------------------------*
	.dwpsn	file "../esp8266.c",line 638,column 21,is_stmt,isa 1
        MOVS      A1, #1                ; [DPU_3_PIPE] |638| 
        B         ||$C$L81||            ; [DPU_3_PIPE] |638| 
        ; BRANCH OCCURS {||$C$L81||}     ; [] |638| 
;* --------------------------------------------------------------------------*
||$C$L79||:    
	.dwpsn	file "../esp8266.c",line 639,column 5,is_stmt,isa 1
;----------------------------------------------------------------------
; 639 | try--;                                                                 
;----------------------------------------------------------------------
        LDR       A1, [SP, #4]          ; [DPU_3_PIPE] |639| 
        SUBS      A1, A1, #1            ; [DPU_3_PIPE] |639| 
        STR       A1, [SP, #4]          ; [DPU_3_PIPE] |639| 
	.dwpsn	file "../esp8266.c",line 634,column 3,is_stmt,isa 1
        LDR       A1, [SP, #4]          ; [DPU_3_PIPE] |634| 
        CMP       A1, #0                ; [DPU_3_PIPE] |634| 
        BNE       ||$C$L78||            ; [DPU_3_PIPE] |634| 
        ; BRANCHCC OCCURS {||$C$L78||}   ; [] |634| 
;* --------------------------------------------------------------------------*
||$C$L80||:    
	.dwpsn	file "../esp8266.c",line 641,column 3,is_stmt,isa 1
;----------------------------------------------------------------------
; 641 | return 0; // fail                                                      
;----------------------------------------------------------------------
        MOVS      A1, #0                ; [DPU_3_PIPE] |641| 
;* --------------------------------------------------------------------------*
||$C$L81||:    
	.dwpsn	file "../esp8266.c",line 642,column 1,is_stmt,isa 1
$C$DW$217	.dwtag  DW_TAG_TI_branch
	.dwattr $C$DW$217, DW_AT_low_pc(0x00)
	.dwattr $C$DW$217, DW_AT_TI_return
        POP       {A2, A3, A4, PC}      ; [DPU_3_PIPE] 
	.dwcfi	cfa_offset, 0
        ; BRANCH OCCURS                  ; [] 
	.dwattr $C$DW$209, DW_AT_TI_end_file("../esp8266.c")
	.dwattr $C$DW$209, DW_AT_TI_end_line(0x282)
	.dwattr $C$DW$209, DW_AT_TI_end_column(0x01)
	.dwendentry
	.dwendtag $C$DW$209

	.sect	".text"
	.clink
	.thumbfunc ESP8266_GetStatus
	.thumb
	.global	ESP8266_GetStatus

$C$DW$218	.dwtag  DW_TAG_subprogram, DW_AT_name("ESP8266_GetStatus")
	.dwattr $C$DW$218, DW_AT_low_pc(ESP8266_GetStatus)
	.dwattr $C$DW$218, DW_AT_high_pc(0x00)
	.dwattr $C$DW$218, DW_AT_TI_symbol_name("ESP8266_GetStatus")
	.dwattr $C$DW$218, DW_AT_external
	.dwattr $C$DW$218, DW_AT_type(*$C$DW$T$10)
	.dwattr $C$DW$218, DW_AT_TI_begin_file("../esp8266.c")
	.dwattr $C$DW$218, DW_AT_TI_begin_line(0x287)
	.dwattr $C$DW$218, DW_AT_TI_begin_column(0x05)
	.dwattr $C$DW$218, DW_AT_decl_file("../esp8266.c")
	.dwattr $C$DW$218, DW_AT_decl_line(0x287)
	.dwattr $C$DW$218, DW_AT_decl_column(0x05)
	.dwattr $C$DW$218, DW_AT_TI_max_frame_size(0x08)
	.dwpsn	file "../esp8266.c",line 647,column 28,is_stmt,address ESP8266_GetStatus,isa 1

	.dwfde $C$DW$CIE, ESP8266_GetStatus
;----------------------------------------------------------------------
; 647 | int ESP8266_GetStatus(void){                                           
;----------------------------------------------------------------------

;*****************************************************************************
;* FUNCTION NAME: ESP8266_GetStatus                                          *
;*                                                                           *
;*   Regs Modified     : A1,A2,A3,A4,V9,SP,LR,SR,D0,D0_hi,D1,D1_hi,D2,D2_hi, *
;*                           D3,D3_hi,D4,D4_hi,D5,D5_hi,D6,D6_hi,D7,D7_hi,   *
;*                           FPEXC,FPSCR                                     *
;*   Regs Used         : A1,A2,A3,A4,V9,SP,LR,SR,D0,D0_hi,D1,D1_hi,D2,D2_hi, *
;*                           D3,D3_hi,D4,D4_hi,D5,D5_hi,D6,D6_hi,D7,D7_hi,   *
;*                           FPEXC,FPSCR                                     *
;*   Local Frame Size  : 0 Args + 4 Auto + 4 Save = 8 byte                   *
;*****************************************************************************
ESP8266_GetStatus:
;* --------------------------------------------------------------------------*
	.dwcfi	cfa_offset, 0
        PUSH      {A4, LR}              ; [DPU_3_PIPE] 
	.dwcfi	cfa_offset, 8
	.dwcfi	save_reg_to_mem, 14, -4
	.dwcfi	save_reg_to_mem, 3, -8
$C$DW$219	.dwtag  DW_TAG_variable, DW_AT_name("try")
	.dwattr $C$DW$219, DW_AT_TI_symbol_name("try")
	.dwattr $C$DW$219, DW_AT_type(*$C$DW$T$10)
	.dwattr $C$DW$219, DW_AT_location[DW_OP_breg13 0]
	.dwpsn	file "../esp8266.c",line 648,column 10,is_stmt,isa 1
;----------------------------------------------------------------------
; 648 | int try=MAXTRY;                                                        
;----------------------------------------------------------------------
        MOVS      A1, #10               ; [DPU_3_PIPE] |648| 
        STR       A1, [SP, #0]          ; [DPU_3_PIPE] |648| 
	.dwpsn	file "../esp8266.c",line 649,column 3,is_stmt,isa 1
;----------------------------------------------------------------------
; 649 | strcpy(SearchString, "OK");                                            
;----------------------------------------------------------------------
        LDR       A1, $C$CON40          ; [DPU_3_PIPE] |649| 
        LDR       A2, $C$CON41          ; [] |649| 
$C$DW$220	.dwtag  DW_TAG_TI_branch
	.dwattr $C$DW$220, DW_AT_low_pc(0x00)
	.dwattr $C$DW$220, DW_AT_name("strcpy")
	.dwattr $C$DW$220, DW_AT_TI_call
        BL        strcpy                ; [DPU_3_PIPE] |649| 
        ; CALL OCCURS {strcpy }          ; [] |649| 
	.dwpsn	file "../esp8266.c",line 650,column 3,is_stmt,isa 1
;----------------------------------------------------------------------
; 650 | SearchLooking = true;                                                  
;----------------------------------------------------------------------
        LDR       A2, $C$CON45          ; [DPU_3_PIPE] |650| 
        MOVS      A1, #1                ; [DPU_3_PIPE] |650| 
        STRB      A1, [A2, #0]          ; [DPU_3_PIPE] |650| 
	.dwpsn	file "../esp8266.c",line 651,column 3,is_stmt,isa 1
;----------------------------------------------------------------------
; 651 | SearchFound = false;                                                   
;----------------------------------------------------------------------
        LDR       A2, $C$CON42          ; [DPU_3_PIPE] |651| 
        MOVS      A1, #0                ; [DPU_3_PIPE] |651| 
        STRB      A1, [A2, #0]          ; [DPU_3_PIPE] |651| 
	.dwpsn	file "../esp8266.c",line 652,column 3,is_stmt,isa 1
;----------------------------------------------------------------------
; 652 | while(try){                                                            
;----------------------------------------------------------------------
        LDR       A1, [SP, #0]          ; [DPU_3_PIPE] |652| 
        CBZ       A1, ||$C$L84||        ; [] 
        ; BRANCHCC OCCURS {||$C$L84||}   ; [] |652| 
;* --------------------------------------------------------------------------*
;*   BEGIN LOOP ||$C$L82||
;*
;*   Loop source line                : 652
;*   Loop closing brace source line  : 657
;*   Known Minimum Trip Count        : 1
;*   Known Maximum Trip Count        : 4294967295
;*   Known Max Trip Count Factor     : 1
;* --------------------------------------------------------------------------*
||$C$L82||:    
	.dwpsn	file "../esp8266.c",line 653,column 5,is_stmt,isa 1
;----------------------------------------------------------------------
; 653 | ESP8266SendCommand("AT+CIPSTATUS\r\n");                                
;----------------------------------------------------------------------
        ADR       A1, $C$SL32           ; [DPU_3_PIPE] |653| 
$C$DW$221	.dwtag  DW_TAG_TI_branch
	.dwattr $C$DW$221, DW_AT_low_pc(0x00)
	.dwattr $C$DW$221, DW_AT_name("ESP8266SendCommand")
	.dwattr $C$DW$221, DW_AT_TI_call
        BL        ESP8266SendCommand    ; [DPU_3_PIPE] |653| 
        ; CALL OCCURS {ESP8266SendCommand }  ; [] |653| 
	.dwpsn	file "../esp8266.c",line 654,column 5,is_stmt,isa 1
;----------------------------------------------------------------------
; 654 | DelayMsSearching(5000);                                                
;----------------------------------------------------------------------
        MOV       A1, #5000             ; [DPU_3_PIPE] |654| 
$C$DW$222	.dwtag  DW_TAG_TI_branch
	.dwattr $C$DW$222, DW_AT_low_pc(0x00)
	.dwattr $C$DW$222, DW_AT_name("DelayMsSearching")
	.dwattr $C$DW$222, DW_AT_TI_call
        BL        DelayMsSearching      ; [DPU_3_PIPE] |654| 
        ; CALL OCCURS {DelayMsSearching }  ; [] |654| 
	.dwpsn	file "../esp8266.c",line 655,column 5,is_stmt,isa 1
;----------------------------------------------------------------------
; 655 | if(SearchFound) return 1; // success                                   
;----------------------------------------------------------------------
        LDR       A1, $C$CON42          ; [DPU_3_PIPE] |655| 
        LDRB      A1, [A1, #0]          ; [DPU_3_PIPE] |655| 
        CBZ       A1, ||$C$L83||        ; [] 
        ; BRANCHCC OCCURS {||$C$L83||}   ; [] |655| 
;* --------------------------------------------------------------------------*
	.dwpsn	file "../esp8266.c",line 655,column 21,is_stmt,isa 1
        MOVS      A1, #1                ; [DPU_3_PIPE] |655| 
        B         ||$C$L85||            ; [DPU_3_PIPE] |655| 
        ; BRANCH OCCURS {||$C$L85||}     ; [] |655| 
;* --------------------------------------------------------------------------*
||$C$L83||:    
	.dwpsn	file "../esp8266.c",line 656,column 5,is_stmt,isa 1
;----------------------------------------------------------------------
; 656 | try--;                                                                 
;----------------------------------------------------------------------
        LDR       A1, [SP, #0]          ; [DPU_3_PIPE] |656| 
        SUBS      A1, A1, #1            ; [DPU_3_PIPE] |656| 
        STR       A1, [SP, #0]          ; [DPU_3_PIPE] |656| 
	.dwpsn	file "../esp8266.c",line 652,column 3,is_stmt,isa 1
        LDR       A1, [SP, #0]          ; [DPU_3_PIPE] |652| 
        CMP       A1, #0                ; [DPU_3_PIPE] |652| 
        BNE       ||$C$L82||            ; [DPU_3_PIPE] |652| 
        ; BRANCHCC OCCURS {||$C$L82||}   ; [] |652| 
;* --------------------------------------------------------------------------*
||$C$L84||:    
	.dwpsn	file "../esp8266.c",line 658,column 3,is_stmt,isa 1
;----------------------------------------------------------------------
; 658 | return 0; // fail                                                      
;----------------------------------------------------------------------
        MOVS      A1, #0                ; [DPU_3_PIPE] |658| 
;* --------------------------------------------------------------------------*
||$C$L85||:    
	.dwpsn	file "../esp8266.c",line 659,column 1,is_stmt,isa 1
$C$DW$223	.dwtag  DW_TAG_TI_branch
	.dwattr $C$DW$223, DW_AT_low_pc(0x00)
	.dwattr $C$DW$223, DW_AT_TI_return
        POP       {A4, PC}              ; [DPU_3_PIPE] 
	.dwcfi	cfa_offset, 0
        ; BRANCH OCCURS                  ; [] 
	.dwattr $C$DW$218, DW_AT_TI_end_file("../esp8266.c")
	.dwattr $C$DW$218, DW_AT_TI_end_line(0x293)
	.dwattr $C$DW$218, DW_AT_TI_end_column(0x01)
	.dwendentry
	.dwendtag $C$DW$218

;******************************************************************************
;* STRINGS                                                                    *
;******************************************************************************
	.sect	".text"
	.align	4
||$C$SL25||:	.string	"message=",0
	.align	4
||$C$SL26||:	.string	"Message from ESP8266: %s",10,0
	.align	4
||$C$SL27||:	.string	"AT+CIFSR",13,10,0
	.align	4
||$C$SL28||:	.string	"AT+CIPSTART=",34,"TCP",34,",",34,"144.76.83.20",34,",80",13
	.string	10,0
	.align	4
||$C$SL29||:	.string	"AT+CIPSEND=%d",13,10,0
	.align	4
||$C$SL30||:	.string	"AT+CIPCLOSE",13,10,0
	.align	4
||$C$SL31||:	.string	"AT+CIPMODE=%d",13,10,0
	.align	4
||$C$SL32||:	.string	"AT+CIPSTATUS",13,10,0
;******************************************************************************
;* CONSTANT TABLE                                                             *
;******************************************************************************
	.sect	".text"
	.align	4
||$C$CON35||:	.bits	ESP8266_PageRequested,32
	.align	4
||$C$CON36||:	.bits	-536813312,32
	.align	4
||$C$CON37||:	.bits	-536813184,32
	.align	4
||$C$CON38||:	.bits	1073795096,32
	.align	4
||$C$CON39||:	.bits	1073795072,32
	.align	4
||$C$CON40||:	.bits	SearchString,32
	.align	4
||$C$CON41||:	.bits	$C$SL16,32
	.align	4
||$C$CON42||:	.bits	SearchFound,32
	.align	4
||$C$CON43||:	.bits	Fetch,32
	.align	4
||$C$CON44||:	.bits	ESP8266_TXBuffer,32
	.align	4
||$C$CON45||:	.bits	SearchLooking,32
;*****************************************************************************
;* UNDEFINED EXTERNAL REFERENCES                                             *
;*****************************************************************************
	.global	printf
	.global	sprintf
	.global	strlen
	.global	strcpy
	.global	strstr
	.global	UART_OutCharNonBlock
	.global	EnableInterrupts

;******************************************************************************
;* BUILD ATTRIBUTES                                                           *
;******************************************************************************
	.battr "aeabi", Tag_File, 1, Tag_ABI_PCS_wchar_t(2)
	.battr "aeabi", Tag_File, 1, Tag_ABI_FP_rounding(0)
	.battr "aeabi", Tag_File, 1, Tag_ABI_FP_denormal(0)
	.battr "aeabi", Tag_File, 1, Tag_ABI_FP_exceptions(0)
	.battr "aeabi", Tag_File, 1, Tag_ABI_FP_number_model(1)
	.battr "aeabi", Tag_File, 1, Tag_ABI_enum_size(0)
	.battr "aeabi", Tag_File, 1, Tag_ABI_optimization_goals(5)
	.battr "aeabi", Tag_File, 1, Tag_ABI_FP_optimization_goals(0)
	.battr "TI", Tag_File, 1, Tag_Bitfield_layout(2)
	.battr "TI", Tag_File, 1, Tag_FP_interface(1)

;******************************************************************************
;* TYPE INFORMATION                                                           *
;******************************************************************************

$C$DW$T$20	.dwtag  DW_TAG_structure_type
	.dwattr $C$DW$T$20, DW_AT_byte_size(0x18)
$C$DW$224	.dwtag  DW_TAG_member
	.dwattr $C$DW$224, DW_AT_type(*$C$DW$T$10)
	.dwattr $C$DW$224, DW_AT_name("fd")
	.dwattr $C$DW$224, DW_AT_TI_symbol_name("fd")
	.dwattr $C$DW$224, DW_AT_data_member_location[DW_OP_plus_uconst 0x0]
	.dwattr $C$DW$224, DW_AT_accessibility(DW_ACCESS_public)
	.dwattr $C$DW$224, DW_AT_decl_file("C:/ti/ccsv6/tools/compiler/ti-cgt-arm_5.2.4/include/stdio.h")
	.dwattr $C$DW$224, DW_AT_decl_line(0x5c)
	.dwattr $C$DW$224, DW_AT_decl_column(0x0b)
$C$DW$225	.dwtag  DW_TAG_member
	.dwattr $C$DW$225, DW_AT_type(*$C$DW$T$19)
	.dwattr $C$DW$225, DW_AT_name("buf")
	.dwattr $C$DW$225, DW_AT_TI_symbol_name("buf")
	.dwattr $C$DW$225, DW_AT_data_member_location[DW_OP_plus_uconst 0x4]
	.dwattr $C$DW$225, DW_AT_accessibility(DW_ACCESS_public)
	.dwattr $C$DW$225, DW_AT_decl_file("C:/ti/ccsv6/tools/compiler/ti-cgt-arm_5.2.4/include/stdio.h")
	.dwattr $C$DW$225, DW_AT_decl_line(0x5d)
	.dwattr $C$DW$225, DW_AT_decl_column(0x16)
$C$DW$226	.dwtag  DW_TAG_member
	.dwattr $C$DW$226, DW_AT_type(*$C$DW$T$19)
	.dwattr $C$DW$226, DW_AT_name("pos")
	.dwattr $C$DW$226, DW_AT_TI_symbol_name("pos")
	.dwattr $C$DW$226, DW_AT_data_member_location[DW_OP_plus_uconst 0x8]
	.dwattr $C$DW$226, DW_AT_accessibility(DW_ACCESS_public)
	.dwattr $C$DW$226, DW_AT_decl_file("C:/ti/ccsv6/tools/compiler/ti-cgt-arm_5.2.4/include/stdio.h")
	.dwattr $C$DW$226, DW_AT_decl_line(0x5e)
	.dwattr $C$DW$226, DW_AT_decl_column(0x16)
$C$DW$227	.dwtag  DW_TAG_member
	.dwattr $C$DW$227, DW_AT_type(*$C$DW$T$19)
	.dwattr $C$DW$227, DW_AT_name("bufend")
	.dwattr $C$DW$227, DW_AT_TI_symbol_name("bufend")
	.dwattr $C$DW$227, DW_AT_data_member_location[DW_OP_plus_uconst 0xc]
	.dwattr $C$DW$227, DW_AT_accessibility(DW_ACCESS_public)
	.dwattr $C$DW$227, DW_AT_decl_file("C:/ti/ccsv6/tools/compiler/ti-cgt-arm_5.2.4/include/stdio.h")
	.dwattr $C$DW$227, DW_AT_decl_line(0x5f)
	.dwattr $C$DW$227, DW_AT_decl_column(0x16)
$C$DW$228	.dwtag  DW_TAG_member
	.dwattr $C$DW$228, DW_AT_type(*$C$DW$T$19)
	.dwattr $C$DW$228, DW_AT_name("buff_stop")
	.dwattr $C$DW$228, DW_AT_TI_symbol_name("buff_stop")
	.dwattr $C$DW$228, DW_AT_data_member_location[DW_OP_plus_uconst 0x10]
	.dwattr $C$DW$228, DW_AT_accessibility(DW_ACCESS_public)
	.dwattr $C$DW$228, DW_AT_decl_file("C:/ti/ccsv6/tools/compiler/ti-cgt-arm_5.2.4/include/stdio.h")
	.dwattr $C$DW$228, DW_AT_decl_line(0x60)
	.dwattr $C$DW$228, DW_AT_decl_column(0x16)
$C$DW$229	.dwtag  DW_TAG_member
	.dwattr $C$DW$229, DW_AT_type(*$C$DW$T$11)
	.dwattr $C$DW$229, DW_AT_name("flags")
	.dwattr $C$DW$229, DW_AT_TI_symbol_name("flags")
	.dwattr $C$DW$229, DW_AT_data_member_location[DW_OP_plus_uconst 0x14]
	.dwattr $C$DW$229, DW_AT_accessibility(DW_ACCESS_public)
	.dwattr $C$DW$229, DW_AT_decl_file("C:/ti/ccsv6/tools/compiler/ti-cgt-arm_5.2.4/include/stdio.h")
	.dwattr $C$DW$229, DW_AT_decl_line(0x61)
	.dwattr $C$DW$229, DW_AT_decl_column(0x16)
	.dwendtag $C$DW$T$20

	.dwattr $C$DW$T$20, DW_AT_decl_file("C:/ti/ccsv6/tools/compiler/ti-cgt-arm_5.2.4/include/stdio.h")
	.dwattr $C$DW$T$20, DW_AT_decl_line(0x5b)
	.dwattr $C$DW$T$20, DW_AT_decl_column(0x10)
$C$DW$T$25	.dwtag  DW_TAG_typedef, DW_AT_name("FILE")
	.dwattr $C$DW$T$25, DW_AT_type(*$C$DW$T$20)
	.dwattr $C$DW$T$25, DW_AT_language(DW_LANG_C)
	.dwattr $C$DW$T$25, DW_AT_decl_file("C:/ti/ccsv6/tools/compiler/ti-cgt-arm_5.2.4/include/stdio.h")
	.dwattr $C$DW$T$25, DW_AT_decl_line(0x62)
	.dwattr $C$DW$T$25, DW_AT_decl_column(0x03)

$C$DW$T$21	.dwtag  DW_TAG_structure_type
	.dwattr $C$DW$T$21, DW_AT_byte_size(0x08)
$C$DW$230	.dwtag  DW_TAG_member
	.dwattr $C$DW$230, DW_AT_type(*$C$DW$T$10)
	.dwattr $C$DW$230, DW_AT_name("quot")
	.dwattr $C$DW$230, DW_AT_TI_symbol_name("quot")
	.dwattr $C$DW$230, DW_AT_data_member_location[DW_OP_plus_uconst 0x0]
	.dwattr $C$DW$230, DW_AT_accessibility(DW_ACCESS_public)
	.dwattr $C$DW$230, DW_AT_decl_file("C:/ti/ccsv6/tools/compiler/ti-cgt-arm_5.2.4/include/stdlib.h")
	.dwattr $C$DW$230, DW_AT_decl_line(0x59)
	.dwattr $C$DW$230, DW_AT_decl_column(0x16)
$C$DW$231	.dwtag  DW_TAG_member
	.dwattr $C$DW$231, DW_AT_type(*$C$DW$T$10)
	.dwattr $C$DW$231, DW_AT_name("rem")
	.dwattr $C$DW$231, DW_AT_TI_symbol_name("rem")
	.dwattr $C$DW$231, DW_AT_data_member_location[DW_OP_plus_uconst 0x4]
	.dwattr $C$DW$231, DW_AT_accessibility(DW_ACCESS_public)
	.dwattr $C$DW$231, DW_AT_decl_file("C:/ti/ccsv6/tools/compiler/ti-cgt-arm_5.2.4/include/stdlib.h")
	.dwattr $C$DW$231, DW_AT_decl_line(0x59)
	.dwattr $C$DW$231, DW_AT_decl_column(0x1c)
	.dwendtag $C$DW$T$21

	.dwattr $C$DW$T$21, DW_AT_decl_file("C:/ti/ccsv6/tools/compiler/ti-cgt-arm_5.2.4/include/stdlib.h")
	.dwattr $C$DW$T$21, DW_AT_decl_line(0x59)
	.dwattr $C$DW$T$21, DW_AT_decl_column(0x10)
$C$DW$T$26	.dwtag  DW_TAG_typedef, DW_AT_name("div_t")
	.dwattr $C$DW$T$26, DW_AT_type(*$C$DW$T$21)
	.dwattr $C$DW$T$26, DW_AT_language(DW_LANG_C)
	.dwattr $C$DW$T$26, DW_AT_decl_file("C:/ti/ccsv6/tools/compiler/ti-cgt-arm_5.2.4/include/stdlib.h")
	.dwattr $C$DW$T$26, DW_AT_decl_line(0x59)
	.dwattr $C$DW$T$26, DW_AT_decl_column(0x23)

$C$DW$T$22	.dwtag  DW_TAG_structure_type
	.dwattr $C$DW$T$22, DW_AT_byte_size(0x08)
$C$DW$232	.dwtag  DW_TAG_member
	.dwattr $C$DW$232, DW_AT_type(*$C$DW$T$10)
	.dwattr $C$DW$232, DW_AT_name("quot")
	.dwattr $C$DW$232, DW_AT_TI_symbol_name("quot")
	.dwattr $C$DW$232, DW_AT_data_member_location[DW_OP_plus_uconst 0x0]
	.dwattr $C$DW$232, DW_AT_accessibility(DW_ACCESS_public)
	.dwattr $C$DW$232, DW_AT_decl_file("C:/ti/ccsv6/tools/compiler/ti-cgt-arm_5.2.4/include/stdlib.h")
	.dwattr $C$DW$232, DW_AT_decl_line(0x5b)
	.dwattr $C$DW$232, DW_AT_decl_column(0x16)
$C$DW$233	.dwtag  DW_TAG_member
	.dwattr $C$DW$233, DW_AT_type(*$C$DW$T$10)
	.dwattr $C$DW$233, DW_AT_name("rem")
	.dwattr $C$DW$233, DW_AT_TI_symbol_name("rem")
	.dwattr $C$DW$233, DW_AT_data_member_location[DW_OP_plus_uconst 0x4]
	.dwattr $C$DW$233, DW_AT_accessibility(DW_ACCESS_public)
	.dwattr $C$DW$233, DW_AT_decl_file("C:/ti/ccsv6/tools/compiler/ti-cgt-arm_5.2.4/include/stdlib.h")
	.dwattr $C$DW$233, DW_AT_decl_line(0x5b)
	.dwattr $C$DW$233, DW_AT_decl_column(0x1c)
	.dwendtag $C$DW$T$22

	.dwattr $C$DW$T$22, DW_AT_decl_file("C:/ti/ccsv6/tools/compiler/ti-cgt-arm_5.2.4/include/stdlib.h")
	.dwattr $C$DW$T$22, DW_AT_decl_line(0x5b)
	.dwattr $C$DW$T$22, DW_AT_decl_column(0x10)
$C$DW$T$27	.dwtag  DW_TAG_typedef, DW_AT_name("ldiv_t")
	.dwattr $C$DW$T$27, DW_AT_type(*$C$DW$T$22)
	.dwattr $C$DW$T$27, DW_AT_language(DW_LANG_C)
	.dwattr $C$DW$T$27, DW_AT_decl_file("C:/ti/ccsv6/tools/compiler/ti-cgt-arm_5.2.4/include/stdlib.h")
	.dwattr $C$DW$T$27, DW_AT_decl_line(0x5b)
	.dwattr $C$DW$T$27, DW_AT_decl_column(0x23)

$C$DW$T$23	.dwtag  DW_TAG_structure_type
	.dwattr $C$DW$T$23, DW_AT_byte_size(0x10)
$C$DW$234	.dwtag  DW_TAG_member
	.dwattr $C$DW$234, DW_AT_type(*$C$DW$T$14)
	.dwattr $C$DW$234, DW_AT_name("quot")
	.dwattr $C$DW$234, DW_AT_TI_symbol_name("quot")
	.dwattr $C$DW$234, DW_AT_data_member_location[DW_OP_plus_uconst 0x0]
	.dwattr $C$DW$234, DW_AT_accessibility(DW_ACCESS_public)
	.dwattr $C$DW$234, DW_AT_decl_file("C:/ti/ccsv6/tools/compiler/ti-cgt-arm_5.2.4/include/stdlib.h")
	.dwattr $C$DW$234, DW_AT_decl_line(0x5e)
	.dwattr $C$DW$234, DW_AT_decl_column(0x1c)
$C$DW$235	.dwtag  DW_TAG_member
	.dwattr $C$DW$235, DW_AT_type(*$C$DW$T$14)
	.dwattr $C$DW$235, DW_AT_name("rem")
	.dwattr $C$DW$235, DW_AT_TI_symbol_name("rem")
	.dwattr $C$DW$235, DW_AT_data_member_location[DW_OP_plus_uconst 0x8]
	.dwattr $C$DW$235, DW_AT_accessibility(DW_ACCESS_public)
	.dwattr $C$DW$235, DW_AT_decl_file("C:/ti/ccsv6/tools/compiler/ti-cgt-arm_5.2.4/include/stdlib.h")
	.dwattr $C$DW$235, DW_AT_decl_line(0x5e)
	.dwattr $C$DW$235, DW_AT_decl_column(0x22)
	.dwendtag $C$DW$T$23

	.dwattr $C$DW$T$23, DW_AT_decl_file("C:/ti/ccsv6/tools/compiler/ti-cgt-arm_5.2.4/include/stdlib.h")
	.dwattr $C$DW$T$23, DW_AT_decl_line(0x5e)
	.dwattr $C$DW$T$23, DW_AT_decl_column(0x10)
$C$DW$T$28	.dwtag  DW_TAG_typedef, DW_AT_name("lldiv_t")
	.dwattr $C$DW$T$28, DW_AT_type(*$C$DW$T$23)
	.dwattr $C$DW$T$28, DW_AT_language(DW_LANG_C)
	.dwattr $C$DW$T$28, DW_AT_decl_file("C:/ti/ccsv6/tools/compiler/ti-cgt-arm_5.2.4/include/stdlib.h")
	.dwattr $C$DW$T$28, DW_AT_decl_line(0x5e)
	.dwattr $C$DW$T$28, DW_AT_decl_column(0x29)
$C$DW$T$2	.dwtag  DW_TAG_unspecified_type
	.dwattr $C$DW$T$2, DW_AT_name("void")
$C$DW$T$3	.dwtag  DW_TAG_pointer_type
	.dwattr $C$DW$T$3, DW_AT_type(*$C$DW$T$2)
	.dwattr $C$DW$T$3, DW_AT_address_class(0x20)

$C$DW$T$32	.dwtag  DW_TAG_subroutine_type
	.dwattr $C$DW$T$32, DW_AT_language(DW_LANG_C)
$C$DW$T$33	.dwtag  DW_TAG_pointer_type
	.dwattr $C$DW$T$33, DW_AT_type(*$C$DW$T$32)
	.dwattr $C$DW$T$33, DW_AT_address_class(0x20)
$C$DW$T$34	.dwtag  DW_TAG_typedef, DW_AT_name("__TI_atexit_fn")
	.dwattr $C$DW$T$34, DW_AT_type(*$C$DW$T$33)
	.dwattr $C$DW$T$34, DW_AT_language(DW_LANG_C)
	.dwattr $C$DW$T$34, DW_AT_decl_file("C:/ti/ccsv6/tools/compiler/ti-cgt-arm_5.2.4/include/stdlib.h")
	.dwattr $C$DW$T$34, DW_AT_decl_line(0xb2)
	.dwattr $C$DW$T$34, DW_AT_decl_column(0x14)
$C$DW$T$44	.dwtag  DW_TAG_const_type
	.dwattr $C$DW$T$44, DW_AT_type(*$C$DW$T$2)
$C$DW$T$45	.dwtag  DW_TAG_pointer_type
	.dwattr $C$DW$T$45, DW_AT_type(*$C$DW$T$44)
	.dwattr $C$DW$T$45, DW_AT_address_class(0x20)
$C$DW$T$4	.dwtag  DW_TAG_base_type
	.dwattr $C$DW$T$4, DW_AT_encoding(DW_ATE_boolean)
	.dwattr $C$DW$T$4, DW_AT_name("bool")
	.dwattr $C$DW$T$4, DW_AT_byte_size(0x01)
$C$DW$T$5	.dwtag  DW_TAG_base_type
	.dwattr $C$DW$T$5, DW_AT_encoding(DW_ATE_signed_char)
	.dwattr $C$DW$T$5, DW_AT_name("signed char")
	.dwattr $C$DW$T$5, DW_AT_byte_size(0x01)
$C$DW$T$46	.dwtag  DW_TAG_typedef, DW_AT_name("int8_t")
	.dwattr $C$DW$T$46, DW_AT_type(*$C$DW$T$5)
	.dwattr $C$DW$T$46, DW_AT_language(DW_LANG_C)
	.dwattr $C$DW$T$46, DW_AT_decl_file("C:/ti/ccsv6/tools/compiler/ti-cgt-arm_5.2.4/include/stdint.h")
	.dwattr $C$DW$T$46, DW_AT_decl_line(0x2a)
	.dwattr $C$DW$T$46, DW_AT_decl_column(0x1d)
$C$DW$T$47	.dwtag  DW_TAG_typedef, DW_AT_name("int_least8_t")
	.dwattr $C$DW$T$47, DW_AT_type(*$C$DW$T$46)
	.dwattr $C$DW$T$47, DW_AT_language(DW_LANG_C)
	.dwattr $C$DW$T$47, DW_AT_decl_file("C:/ti/ccsv6/tools/compiler/ti-cgt-arm_5.2.4/include/stdint.h")
	.dwattr $C$DW$T$47, DW_AT_decl_line(0x37)
	.dwattr $C$DW$T$47, DW_AT_decl_column(0x17)
$C$DW$T$6	.dwtag  DW_TAG_base_type
	.dwattr $C$DW$T$6, DW_AT_encoding(DW_ATE_unsigned_char)
	.dwattr $C$DW$T$6, DW_AT_name("unsigned char")
	.dwattr $C$DW$T$6, DW_AT_byte_size(0x01)
$C$DW$T$19	.dwtag  DW_TAG_pointer_type
	.dwattr $C$DW$T$19, DW_AT_type(*$C$DW$T$6)
	.dwattr $C$DW$T$19, DW_AT_address_class(0x20)
$C$DW$T$48	.dwtag  DW_TAG_typedef, DW_AT_name("uint8_t")
	.dwattr $C$DW$T$48, DW_AT_type(*$C$DW$T$6)
	.dwattr $C$DW$T$48, DW_AT_language(DW_LANG_C)
	.dwattr $C$DW$T$48, DW_AT_decl_file("C:/ti/ccsv6/tools/compiler/ti-cgt-arm_5.2.4/include/stdint.h")
	.dwattr $C$DW$T$48, DW_AT_decl_line(0x2b)
	.dwattr $C$DW$T$48, DW_AT_decl_column(0x1c)
$C$DW$T$49	.dwtag  DW_TAG_typedef, DW_AT_name("uint_least8_t")
	.dwattr $C$DW$T$49, DW_AT_type(*$C$DW$T$48)
	.dwattr $C$DW$T$49, DW_AT_language(DW_LANG_C)
	.dwattr $C$DW$T$49, DW_AT_decl_file("C:/ti/ccsv6/tools/compiler/ti-cgt-arm_5.2.4/include/stdint.h")
	.dwattr $C$DW$T$49, DW_AT_decl_line(0x38)
	.dwattr $C$DW$T$49, DW_AT_decl_column(0x16)
$C$DW$T$7	.dwtag  DW_TAG_base_type
	.dwattr $C$DW$T$7, DW_AT_encoding(DW_ATE_signed_char)
	.dwattr $C$DW$T$7, DW_AT_name("wchar_t")
	.dwattr $C$DW$T$7, DW_AT_byte_size(0x02)
$C$DW$T$8	.dwtag  DW_TAG_base_type
	.dwattr $C$DW$T$8, DW_AT_encoding(DW_ATE_signed)
	.dwattr $C$DW$T$8, DW_AT_name("short")
	.dwattr $C$DW$T$8, DW_AT_byte_size(0x02)
$C$DW$T$50	.dwtag  DW_TAG_typedef, DW_AT_name("int16_t")
	.dwattr $C$DW$T$50, DW_AT_type(*$C$DW$T$8)
	.dwattr $C$DW$T$50, DW_AT_language(DW_LANG_C)
	.dwattr $C$DW$T$50, DW_AT_decl_file("C:/ti/ccsv6/tools/compiler/ti-cgt-arm_5.2.4/include/stdint.h")
	.dwattr $C$DW$T$50, DW_AT_decl_line(0x2c)
	.dwattr $C$DW$T$50, DW_AT_decl_column(0x1d)
$C$DW$T$51	.dwtag  DW_TAG_typedef, DW_AT_name("int_least16_t")
	.dwattr $C$DW$T$51, DW_AT_type(*$C$DW$T$50)
	.dwattr $C$DW$T$51, DW_AT_language(DW_LANG_C)
	.dwattr $C$DW$T$51, DW_AT_decl_file("C:/ti/ccsv6/tools/compiler/ti-cgt-arm_5.2.4/include/stdint.h")
	.dwattr $C$DW$T$51, DW_AT_decl_line(0x3a)
	.dwattr $C$DW$T$51, DW_AT_decl_column(0x17)
$C$DW$T$9	.dwtag  DW_TAG_base_type
	.dwattr $C$DW$T$9, DW_AT_encoding(DW_ATE_unsigned)
	.dwattr $C$DW$T$9, DW_AT_name("unsigned short")
	.dwattr $C$DW$T$9, DW_AT_byte_size(0x02)
$C$DW$T$52	.dwtag  DW_TAG_typedef, DW_AT_name("_Wchart")
	.dwattr $C$DW$T$52, DW_AT_type(*$C$DW$T$9)
	.dwattr $C$DW$T$52, DW_AT_language(DW_LANG_C)
	.dwattr $C$DW$T$52, DW_AT_decl_file("C:/ti/ccsv6/tools/compiler/ti-cgt-arm_5.2.4/include/yvals.h")
	.dwattr $C$DW$T$52, DW_AT_decl_line(0x1e5)
	.dwattr $C$DW$T$52, DW_AT_decl_column(0x21)
$C$DW$T$53	.dwtag  DW_TAG_typedef, DW_AT_name("_Wintt")
	.dwattr $C$DW$T$53, DW_AT_type(*$C$DW$T$9)
	.dwattr $C$DW$T$53, DW_AT_language(DW_LANG_C)
	.dwattr $C$DW$T$53, DW_AT_decl_file("C:/ti/ccsv6/tools/compiler/ti-cgt-arm_5.2.4/include/yvals.h")
	.dwattr $C$DW$T$53, DW_AT_decl_line(0x1e6)
	.dwattr $C$DW$T$53, DW_AT_decl_column(0x21)
$C$DW$T$42	.dwtag  DW_TAG_typedef, DW_AT_name("uint16_t")
	.dwattr $C$DW$T$42, DW_AT_type(*$C$DW$T$9)
	.dwattr $C$DW$T$42, DW_AT_language(DW_LANG_C)
	.dwattr $C$DW$T$42, DW_AT_decl_file("C:/ti/ccsv6/tools/compiler/ti-cgt-arm_5.2.4/include/stdint.h")
	.dwattr $C$DW$T$42, DW_AT_decl_line(0x2d)
	.dwattr $C$DW$T$42, DW_AT_decl_column(0x1c)
$C$DW$T$54	.dwtag  DW_TAG_typedef, DW_AT_name("uint_least16_t")
	.dwattr $C$DW$T$54, DW_AT_type(*$C$DW$T$42)
	.dwattr $C$DW$T$54, DW_AT_language(DW_LANG_C)
	.dwattr $C$DW$T$54, DW_AT_decl_file("C:/ti/ccsv6/tools/compiler/ti-cgt-arm_5.2.4/include/stdint.h")
	.dwattr $C$DW$T$54, DW_AT_decl_line(0x3b)
	.dwattr $C$DW$T$54, DW_AT_decl_column(0x16)
$C$DW$T$55	.dwtag  DW_TAG_typedef, DW_AT_name("wchar_t")
	.dwattr $C$DW$T$55, DW_AT_type(*$C$DW$T$9)
	.dwattr $C$DW$T$55, DW_AT_language(DW_LANG_C)
	.dwattr $C$DW$T$55, DW_AT_decl_file("C:/ti/ccsv6/tools/compiler/ti-cgt-arm_5.2.4/include/stdlib.h")
	.dwattr $C$DW$T$55, DW_AT_decl_line(0x75)
	.dwattr $C$DW$T$55, DW_AT_decl_column(0x1a)
$C$DW$T$10	.dwtag  DW_TAG_base_type
	.dwattr $C$DW$T$10, DW_AT_encoding(DW_ATE_signed)
	.dwattr $C$DW$T$10, DW_AT_name("int")
	.dwattr $C$DW$T$10, DW_AT_byte_size(0x04)
$C$DW$T$56	.dwtag  DW_TAG_typedef, DW_AT_name("_Ptrdifft")
	.dwattr $C$DW$T$56, DW_AT_type(*$C$DW$T$10)
	.dwattr $C$DW$T$56, DW_AT_language(DW_LANG_C)
	.dwattr $C$DW$T$56, DW_AT_decl_file("C:/ti/ccsv6/tools/compiler/ti-cgt-arm_5.2.4/include/yvals.h")
	.dwattr $C$DW$T$56, DW_AT_decl_line(0xa9)
	.dwattr $C$DW$T$56, DW_AT_decl_column(0x1e)
$C$DW$T$69	.dwtag  DW_TAG_volatile_type
	.dwattr $C$DW$T$69, DW_AT_type(*$C$DW$T$10)

$C$DW$T$70	.dwtag  DW_TAG_subroutine_type
	.dwattr $C$DW$T$70, DW_AT_type(*$C$DW$T$10)
	.dwattr $C$DW$T$70, DW_AT_language(DW_LANG_C)
$C$DW$236	.dwtag  DW_TAG_formal_parameter
	.dwattr $C$DW$236, DW_AT_type(*$C$DW$T$45)
$C$DW$237	.dwtag  DW_TAG_formal_parameter
	.dwattr $C$DW$237, DW_AT_type(*$C$DW$T$45)
	.dwendtag $C$DW$T$70

$C$DW$T$71	.dwtag  DW_TAG_pointer_type
	.dwattr $C$DW$T$71, DW_AT_type(*$C$DW$T$70)
	.dwattr $C$DW$T$71, DW_AT_address_class(0x20)
$C$DW$T$72	.dwtag  DW_TAG_typedef, DW_AT_name("__TI_compar_fn")
	.dwattr $C$DW$T$72, DW_AT_type(*$C$DW$T$71)
	.dwattr $C$DW$T$72, DW_AT_language(DW_LANG_C)
	.dwattr $C$DW$T$72, DW_AT_decl_file("C:/ti/ccsv6/tools/compiler/ti-cgt-arm_5.2.4/include/stdlib.h")
	.dwattr $C$DW$T$72, DW_AT_decl_line(0xb5)
	.dwattr $C$DW$T$72, DW_AT_decl_column(0x13)
$C$DW$T$73	.dwtag  DW_TAG_typedef, DW_AT_name("int32_t")
	.dwattr $C$DW$T$73, DW_AT_type(*$C$DW$T$10)
	.dwattr $C$DW$T$73, DW_AT_language(DW_LANG_C)
	.dwattr $C$DW$T$73, DW_AT_decl_file("C:/ti/ccsv6/tools/compiler/ti-cgt-arm_5.2.4/include/stdint.h")
	.dwattr $C$DW$T$73, DW_AT_decl_line(0x2e)
	.dwattr $C$DW$T$73, DW_AT_decl_column(0x1d)
$C$DW$T$74	.dwtag  DW_TAG_typedef, DW_AT_name("int_fast16_t")
	.dwattr $C$DW$T$74, DW_AT_type(*$C$DW$T$73)
	.dwattr $C$DW$T$74, DW_AT_language(DW_LANG_C)
	.dwattr $C$DW$T$74, DW_AT_decl_file("C:/ti/ccsv6/tools/compiler/ti-cgt-arm_5.2.4/include/stdint.h")
	.dwattr $C$DW$T$74, DW_AT_decl_line(0x47)
	.dwattr $C$DW$T$74, DW_AT_decl_column(0x17)
$C$DW$T$75	.dwtag  DW_TAG_typedef, DW_AT_name("int_fast32_t")
	.dwattr $C$DW$T$75, DW_AT_type(*$C$DW$T$73)
	.dwattr $C$DW$T$75, DW_AT_language(DW_LANG_C)
	.dwattr $C$DW$T$75, DW_AT_decl_file("C:/ti/ccsv6/tools/compiler/ti-cgt-arm_5.2.4/include/stdint.h")
	.dwattr $C$DW$T$75, DW_AT_decl_line(0x4a)
	.dwattr $C$DW$T$75, DW_AT_decl_column(0x17)
$C$DW$T$76	.dwtag  DW_TAG_typedef, DW_AT_name("int_fast8_t")
	.dwattr $C$DW$T$76, DW_AT_type(*$C$DW$T$73)
	.dwattr $C$DW$T$76, DW_AT_language(DW_LANG_C)
	.dwattr $C$DW$T$76, DW_AT_decl_file("C:/ti/ccsv6/tools/compiler/ti-cgt-arm_5.2.4/include/stdint.h")
	.dwattr $C$DW$T$76, DW_AT_decl_line(0x45)
	.dwattr $C$DW$T$76, DW_AT_decl_column(0x17)
$C$DW$T$77	.dwtag  DW_TAG_typedef, DW_AT_name("int_least32_t")
	.dwattr $C$DW$T$77, DW_AT_type(*$C$DW$T$73)
	.dwattr $C$DW$T$77, DW_AT_language(DW_LANG_C)
	.dwattr $C$DW$T$77, DW_AT_decl_file("C:/ti/ccsv6/tools/compiler/ti-cgt-arm_5.2.4/include/stdint.h")
	.dwattr $C$DW$T$77, DW_AT_decl_line(0x3c)
	.dwattr $C$DW$T$77, DW_AT_decl_column(0x17)
$C$DW$T$78	.dwtag  DW_TAG_typedef, DW_AT_name("intptr_t")
	.dwattr $C$DW$T$78, DW_AT_type(*$C$DW$T$10)
	.dwattr $C$DW$T$78, DW_AT_language(DW_LANG_C)
	.dwattr $C$DW$T$78, DW_AT_decl_file("C:/ti/ccsv6/tools/compiler/ti-cgt-arm_5.2.4/include/stdint.h")
	.dwattr $C$DW$T$78, DW_AT_decl_line(0x52)
	.dwattr $C$DW$T$78, DW_AT_decl_column(0x1a)
$C$DW$T$11	.dwtag  DW_TAG_base_type
	.dwattr $C$DW$T$11, DW_AT_encoding(DW_ATE_unsigned)
	.dwattr $C$DW$T$11, DW_AT_name("unsigned int")
	.dwattr $C$DW$T$11, DW_AT_byte_size(0x04)
$C$DW$T$79	.dwtag  DW_TAG_typedef, DW_AT_name("_Sizet")
	.dwattr $C$DW$T$79, DW_AT_type(*$C$DW$T$11)
	.dwattr $C$DW$T$79, DW_AT_language(DW_LANG_C)
	.dwattr $C$DW$T$79, DW_AT_decl_file("C:/ti/ccsv6/tools/compiler/ti-cgt-arm_5.2.4/include/yvals.h")
	.dwattr $C$DW$T$79, DW_AT_decl_line(0xab)
	.dwattr $C$DW$T$79, DW_AT_decl_column(0x1a)
$C$DW$T$81	.dwtag  DW_TAG_typedef, DW_AT_name("size_t")
	.dwattr $C$DW$T$81, DW_AT_type(*$C$DW$T$11)
	.dwattr $C$DW$T$81, DW_AT_language(DW_LANG_C)
	.dwattr $C$DW$T$81, DW_AT_decl_file("C:/ti/ccsv6/tools/compiler/ti-cgt-arm_5.2.4/include/stdio.h")
	.dwattr $C$DW$T$81, DW_AT_decl_line(0x58)
	.dwattr $C$DW$T$81, DW_AT_decl_column(0x19)
$C$DW$T$39	.dwtag  DW_TAG_typedef, DW_AT_name("uint32_t")
	.dwattr $C$DW$T$39, DW_AT_type(*$C$DW$T$11)
	.dwattr $C$DW$T$39, DW_AT_language(DW_LANG_C)
	.dwattr $C$DW$T$39, DW_AT_decl_file("C:/ti/ccsv6/tools/compiler/ti-cgt-arm_5.2.4/include/stdint.h")
	.dwattr $C$DW$T$39, DW_AT_decl_line(0x2f)
	.dwattr $C$DW$T$39, DW_AT_decl_column(0x1c)
$C$DW$T$84	.dwtag  DW_TAG_volatile_type
	.dwattr $C$DW$T$84, DW_AT_type(*$C$DW$T$39)
$C$DW$T$86	.dwtag  DW_TAG_typedef, DW_AT_name("uint_fast16_t")
	.dwattr $C$DW$T$86, DW_AT_type(*$C$DW$T$39)
	.dwattr $C$DW$T$86, DW_AT_language(DW_LANG_C)
	.dwattr $C$DW$T$86, DW_AT_decl_file("C:/ti/ccsv6/tools/compiler/ti-cgt-arm_5.2.4/include/stdint.h")
	.dwattr $C$DW$T$86, DW_AT_decl_line(0x48)
	.dwattr $C$DW$T$86, DW_AT_decl_column(0x16)
$C$DW$T$87	.dwtag  DW_TAG_typedef, DW_AT_name("uint_fast32_t")
	.dwattr $C$DW$T$87, DW_AT_type(*$C$DW$T$39)
	.dwattr $C$DW$T$87, DW_AT_language(DW_LANG_C)
	.dwattr $C$DW$T$87, DW_AT_decl_file("C:/ti/ccsv6/tools/compiler/ti-cgt-arm_5.2.4/include/stdint.h")
	.dwattr $C$DW$T$87, DW_AT_decl_line(0x4b)
	.dwattr $C$DW$T$87, DW_AT_decl_column(0x16)
$C$DW$T$88	.dwtag  DW_TAG_typedef, DW_AT_name("uint_fast8_t")
	.dwattr $C$DW$T$88, DW_AT_type(*$C$DW$T$39)
	.dwattr $C$DW$T$88, DW_AT_language(DW_LANG_C)
	.dwattr $C$DW$T$88, DW_AT_decl_file("C:/ti/ccsv6/tools/compiler/ti-cgt-arm_5.2.4/include/stdint.h")
	.dwattr $C$DW$T$88, DW_AT_decl_line(0x46)
	.dwattr $C$DW$T$88, DW_AT_decl_column(0x16)
$C$DW$T$89	.dwtag  DW_TAG_typedef, DW_AT_name("uint_least32_t")
	.dwattr $C$DW$T$89, DW_AT_type(*$C$DW$T$39)
	.dwattr $C$DW$T$89, DW_AT_language(DW_LANG_C)
	.dwattr $C$DW$T$89, DW_AT_decl_file("C:/ti/ccsv6/tools/compiler/ti-cgt-arm_5.2.4/include/stdint.h")
	.dwattr $C$DW$T$89, DW_AT_decl_line(0x3d)
	.dwattr $C$DW$T$89, DW_AT_decl_column(0x16)
$C$DW$T$90	.dwtag  DW_TAG_typedef, DW_AT_name("uintptr_t")
	.dwattr $C$DW$T$90, DW_AT_type(*$C$DW$T$11)
	.dwattr $C$DW$T$90, DW_AT_language(DW_LANG_C)
	.dwattr $C$DW$T$90, DW_AT_decl_file("C:/ti/ccsv6/tools/compiler/ti-cgt-arm_5.2.4/include/stdint.h")
	.dwattr $C$DW$T$90, DW_AT_decl_line(0x53)
	.dwattr $C$DW$T$90, DW_AT_decl_column(0x1a)
$C$DW$T$12	.dwtag  DW_TAG_base_type
	.dwattr $C$DW$T$12, DW_AT_encoding(DW_ATE_signed)
	.dwattr $C$DW$T$12, DW_AT_name("long")
	.dwattr $C$DW$T$12, DW_AT_byte_size(0x04)
$C$DW$T$91	.dwtag  DW_TAG_typedef, DW_AT_name("_Int32t")
	.dwattr $C$DW$T$91, DW_AT_type(*$C$DW$T$12)
	.dwattr $C$DW$T$91, DW_AT_language(DW_LANG_C)
	.dwattr $C$DW$T$91, DW_AT_decl_file("C:/ti/ccsv6/tools/compiler/ti-cgt-arm_5.2.4/include/yvals.h")
	.dwattr $C$DW$T$91, DW_AT_decl_line(0xa6)
	.dwattr $C$DW$T$91, DW_AT_decl_column(0x0e)
$C$DW$T$92	.dwtag  DW_TAG_typedef, DW_AT_name("fpos_t")
	.dwattr $C$DW$T$92, DW_AT_type(*$C$DW$T$12)
	.dwattr $C$DW$T$92, DW_AT_language(DW_LANG_C)
	.dwattr $C$DW$T$92, DW_AT_decl_file("C:/ti/ccsv6/tools/compiler/ti-cgt-arm_5.2.4/include/stdio.h")
	.dwattr $C$DW$T$92, DW_AT_decl_line(0x6e)
	.dwattr $C$DW$T$92, DW_AT_decl_column(0x0e)
$C$DW$T$13	.dwtag  DW_TAG_base_type
	.dwattr $C$DW$T$13, DW_AT_encoding(DW_ATE_unsigned)
	.dwattr $C$DW$T$13, DW_AT_name("unsigned long")
	.dwattr $C$DW$T$13, DW_AT_byte_size(0x04)
$C$DW$T$93	.dwtag  DW_TAG_typedef, DW_AT_name("_Uint32t")
	.dwattr $C$DW$T$93, DW_AT_type(*$C$DW$T$13)
	.dwattr $C$DW$T$93, DW_AT_language(DW_LANG_C)
	.dwattr $C$DW$T$93, DW_AT_decl_file("C:/ti/ccsv6/tools/compiler/ti-cgt-arm_5.2.4/include/yvals.h")
	.dwattr $C$DW$T$93, DW_AT_decl_line(0xa7)
	.dwattr $C$DW$T$93, DW_AT_decl_column(0x17)
$C$DW$T$14	.dwtag  DW_TAG_base_type
	.dwattr $C$DW$T$14, DW_AT_encoding(DW_ATE_signed)
	.dwattr $C$DW$T$14, DW_AT_name("long long")
	.dwattr $C$DW$T$14, DW_AT_byte_size(0x08)
$C$DW$T$94	.dwtag  DW_TAG_typedef, DW_AT_name("_Longlong")
	.dwattr $C$DW$T$94, DW_AT_type(*$C$DW$T$14)
	.dwattr $C$DW$T$94, DW_AT_language(DW_LANG_C)
	.dwattr $C$DW$T$94, DW_AT_decl_file("C:/ti/ccsv6/tools/compiler/ti-cgt-arm_5.2.4/include/yvals.h")
	.dwattr $C$DW$T$94, DW_AT_decl_line(0x1b5)
	.dwattr $C$DW$T$94, DW_AT_decl_column(0x13)
$C$DW$T$95	.dwtag  DW_TAG_typedef, DW_AT_name("int64_t")
	.dwattr $C$DW$T$95, DW_AT_type(*$C$DW$T$14)
	.dwattr $C$DW$T$95, DW_AT_language(DW_LANG_C)
	.dwattr $C$DW$T$95, DW_AT_decl_file("C:/ti/ccsv6/tools/compiler/ti-cgt-arm_5.2.4/include/stdint.h")
	.dwattr $C$DW$T$95, DW_AT_decl_line(0x32)
	.dwattr $C$DW$T$95, DW_AT_decl_column(0x21)
$C$DW$T$96	.dwtag  DW_TAG_typedef, DW_AT_name("int_fast64_t")
	.dwattr $C$DW$T$96, DW_AT_type(*$C$DW$T$95)
	.dwattr $C$DW$T$96, DW_AT_language(DW_LANG_C)
	.dwattr $C$DW$T$96, DW_AT_decl_file("C:/ti/ccsv6/tools/compiler/ti-cgt-arm_5.2.4/include/stdint.h")
	.dwattr $C$DW$T$96, DW_AT_decl_line(0x4e)
	.dwattr $C$DW$T$96, DW_AT_decl_column(0x17)
$C$DW$T$97	.dwtag  DW_TAG_typedef, DW_AT_name("int_least64_t")
	.dwattr $C$DW$T$97, DW_AT_type(*$C$DW$T$95)
	.dwattr $C$DW$T$97, DW_AT_language(DW_LANG_C)
	.dwattr $C$DW$T$97, DW_AT_decl_file("C:/ti/ccsv6/tools/compiler/ti-cgt-arm_5.2.4/include/stdint.h")
	.dwattr $C$DW$T$97, DW_AT_decl_line(0x40)
	.dwattr $C$DW$T$97, DW_AT_decl_column(0x17)
$C$DW$T$98	.dwtag  DW_TAG_typedef, DW_AT_name("intmax_t")
	.dwattr $C$DW$T$98, DW_AT_type(*$C$DW$T$14)
	.dwattr $C$DW$T$98, DW_AT_language(DW_LANG_C)
	.dwattr $C$DW$T$98, DW_AT_decl_file("C:/ti/ccsv6/tools/compiler/ti-cgt-arm_5.2.4/include/stdint.h")
	.dwattr $C$DW$T$98, DW_AT_decl_line(0x56)
	.dwattr $C$DW$T$98, DW_AT_decl_column(0x20)
$C$DW$T$15	.dwtag  DW_TAG_base_type
	.dwattr $C$DW$T$15, DW_AT_encoding(DW_ATE_unsigned)
	.dwattr $C$DW$T$15, DW_AT_name("unsigned long long")
	.dwattr $C$DW$T$15, DW_AT_byte_size(0x08)
$C$DW$T$99	.dwtag  DW_TAG_typedef, DW_AT_name("_ULonglong")
	.dwattr $C$DW$T$99, DW_AT_type(*$C$DW$T$15)
	.dwattr $C$DW$T$99, DW_AT_language(DW_LANG_C)
	.dwattr $C$DW$T$99, DW_AT_decl_file("C:/ti/ccsv6/tools/compiler/ti-cgt-arm_5.2.4/include/yvals.h")
	.dwattr $C$DW$T$99, DW_AT_decl_line(0x1b6)
	.dwattr $C$DW$T$99, DW_AT_decl_column(0x14)
$C$DW$T$100	.dwtag  DW_TAG_typedef, DW_AT_name("uint64_t")
	.dwattr $C$DW$T$100, DW_AT_type(*$C$DW$T$15)
	.dwattr $C$DW$T$100, DW_AT_language(DW_LANG_C)
	.dwattr $C$DW$T$100, DW_AT_decl_file("C:/ti/ccsv6/tools/compiler/ti-cgt-arm_5.2.4/include/stdint.h")
	.dwattr $C$DW$T$100, DW_AT_decl_line(0x33)
	.dwattr $C$DW$T$100, DW_AT_decl_column(0x20)
$C$DW$T$101	.dwtag  DW_TAG_typedef, DW_AT_name("uint_fast64_t")
	.dwattr $C$DW$T$101, DW_AT_type(*$C$DW$T$100)
	.dwattr $C$DW$T$101, DW_AT_language(DW_LANG_C)
	.dwattr $C$DW$T$101, DW_AT_decl_file("C:/ti/ccsv6/tools/compiler/ti-cgt-arm_5.2.4/include/stdint.h")
	.dwattr $C$DW$T$101, DW_AT_decl_line(0x4f)
	.dwattr $C$DW$T$101, DW_AT_decl_column(0x16)
$C$DW$T$102	.dwtag  DW_TAG_typedef, DW_AT_name("uint_least64_t")
	.dwattr $C$DW$T$102, DW_AT_type(*$C$DW$T$100)
	.dwattr $C$DW$T$102, DW_AT_language(DW_LANG_C)
	.dwattr $C$DW$T$102, DW_AT_decl_file("C:/ti/ccsv6/tools/compiler/ti-cgt-arm_5.2.4/include/stdint.h")
	.dwattr $C$DW$T$102, DW_AT_decl_line(0x41)
	.dwattr $C$DW$T$102, DW_AT_decl_column(0x16)
$C$DW$T$103	.dwtag  DW_TAG_typedef, DW_AT_name("uintmax_t")
	.dwattr $C$DW$T$103, DW_AT_type(*$C$DW$T$15)
	.dwattr $C$DW$T$103, DW_AT_language(DW_LANG_C)
	.dwattr $C$DW$T$103, DW_AT_decl_file("C:/ti/ccsv6/tools/compiler/ti-cgt-arm_5.2.4/include/stdint.h")
	.dwattr $C$DW$T$103, DW_AT_decl_line(0x57)
	.dwattr $C$DW$T$103, DW_AT_decl_column(0x20)
$C$DW$T$16	.dwtag  DW_TAG_base_type
	.dwattr $C$DW$T$16, DW_AT_encoding(DW_ATE_float)
	.dwattr $C$DW$T$16, DW_AT_name("float")
	.dwattr $C$DW$T$16, DW_AT_byte_size(0x04)
$C$DW$T$17	.dwtag  DW_TAG_base_type
	.dwattr $C$DW$T$17, DW_AT_encoding(DW_ATE_float)
	.dwattr $C$DW$T$17, DW_AT_name("double")
	.dwattr $C$DW$T$17, DW_AT_byte_size(0x08)
$C$DW$T$18	.dwtag  DW_TAG_base_type
	.dwattr $C$DW$T$18, DW_AT_encoding(DW_ATE_float)
	.dwattr $C$DW$T$18, DW_AT_name("long double")
	.dwattr $C$DW$T$18, DW_AT_byte_size(0x08)
$C$DW$T$104	.dwtag  DW_TAG_typedef, DW_AT_name("_Sysch_t")
	.dwattr $C$DW$T$104, DW_AT_type(*$C$DW$T$6)
	.dwattr $C$DW$T$104, DW_AT_language(DW_LANG_C)
	.dwattr $C$DW$T$104, DW_AT_decl_file("C:/ti/ccsv6/tools/compiler/ti-cgt-arm_5.2.4/include/yvals.h")
	.dwattr $C$DW$T$104, DW_AT_decl_line(0x218)
	.dwattr $C$DW$T$104, DW_AT_decl_column(0x0e)
$C$DW$T$35	.dwtag  DW_TAG_const_type
	.dwattr $C$DW$T$35, DW_AT_type(*$C$DW$T$6)
$C$DW$T$36	.dwtag  DW_TAG_pointer_type
	.dwattr $C$DW$T$36, DW_AT_type(*$C$DW$T$35)
	.dwattr $C$DW$T$36, DW_AT_address_class(0x20)
$C$DW$T$59	.dwtag  DW_TAG_pointer_type
	.dwattr $C$DW$T$59, DW_AT_type(*$C$DW$T$6)
	.dwattr $C$DW$T$59, DW_AT_address_class(0x20)
$C$DW$T$109	.dwtag  DW_TAG_typedef, DW_AT_name("__builtin_va_list")
	.dwattr $C$DW$T$109, DW_AT_type(*$C$DW$T$59)
	.dwattr $C$DW$T$109, DW_AT_language(DW_LANG_C)
	.dwattr $C$DW$T$109, DW_AT_decl_file("../esp8266.c")
	.dwattr $C$DW$T$109, DW_AT_decl_line(0x293)
	.dwattr $C$DW$T$109, DW_AT_decl_column(0x01)

$C$DW$T$110	.dwtag  DW_TAG_array_type
	.dwattr $C$DW$T$110, DW_AT_type(*$C$DW$T$6)
	.dwattr $C$DW$T$110, DW_AT_language(DW_LANG_C)
	.dwattr $C$DW$T$110, DW_AT_byte_size(0x400)
$C$DW$238	.dwtag  DW_TAG_subrange_type
	.dwattr $C$DW$238, DW_AT_upper_bound(0x3ff)
	.dwendtag $C$DW$T$110


$C$DW$T$112	.dwtag  DW_TAG_array_type
	.dwattr $C$DW$T$112, DW_AT_type(*$C$DW$T$6)
	.dwattr $C$DW$T$112, DW_AT_language(DW_LANG_C)
	.dwattr $C$DW$T$112, DW_AT_byte_size(0x20)
$C$DW$239	.dwtag  DW_TAG_subrange_type
	.dwattr $C$DW$239, DW_AT_upper_bound(0x1f)
	.dwendtag $C$DW$T$112


$C$DW$T$114	.dwtag  DW_TAG_array_type
	.dwattr $C$DW$T$114, DW_AT_type(*$C$DW$T$6)
	.dwattr $C$DW$T$114, DW_AT_language(DW_LANG_C)
	.dwattr $C$DW$T$114, DW_AT_byte_size(0x51)
$C$DW$240	.dwtag  DW_TAG_subrange_type
	.dwattr $C$DW$240, DW_AT_upper_bound(0x50)
	.dwendtag $C$DW$T$114

$C$DW$T$160	.dwtag  DW_TAG_base_type
	.dwattr $C$DW$T$160, DW_AT_encoding(DW_ATE_unsigned_char)
	.dwattr $C$DW$T$160, DW_AT_name("unsigned char")
	.dwattr $C$DW$T$160, DW_AT_byte_size(0x01)
$C$DW$T$161	.dwtag  DW_TAG_volatile_type
	.dwattr $C$DW$T$161, DW_AT_type(*$C$DW$T$160)

$C$DW$T$24	.dwtag  DW_TAG_structure_type
	.dwattr $C$DW$T$24, DW_AT_name("__va_list")
	.dwattr $C$DW$T$24, DW_AT_byte_size(0x04)
$C$DW$241	.dwtag  DW_TAG_member
	.dwattr $C$DW$241, DW_AT_type(*$C$DW$T$3)
	.dwattr $C$DW$241, DW_AT_name("__ap")
	.dwattr $C$DW$241, DW_AT_TI_symbol_name("__ap")
	.dwattr $C$DW$241, DW_AT_data_member_location[DW_OP_plus_uconst 0x0]
	.dwattr $C$DW$241, DW_AT_accessibility(DW_ACCESS_public)
	.dwattr $C$DW$241, DW_AT_decl_file("C:/ti/ccsv6/tools/compiler/ti-cgt-arm_5.2.4/include/stdarg.h")
	.dwattr $C$DW$241, DW_AT_decl_line(0x36)
	.dwattr $C$DW$241, DW_AT_decl_column(0x0c)
	.dwendtag $C$DW$T$24

	.dwattr $C$DW$T$24, DW_AT_decl_file("C:/ti/ccsv6/tools/compiler/ti-cgt-arm_5.2.4/include/stdarg.h")
	.dwattr $C$DW$T$24, DW_AT_decl_line(0x35)
	.dwattr $C$DW$T$24, DW_AT_decl_column(0x10)
$C$DW$T$162	.dwtag  DW_TAG_typedef, DW_AT_name("va_list")
	.dwattr $C$DW$T$162, DW_AT_type(*$C$DW$T$24)
	.dwattr $C$DW$T$162, DW_AT_language(DW_LANG_C)
	.dwattr $C$DW$T$162, DW_AT_decl_file("C:/ti/ccsv6/tools/compiler/ti-cgt-arm_5.2.4/include/stdarg.h")
	.dwattr $C$DW$T$162, DW_AT_decl_line(0x37)
	.dwattr $C$DW$T$162, DW_AT_decl_column(0x03)
$C$DW$T$163	.dwtag  DW_TAG_typedef, DW_AT_name("_Va_list")
	.dwattr $C$DW$T$163, DW_AT_type(*$C$DW$T$162)
	.dwattr $C$DW$T$163, DW_AT_language(DW_LANG_C)
	.dwattr $C$DW$T$163, DW_AT_decl_file("C:/ti/ccsv6/tools/compiler/ti-cgt-arm_5.2.4/include/yvals.h")
	.dwattr $C$DW$T$163, DW_AT_decl_line(0x1f6)
	.dwattr $C$DW$T$163, DW_AT_decl_column(0x17)
	.dwattr $C$DW$CU, DW_AT_language(DW_LANG_C)

;***************************************************************
;* DWARF CIE ENTRIES                                           *
;***************************************************************

$C$DW$CIE	.dwcie 14
	.dwcfi	cfa_register, 13
	.dwcfi	cfa_offset, 0
	.dwcfi	undefined, 0
	.dwcfi	undefined, 1
	.dwcfi	undefined, 2
	.dwcfi	undefined, 3
	.dwcfi	same_value, 4
	.dwcfi	same_value, 5
	.dwcfi	same_value, 6
	.dwcfi	same_value, 7
	.dwcfi	same_value, 8
	.dwcfi	same_value, 9
	.dwcfi	same_value, 10
	.dwcfi	same_value, 11
	.dwcfi	undefined, 12
	.dwcfi	undefined, 13
	.dwcfi	undefined, 14
	.dwcfi	undefined, 14
	.dwcfi	undefined, 7
	.dwcfi	undefined, 64
	.dwcfi	undefined, 65
	.dwcfi	undefined, 66
	.dwcfi	undefined, 67
	.dwcfi	undefined, 68
	.dwcfi	undefined, 69
	.dwcfi	undefined, 70
	.dwcfi	undefined, 71
	.dwcfi	undefined, 72
	.dwcfi	undefined, 73
	.dwcfi	undefined, 74
	.dwcfi	undefined, 75
	.dwcfi	undefined, 76
	.dwcfi	undefined, 77
	.dwcfi	undefined, 78
	.dwcfi	undefined, 79
	.dwcfi	same_value, 80
	.dwcfi	same_value, 81
	.dwcfi	same_value, 82
	.dwcfi	same_value, 83
	.dwcfi	same_value, 84
	.dwcfi	same_value, 85
	.dwcfi	same_value, 86
	.dwcfi	same_value, 87
	.dwcfi	same_value, 88
	.dwcfi	same_value, 89
	.dwcfi	same_value, 90
	.dwcfi	same_value, 91
	.dwcfi	same_value, 92
	.dwcfi	same_value, 93
	.dwcfi	same_value, 94
	.dwcfi	same_value, 95
	.dwendentry
	.dwendtag $C$DW$CU

