;******************************************************************************
;* TI ARM C/C++ Codegen                                             PC v5.2.4 *
;* Date/Time created: Thu Sep 17 23:20:50 2015                                *
;******************************************************************************
	.compiler_opts --abi=eabi --arm_vmrs_si_workaround=off --code_state=16 --diag_wrap=off --disable_dual_state --embedded_constants=on --endian=little --float_support=FPv4SPD16 --hll_source=on --object_format=elf --silicon_version=7M4 --symdebug:dwarf --symdebug:dwarf_version=3 --unaligned_access=on 
	.thumb

$C$DW$CU	.dwtag  DW_TAG_compile_unit
	.dwattr $C$DW$CU, DW_AT_name("../pll.c")
	.dwattr $C$DW$CU, DW_AT_producer("TI TI ARM C/C++ Codegen PC v5.2.4 Copyright (c) 1996-2015 Texas Instruments Incorporated")
	.dwattr $C$DW$CU, DW_AT_TI_version(0x01)
	.dwattr $C$DW$CU, DW_AT_comp_dir("C:\Dropbox\ArmBook\LaunchPad\ValvanoWareTM4C123\ESP8266_4C123\Debug")
;	C:\ti\ccsv6\tools\compiler\ti-cgt-arm_5.2.4\bin\armacpia.exe -@C:\\Users\\VALVAN~1\\AppData\\Local\\Temp\\0590412 
	.sect	".text"
	.clink
	.thumbfunc PLL_Init
	.thumb
	.global	PLL_Init

$C$DW$1	.dwtag  DW_TAG_subprogram, DW_AT_name("PLL_Init")
	.dwattr $C$DW$1, DW_AT_low_pc(PLL_Init)
	.dwattr $C$DW$1, DW_AT_high_pc(0x00)
	.dwattr $C$DW$1, DW_AT_TI_symbol_name("PLL_Init")
	.dwattr $C$DW$1, DW_AT_external
	.dwattr $C$DW$1, DW_AT_TI_begin_file("../pll.c")
	.dwattr $C$DW$1, DW_AT_TI_begin_line(0x33)
	.dwattr $C$DW$1, DW_AT_TI_begin_column(0x06)
	.dwattr $C$DW$1, DW_AT_decl_file("../pll.c")
	.dwattr $C$DW$1, DW_AT_decl_line(0x33)
	.dwattr $C$DW$1, DW_AT_decl_column(0x06)
	.dwattr $C$DW$1, DW_AT_TI_max_frame_size(0x08)
	.dwpsn	file "../pll.c",line 51,column 29,is_stmt,address PLL_Init,isa 1

	.dwfde $C$DW$CIE, PLL_Init
$C$DW$2	.dwtag  DW_TAG_formal_parameter, DW_AT_name("freq")
	.dwattr $C$DW$2, DW_AT_TI_symbol_name("freq")
	.dwattr $C$DW$2, DW_AT_type(*$C$DW$T$19)
	.dwattr $C$DW$2, DW_AT_location[DW_OP_reg0]

;*****************************************************************************
;* FUNCTION NAME: PLL_Init                                                   *
;*                                                                           *
;*   Regs Modified     : A1,A2,A3,SP,SR                                      *
;*   Regs Used         : A1,A2,A3,SP,LR,SR                                   *
;*   Local Frame Size  : 0 Args + 4 Auto + 0 Save = 4 byte                   *
;*****************************************************************************
PLL_Init:
;* --------------------------------------------------------------------------*
	.dwcfi	cfa_offset, 0
        SUB       SP, SP, #8            ; [DPU_3_PIPE] 
	.dwcfi	cfa_offset, 8
$C$DW$3	.dwtag  DW_TAG_variable, DW_AT_name("freq")
	.dwattr $C$DW$3, DW_AT_TI_symbol_name("freq")
	.dwattr $C$DW$3, DW_AT_type(*$C$DW$T$19)
	.dwattr $C$DW$3, DW_AT_location[DW_OP_breg13 0]
;----------------------------------------------------------------------
;  51 | void PLL_Init(uint32_t freq){                                          
;  52 | // 0) configure the system to use RCC2 for advanced features           
;  53 | //    such as 400 MHz PLL and non-integer System Clock Divisor         
;----------------------------------------------------------------------
        STR       A1, [SP, #0]          ; [DPU_3_PIPE] |51| 
	.dwpsn	file "../pll.c",line 54,column 3,is_stmt,isa 1
;----------------------------------------------------------------------
;  54 | SYSCTL_RCC2_R |= SYSCTL_RCC2_USERCC2;                                  
;  55 | // 1) bypass PLL while initializing                                    
;----------------------------------------------------------------------
        LDR       A2, $C$CON1           ; [DPU_3_PIPE] |54| 
        LDR       A1, [A2, #0]          ; [DPU_3_PIPE] |54| 
        ORR       A1, A1, #-2147483648  ; [DPU_3_PIPE] |54| 
        STR       A1, [A2, #0]          ; [DPU_3_PIPE] |54| 
	.dwpsn	file "../pll.c",line 56,column 3,is_stmt,isa 1
;----------------------------------------------------------------------
;  56 | SYSCTL_RCC2_R |= SYSCTL_RCC2_BYPASS2;                                  
;  57 | // 2) select the crystal value and oscillator source                   
;----------------------------------------------------------------------
        LDR       A2, $C$CON1           ; [DPU_3_PIPE] |56| 
        LDR       A1, [A2, #0]          ; [DPU_3_PIPE] |56| 
        ORR       A1, A1, #2048         ; [DPU_3_PIPE] |56| 
        STR       A1, [A2, #0]          ; [DPU_3_PIPE] |56| 
	.dwpsn	file "../pll.c",line 58,column 3,is_stmt,isa 1
;----------------------------------------------------------------------
;  58 | SYSCTL_RCC_R &= ~SYSCTL_RCC_XTAL_M;   // clear XTAL field              
;----------------------------------------------------------------------
        LDR       A2, $C$CON2           ; [DPU_3_PIPE] |58| 
        LDR       A1, [A2, #0]          ; [DPU_3_PIPE] |58| 
        BIC       A1, A1, #1984         ; [DPU_3_PIPE] |58| 
        STR       A1, [A2, #0]          ; [DPU_3_PIPE] |58| 
	.dwpsn	file "../pll.c",line 59,column 3,is_stmt,isa 1
;----------------------------------------------------------------------
;  59 | SYSCTL_RCC_R += SYSCTL_RCC_XTAL_16MHZ;// configure for 16 MHz crystal  
;----------------------------------------------------------------------
        LDR       A2, $C$CON2           ; [DPU_3_PIPE] |59| 
        LDR       A1, [A2, #0]          ; [DPU_3_PIPE] |59| 
        ADD       A1, A1, #1344         ; [DPU_3_PIPE] |59| 
        STR       A1, [A2, #0]          ; [DPU_3_PIPE] |59| 
	.dwpsn	file "../pll.c",line 60,column 3,is_stmt,isa 1
;----------------------------------------------------------------------
;  60 | SYSCTL_RCC2_R &= ~SYSCTL_RCC2_OSCSRC2_M;// clear oscillator source fiel
;     | d                                                                      
;----------------------------------------------------------------------
        LDR       A2, $C$CON1           ; [DPU_3_PIPE] |60| 
        LDR       A1, [A2, #0]          ; [DPU_3_PIPE] |60| 
        BIC       A1, A1, #112          ; [DPU_3_PIPE] |60| 
        STR       A1, [A2, #0]          ; [DPU_3_PIPE] |60| 
	.dwpsn	file "../pll.c",line 61,column 3,is_stmt,isa 1
;----------------------------------------------------------------------
;  61 | SYSCTL_RCC2_R += SYSCTL_RCC2_OSCSRC2_MO;// configure for main oscillato
;     | r source                                                               
;  62 | // 3) activate PLL by clearing PWRDN                                   
;----------------------------------------------------------------------
        LDR       A2, $C$CON1           ; [DPU_3_PIPE] |61| 
        LDR       A1, [A2, #0]          ; [DPU_3_PIPE] |61| 
        STR       A1, [A2, #0]          ; [DPU_3_PIPE] |61| 
	.dwpsn	file "../pll.c",line 63,column 3,is_stmt,isa 1
;----------------------------------------------------------------------
;  63 | SYSCTL_RCC2_R &= ~SYSCTL_RCC2_PWRDN2;                                  
;  64 | // 4) set the desired system divider and the system divider least signi
;     | ficant bit                                                             
;----------------------------------------------------------------------
        LDR       A2, $C$CON1           ; [DPU_3_PIPE] |63| 
        LDR       A1, [A2, #0]          ; [DPU_3_PIPE] |63| 
        BIC       A1, A1, #8192         ; [DPU_3_PIPE] |63| 
        STR       A1, [A2, #0]          ; [DPU_3_PIPE] |63| 
	.dwpsn	file "../pll.c",line 65,column 3,is_stmt,isa 1
;----------------------------------------------------------------------
;  65 | SYSCTL_RCC2_R |= SYSCTL_RCC2_DIV400;  // use 400 MHz PLL               
;----------------------------------------------------------------------
        LDR       A2, $C$CON1           ; [DPU_3_PIPE] |65| 
        LDR       A1, [A2, #0]          ; [DPU_3_PIPE] |65| 
        ORR       A1, A1, #1073741824   ; [DPU_3_PIPE] |65| 
        STR       A1, [A2, #0]          ; [DPU_3_PIPE] |65| 
	.dwpsn	file "../pll.c",line 66,column 3,is_stmt,isa 1
;----------------------------------------------------------------------
;  66 | SYSCTL_RCC2_R = (SYSCTL_RCC2_R&~0x1FC00000) // clear system clock divid
;     | er field                                                               
;  67 |                 + (freq<<22);      // configure for 80 MHz clock       
;  68 | // 5) wait for the PLL to lock by polling PLLLRIS                      
;----------------------------------------------------------------------
        LDR       A1, $C$CON1           ; [DPU_3_PIPE] |66| 
        LDR       A2, $C$CON1           ; [DPU_3_PIPE] |66| 
        LDR       A3, [SP, #0]          ; [DPU_3_PIPE] |66| 
        LDR       A1, [A1, #0]          ; [DPU_3_PIPE] |66| 
        BIC       A1, A1, #532676608    ; [DPU_3_PIPE] |66| 
        ADD       A1, A1, A3, LSL #22   ; [DPU_3_PIPE] |66| 
        STR       A1, [A2, #0]          ; [DPU_3_PIPE] |66| 
	.dwpsn	file "../pll.c",line 69,column 3,is_stmt,isa 1
;----------------------------------------------------------------------
;  69 | while((SYSCTL_RIS_R&SYSCTL_RIS_PLLLRIS)==0){};                         
;----------------------------------------------------------------------
;* --------------------------------------------------------------------------*
;*   BEGIN LOOP ||$C$L1||
;*
;*   Loop source line                : 69
;*   Loop closing brace source line  : 69
;*   Known Minimum Trip Count        : 1
;*   Known Maximum Trip Count        : 4294967295
;*   Known Max Trip Count Factor     : 1
;* --------------------------------------------------------------------------*
||$C$L1||:    
	.dwpsn	file "../pll.c",line 69,column 9,is_stmt,isa 1
;----------------------------------------------------------------------
;  70 | // 6) enable use of PLL by clearing BYPASS                             
;----------------------------------------------------------------------
        LDR       A1, $C$CON3           ; [DPU_3_PIPE] |69| 
        LDR       A1, [A1, #0]          ; [DPU_3_PIPE] |69| 
        LSRS      A1, A1, #7            ; [DPU_3_PIPE] |69| 
        BCC       ||$C$L1||             ; [DPU_3_PIPE] |69| 
        ; BRANCHCC OCCURS {||$C$L1||}    ; [] |69| 
;* --------------------------------------------------------------------------*
	.dwpsn	file "../pll.c",line 71,column 3,is_stmt,isa 1
;----------------------------------------------------------------------
;  71 | SYSCTL_RCC2_R &= ~SYSCTL_RCC2_BYPASS2;                                 
;----------------------------------------------------------------------
        LDR       A2, $C$CON1           ; [DPU_3_PIPE] |71| 
        LDR       A1, [A2, #0]          ; [DPU_3_PIPE] |71| 
        BIC       A1, A1, #2048         ; [DPU_3_PIPE] |71| 
        STR       A1, [A2, #0]          ; [DPU_3_PIPE] |71| 
	.dwpsn	file "../pll.c",line 72,column 1,is_stmt,isa 1
        ADD       SP, SP, #8            ; [DPU_3_PIPE] 
	.dwcfi	cfa_offset, 0
$C$DW$4	.dwtag  DW_TAG_TI_branch
	.dwattr $C$DW$4, DW_AT_low_pc(0x00)
	.dwattr $C$DW$4, DW_AT_TI_return
        BX        LR                    ; [DPU_3_PIPE] 
        ; BRANCH OCCURS                  ; [] 
	.dwattr $C$DW$1, DW_AT_TI_end_file("../pll.c")
	.dwattr $C$DW$1, DW_AT_TI_end_line(0x48)
	.dwattr $C$DW$1, DW_AT_TI_end_column(0x01)
	.dwendentry
	.dwendtag $C$DW$1

;******************************************************************************
;* CONSTANT TABLE                                                             *
;******************************************************************************
	.sect	".text"
	.align	4
||$C$CON1||:	.bits	1074782320,32
	.align	4
||$C$CON2||:	.bits	1074782304,32
	.align	4
||$C$CON3||:	.bits	1074782288,32

;******************************************************************************
;* BUILD ATTRIBUTES                                                           *
;******************************************************************************
	.battr "aeabi", Tag_File, 1, Tag_ABI_PCS_wchar_t(2)
	.battr "aeabi", Tag_File, 1, Tag_ABI_FP_rounding(0)
	.battr "aeabi", Tag_File, 1, Tag_ABI_FP_denormal(0)
	.battr "aeabi", Tag_File, 1, Tag_ABI_FP_exceptions(0)
	.battr "aeabi", Tag_File, 1, Tag_ABI_FP_number_model(1)
	.battr "aeabi", Tag_File, 1, Tag_ABI_enum_size(0)
	.battr "aeabi", Tag_File, 1, Tag_ABI_optimization_goals(5)
	.battr "aeabi", Tag_File, 1, Tag_ABI_FP_optimization_goals(0)
	.battr "TI", Tag_File, 1, Tag_Bitfield_layout(2)
	.battr "TI", Tag_File, 1, Tag_FP_interface(1)

;******************************************************************************
;* TYPE INFORMATION                                                           *
;******************************************************************************
$C$DW$T$2	.dwtag  DW_TAG_unspecified_type
	.dwattr $C$DW$T$2, DW_AT_name("void")
$C$DW$T$4	.dwtag  DW_TAG_base_type
	.dwattr $C$DW$T$4, DW_AT_encoding(DW_ATE_boolean)
	.dwattr $C$DW$T$4, DW_AT_name("bool")
	.dwattr $C$DW$T$4, DW_AT_byte_size(0x01)
$C$DW$T$5	.dwtag  DW_TAG_base_type
	.dwattr $C$DW$T$5, DW_AT_encoding(DW_ATE_signed_char)
	.dwattr $C$DW$T$5, DW_AT_name("signed char")
	.dwattr $C$DW$T$5, DW_AT_byte_size(0x01)
$C$DW$T$21	.dwtag  DW_TAG_typedef, DW_AT_name("int8_t")
	.dwattr $C$DW$T$21, DW_AT_type(*$C$DW$T$5)
	.dwattr $C$DW$T$21, DW_AT_language(DW_LANG_C)
	.dwattr $C$DW$T$21, DW_AT_decl_file("C:/ti/ccsv6/tools/compiler/ti-cgt-arm_5.2.4/include/stdint.h")
	.dwattr $C$DW$T$21, DW_AT_decl_line(0x2a)
	.dwattr $C$DW$T$21, DW_AT_decl_column(0x1d)
$C$DW$T$22	.dwtag  DW_TAG_typedef, DW_AT_name("int_least8_t")
	.dwattr $C$DW$T$22, DW_AT_type(*$C$DW$T$21)
	.dwattr $C$DW$T$22, DW_AT_language(DW_LANG_C)
	.dwattr $C$DW$T$22, DW_AT_decl_file("C:/ti/ccsv6/tools/compiler/ti-cgt-arm_5.2.4/include/stdint.h")
	.dwattr $C$DW$T$22, DW_AT_decl_line(0x37)
	.dwattr $C$DW$T$22, DW_AT_decl_column(0x17)
$C$DW$T$6	.dwtag  DW_TAG_base_type
	.dwattr $C$DW$T$6, DW_AT_encoding(DW_ATE_unsigned_char)
	.dwattr $C$DW$T$6, DW_AT_name("unsigned char")
	.dwattr $C$DW$T$6, DW_AT_byte_size(0x01)
$C$DW$T$23	.dwtag  DW_TAG_typedef, DW_AT_name("uint8_t")
	.dwattr $C$DW$T$23, DW_AT_type(*$C$DW$T$6)
	.dwattr $C$DW$T$23, DW_AT_language(DW_LANG_C)
	.dwattr $C$DW$T$23, DW_AT_decl_file("C:/ti/ccsv6/tools/compiler/ti-cgt-arm_5.2.4/include/stdint.h")
	.dwattr $C$DW$T$23, DW_AT_decl_line(0x2b)
	.dwattr $C$DW$T$23, DW_AT_decl_column(0x1c)
$C$DW$T$24	.dwtag  DW_TAG_typedef, DW_AT_name("uint_least8_t")
	.dwattr $C$DW$T$24, DW_AT_type(*$C$DW$T$23)
	.dwattr $C$DW$T$24, DW_AT_language(DW_LANG_C)
	.dwattr $C$DW$T$24, DW_AT_decl_file("C:/ti/ccsv6/tools/compiler/ti-cgt-arm_5.2.4/include/stdint.h")
	.dwattr $C$DW$T$24, DW_AT_decl_line(0x38)
	.dwattr $C$DW$T$24, DW_AT_decl_column(0x16)
$C$DW$T$7	.dwtag  DW_TAG_base_type
	.dwattr $C$DW$T$7, DW_AT_encoding(DW_ATE_signed_char)
	.dwattr $C$DW$T$7, DW_AT_name("wchar_t")
	.dwattr $C$DW$T$7, DW_AT_byte_size(0x02)
$C$DW$T$8	.dwtag  DW_TAG_base_type
	.dwattr $C$DW$T$8, DW_AT_encoding(DW_ATE_signed)
	.dwattr $C$DW$T$8, DW_AT_name("short")
	.dwattr $C$DW$T$8, DW_AT_byte_size(0x02)
$C$DW$T$25	.dwtag  DW_TAG_typedef, DW_AT_name("int16_t")
	.dwattr $C$DW$T$25, DW_AT_type(*$C$DW$T$8)
	.dwattr $C$DW$T$25, DW_AT_language(DW_LANG_C)
	.dwattr $C$DW$T$25, DW_AT_decl_file("C:/ti/ccsv6/tools/compiler/ti-cgt-arm_5.2.4/include/stdint.h")
	.dwattr $C$DW$T$25, DW_AT_decl_line(0x2c)
	.dwattr $C$DW$T$25, DW_AT_decl_column(0x1d)
$C$DW$T$26	.dwtag  DW_TAG_typedef, DW_AT_name("int_least16_t")
	.dwattr $C$DW$T$26, DW_AT_type(*$C$DW$T$25)
	.dwattr $C$DW$T$26, DW_AT_language(DW_LANG_C)
	.dwattr $C$DW$T$26, DW_AT_decl_file("C:/ti/ccsv6/tools/compiler/ti-cgt-arm_5.2.4/include/stdint.h")
	.dwattr $C$DW$T$26, DW_AT_decl_line(0x3a)
	.dwattr $C$DW$T$26, DW_AT_decl_column(0x17)
$C$DW$T$9	.dwtag  DW_TAG_base_type
	.dwattr $C$DW$T$9, DW_AT_encoding(DW_ATE_unsigned)
	.dwattr $C$DW$T$9, DW_AT_name("unsigned short")
	.dwattr $C$DW$T$9, DW_AT_byte_size(0x02)
$C$DW$T$27	.dwtag  DW_TAG_typedef, DW_AT_name("uint16_t")
	.dwattr $C$DW$T$27, DW_AT_type(*$C$DW$T$9)
	.dwattr $C$DW$T$27, DW_AT_language(DW_LANG_C)
	.dwattr $C$DW$T$27, DW_AT_decl_file("C:/ti/ccsv6/tools/compiler/ti-cgt-arm_5.2.4/include/stdint.h")
	.dwattr $C$DW$T$27, DW_AT_decl_line(0x2d)
	.dwattr $C$DW$T$27, DW_AT_decl_column(0x1c)
$C$DW$T$28	.dwtag  DW_TAG_typedef, DW_AT_name("uint_least16_t")
	.dwattr $C$DW$T$28, DW_AT_type(*$C$DW$T$27)
	.dwattr $C$DW$T$28, DW_AT_language(DW_LANG_C)
	.dwattr $C$DW$T$28, DW_AT_decl_file("C:/ti/ccsv6/tools/compiler/ti-cgt-arm_5.2.4/include/stdint.h")
	.dwattr $C$DW$T$28, DW_AT_decl_line(0x3b)
	.dwattr $C$DW$T$28, DW_AT_decl_column(0x16)
$C$DW$T$10	.dwtag  DW_TAG_base_type
	.dwattr $C$DW$T$10, DW_AT_encoding(DW_ATE_signed)
	.dwattr $C$DW$T$10, DW_AT_name("int")
	.dwattr $C$DW$T$10, DW_AT_byte_size(0x04)
$C$DW$T$29	.dwtag  DW_TAG_typedef, DW_AT_name("int32_t")
	.dwattr $C$DW$T$29, DW_AT_type(*$C$DW$T$10)
	.dwattr $C$DW$T$29, DW_AT_language(DW_LANG_C)
	.dwattr $C$DW$T$29, DW_AT_decl_file("C:/ti/ccsv6/tools/compiler/ti-cgt-arm_5.2.4/include/stdint.h")
	.dwattr $C$DW$T$29, DW_AT_decl_line(0x2e)
	.dwattr $C$DW$T$29, DW_AT_decl_column(0x1d)
$C$DW$T$30	.dwtag  DW_TAG_typedef, DW_AT_name("int_fast16_t")
	.dwattr $C$DW$T$30, DW_AT_type(*$C$DW$T$29)
	.dwattr $C$DW$T$30, DW_AT_language(DW_LANG_C)
	.dwattr $C$DW$T$30, DW_AT_decl_file("C:/ti/ccsv6/tools/compiler/ti-cgt-arm_5.2.4/include/stdint.h")
	.dwattr $C$DW$T$30, DW_AT_decl_line(0x47)
	.dwattr $C$DW$T$30, DW_AT_decl_column(0x17)
$C$DW$T$31	.dwtag  DW_TAG_typedef, DW_AT_name("int_fast32_t")
	.dwattr $C$DW$T$31, DW_AT_type(*$C$DW$T$29)
	.dwattr $C$DW$T$31, DW_AT_language(DW_LANG_C)
	.dwattr $C$DW$T$31, DW_AT_decl_file("C:/ti/ccsv6/tools/compiler/ti-cgt-arm_5.2.4/include/stdint.h")
	.dwattr $C$DW$T$31, DW_AT_decl_line(0x4a)
	.dwattr $C$DW$T$31, DW_AT_decl_column(0x17)
$C$DW$T$32	.dwtag  DW_TAG_typedef, DW_AT_name("int_fast8_t")
	.dwattr $C$DW$T$32, DW_AT_type(*$C$DW$T$29)
	.dwattr $C$DW$T$32, DW_AT_language(DW_LANG_C)
	.dwattr $C$DW$T$32, DW_AT_decl_file("C:/ti/ccsv6/tools/compiler/ti-cgt-arm_5.2.4/include/stdint.h")
	.dwattr $C$DW$T$32, DW_AT_decl_line(0x45)
	.dwattr $C$DW$T$32, DW_AT_decl_column(0x17)
$C$DW$T$33	.dwtag  DW_TAG_typedef, DW_AT_name("int_least32_t")
	.dwattr $C$DW$T$33, DW_AT_type(*$C$DW$T$29)
	.dwattr $C$DW$T$33, DW_AT_language(DW_LANG_C)
	.dwattr $C$DW$T$33, DW_AT_decl_file("C:/ti/ccsv6/tools/compiler/ti-cgt-arm_5.2.4/include/stdint.h")
	.dwattr $C$DW$T$33, DW_AT_decl_line(0x3c)
	.dwattr $C$DW$T$33, DW_AT_decl_column(0x17)
$C$DW$T$34	.dwtag  DW_TAG_typedef, DW_AT_name("intptr_t")
	.dwattr $C$DW$T$34, DW_AT_type(*$C$DW$T$10)
	.dwattr $C$DW$T$34, DW_AT_language(DW_LANG_C)
	.dwattr $C$DW$T$34, DW_AT_decl_file("C:/ti/ccsv6/tools/compiler/ti-cgt-arm_5.2.4/include/stdint.h")
	.dwattr $C$DW$T$34, DW_AT_decl_line(0x52)
	.dwattr $C$DW$T$34, DW_AT_decl_column(0x1a)
$C$DW$T$11	.dwtag  DW_TAG_base_type
	.dwattr $C$DW$T$11, DW_AT_encoding(DW_ATE_unsigned)
	.dwattr $C$DW$T$11, DW_AT_name("unsigned int")
	.dwattr $C$DW$T$11, DW_AT_byte_size(0x04)
$C$DW$T$19	.dwtag  DW_TAG_typedef, DW_AT_name("uint32_t")
	.dwattr $C$DW$T$19, DW_AT_type(*$C$DW$T$11)
	.dwattr $C$DW$T$19, DW_AT_language(DW_LANG_C)
	.dwattr $C$DW$T$19, DW_AT_decl_file("C:/ti/ccsv6/tools/compiler/ti-cgt-arm_5.2.4/include/stdint.h")
	.dwattr $C$DW$T$19, DW_AT_decl_line(0x2f)
	.dwattr $C$DW$T$19, DW_AT_decl_column(0x1c)
$C$DW$T$37	.dwtag  DW_TAG_typedef, DW_AT_name("uint_fast16_t")
	.dwattr $C$DW$T$37, DW_AT_type(*$C$DW$T$19)
	.dwattr $C$DW$T$37, DW_AT_language(DW_LANG_C)
	.dwattr $C$DW$T$37, DW_AT_decl_file("C:/ti/ccsv6/tools/compiler/ti-cgt-arm_5.2.4/include/stdint.h")
	.dwattr $C$DW$T$37, DW_AT_decl_line(0x48)
	.dwattr $C$DW$T$37, DW_AT_decl_column(0x16)
$C$DW$T$38	.dwtag  DW_TAG_typedef, DW_AT_name("uint_fast32_t")
	.dwattr $C$DW$T$38, DW_AT_type(*$C$DW$T$19)
	.dwattr $C$DW$T$38, DW_AT_language(DW_LANG_C)
	.dwattr $C$DW$T$38, DW_AT_decl_file("C:/ti/ccsv6/tools/compiler/ti-cgt-arm_5.2.4/include/stdint.h")
	.dwattr $C$DW$T$38, DW_AT_decl_line(0x4b)
	.dwattr $C$DW$T$38, DW_AT_decl_column(0x16)
$C$DW$T$39	.dwtag  DW_TAG_typedef, DW_AT_name("uint_fast8_t")
	.dwattr $C$DW$T$39, DW_AT_type(*$C$DW$T$19)
	.dwattr $C$DW$T$39, DW_AT_language(DW_LANG_C)
	.dwattr $C$DW$T$39, DW_AT_decl_file("C:/ti/ccsv6/tools/compiler/ti-cgt-arm_5.2.4/include/stdint.h")
	.dwattr $C$DW$T$39, DW_AT_decl_line(0x46)
	.dwattr $C$DW$T$39, DW_AT_decl_column(0x16)
$C$DW$T$40	.dwtag  DW_TAG_typedef, DW_AT_name("uint_least32_t")
	.dwattr $C$DW$T$40, DW_AT_type(*$C$DW$T$19)
	.dwattr $C$DW$T$40, DW_AT_language(DW_LANG_C)
	.dwattr $C$DW$T$40, DW_AT_decl_file("C:/ti/ccsv6/tools/compiler/ti-cgt-arm_5.2.4/include/stdint.h")
	.dwattr $C$DW$T$40, DW_AT_decl_line(0x3d)
	.dwattr $C$DW$T$40, DW_AT_decl_column(0x16)
$C$DW$T$41	.dwtag  DW_TAG_typedef, DW_AT_name("uintptr_t")
	.dwattr $C$DW$T$41, DW_AT_type(*$C$DW$T$11)
	.dwattr $C$DW$T$41, DW_AT_language(DW_LANG_C)
	.dwattr $C$DW$T$41, DW_AT_decl_file("C:/ti/ccsv6/tools/compiler/ti-cgt-arm_5.2.4/include/stdint.h")
	.dwattr $C$DW$T$41, DW_AT_decl_line(0x53)
	.dwattr $C$DW$T$41, DW_AT_decl_column(0x1a)
$C$DW$T$12	.dwtag  DW_TAG_base_type
	.dwattr $C$DW$T$12, DW_AT_encoding(DW_ATE_signed)
	.dwattr $C$DW$T$12, DW_AT_name("long")
	.dwattr $C$DW$T$12, DW_AT_byte_size(0x04)
$C$DW$T$13	.dwtag  DW_TAG_base_type
	.dwattr $C$DW$T$13, DW_AT_encoding(DW_ATE_unsigned)
	.dwattr $C$DW$T$13, DW_AT_name("unsigned long")
	.dwattr $C$DW$T$13, DW_AT_byte_size(0x04)
$C$DW$T$14	.dwtag  DW_TAG_base_type
	.dwattr $C$DW$T$14, DW_AT_encoding(DW_ATE_signed)
	.dwattr $C$DW$T$14, DW_AT_name("long long")
	.dwattr $C$DW$T$14, DW_AT_byte_size(0x08)
$C$DW$T$42	.dwtag  DW_TAG_typedef, DW_AT_name("int64_t")
	.dwattr $C$DW$T$42, DW_AT_type(*$C$DW$T$14)
	.dwattr $C$DW$T$42, DW_AT_language(DW_LANG_C)
	.dwattr $C$DW$T$42, DW_AT_decl_file("C:/ti/ccsv6/tools/compiler/ti-cgt-arm_5.2.4/include/stdint.h")
	.dwattr $C$DW$T$42, DW_AT_decl_line(0x32)
	.dwattr $C$DW$T$42, DW_AT_decl_column(0x21)
$C$DW$T$43	.dwtag  DW_TAG_typedef, DW_AT_name("int_fast64_t")
	.dwattr $C$DW$T$43, DW_AT_type(*$C$DW$T$42)
	.dwattr $C$DW$T$43, DW_AT_language(DW_LANG_C)
	.dwattr $C$DW$T$43, DW_AT_decl_file("C:/ti/ccsv6/tools/compiler/ti-cgt-arm_5.2.4/include/stdint.h")
	.dwattr $C$DW$T$43, DW_AT_decl_line(0x4e)
	.dwattr $C$DW$T$43, DW_AT_decl_column(0x17)
$C$DW$T$44	.dwtag  DW_TAG_typedef, DW_AT_name("int_least64_t")
	.dwattr $C$DW$T$44, DW_AT_type(*$C$DW$T$42)
	.dwattr $C$DW$T$44, DW_AT_language(DW_LANG_C)
	.dwattr $C$DW$T$44, DW_AT_decl_file("C:/ti/ccsv6/tools/compiler/ti-cgt-arm_5.2.4/include/stdint.h")
	.dwattr $C$DW$T$44, DW_AT_decl_line(0x40)
	.dwattr $C$DW$T$44, DW_AT_decl_column(0x17)
$C$DW$T$45	.dwtag  DW_TAG_typedef, DW_AT_name("intmax_t")
	.dwattr $C$DW$T$45, DW_AT_type(*$C$DW$T$14)
	.dwattr $C$DW$T$45, DW_AT_language(DW_LANG_C)
	.dwattr $C$DW$T$45, DW_AT_decl_file("C:/ti/ccsv6/tools/compiler/ti-cgt-arm_5.2.4/include/stdint.h")
	.dwattr $C$DW$T$45, DW_AT_decl_line(0x56)
	.dwattr $C$DW$T$45, DW_AT_decl_column(0x20)
$C$DW$T$15	.dwtag  DW_TAG_base_type
	.dwattr $C$DW$T$15, DW_AT_encoding(DW_ATE_unsigned)
	.dwattr $C$DW$T$15, DW_AT_name("unsigned long long")
	.dwattr $C$DW$T$15, DW_AT_byte_size(0x08)
$C$DW$T$46	.dwtag  DW_TAG_typedef, DW_AT_name("uint64_t")
	.dwattr $C$DW$T$46, DW_AT_type(*$C$DW$T$15)
	.dwattr $C$DW$T$46, DW_AT_language(DW_LANG_C)
	.dwattr $C$DW$T$46, DW_AT_decl_file("C:/ti/ccsv6/tools/compiler/ti-cgt-arm_5.2.4/include/stdint.h")
	.dwattr $C$DW$T$46, DW_AT_decl_line(0x33)
	.dwattr $C$DW$T$46, DW_AT_decl_column(0x20)
$C$DW$T$47	.dwtag  DW_TAG_typedef, DW_AT_name("uint_fast64_t")
	.dwattr $C$DW$T$47, DW_AT_type(*$C$DW$T$46)
	.dwattr $C$DW$T$47, DW_AT_language(DW_LANG_C)
	.dwattr $C$DW$T$47, DW_AT_decl_file("C:/ti/ccsv6/tools/compiler/ti-cgt-arm_5.2.4/include/stdint.h")
	.dwattr $C$DW$T$47, DW_AT_decl_line(0x4f)
	.dwattr $C$DW$T$47, DW_AT_decl_column(0x16)
$C$DW$T$48	.dwtag  DW_TAG_typedef, DW_AT_name("uint_least64_t")
	.dwattr $C$DW$T$48, DW_AT_type(*$C$DW$T$46)
	.dwattr $C$DW$T$48, DW_AT_language(DW_LANG_C)
	.dwattr $C$DW$T$48, DW_AT_decl_file("C:/ti/ccsv6/tools/compiler/ti-cgt-arm_5.2.4/include/stdint.h")
	.dwattr $C$DW$T$48, DW_AT_decl_line(0x41)
	.dwattr $C$DW$T$48, DW_AT_decl_column(0x16)
$C$DW$T$49	.dwtag  DW_TAG_typedef, DW_AT_name("uintmax_t")
	.dwattr $C$DW$T$49, DW_AT_type(*$C$DW$T$15)
	.dwattr $C$DW$T$49, DW_AT_language(DW_LANG_C)
	.dwattr $C$DW$T$49, DW_AT_decl_file("C:/ti/ccsv6/tools/compiler/ti-cgt-arm_5.2.4/include/stdint.h")
	.dwattr $C$DW$T$49, DW_AT_decl_line(0x57)
	.dwattr $C$DW$T$49, DW_AT_decl_column(0x20)
$C$DW$T$16	.dwtag  DW_TAG_base_type
	.dwattr $C$DW$T$16, DW_AT_encoding(DW_ATE_float)
	.dwattr $C$DW$T$16, DW_AT_name("float")
	.dwattr $C$DW$T$16, DW_AT_byte_size(0x04)
$C$DW$T$17	.dwtag  DW_TAG_base_type
	.dwattr $C$DW$T$17, DW_AT_encoding(DW_ATE_float)
	.dwattr $C$DW$T$17, DW_AT_name("double")
	.dwattr $C$DW$T$17, DW_AT_byte_size(0x08)
$C$DW$T$18	.dwtag  DW_TAG_base_type
	.dwattr $C$DW$T$18, DW_AT_encoding(DW_ATE_float)
	.dwattr $C$DW$T$18, DW_AT_name("long double")
	.dwattr $C$DW$T$18, DW_AT_byte_size(0x08)
$C$DW$T$51	.dwtag  DW_TAG_pointer_type
	.dwattr $C$DW$T$51, DW_AT_type(*$C$DW$T$6)
	.dwattr $C$DW$T$51, DW_AT_address_class(0x20)
$C$DW$T$52	.dwtag  DW_TAG_typedef, DW_AT_name("__builtin_va_list")
	.dwattr $C$DW$T$52, DW_AT_type(*$C$DW$T$51)
	.dwattr $C$DW$T$52, DW_AT_language(DW_LANG_C)
	.dwattr $C$DW$T$52, DW_AT_decl_file("../pll.c")
	.dwattr $C$DW$T$52, DW_AT_decl_line(0x48)
	.dwattr $C$DW$T$52, DW_AT_decl_column(0x01)
	.dwattr $C$DW$CU, DW_AT_language(DW_LANG_C)

;***************************************************************
;* DWARF CIE ENTRIES                                           *
;***************************************************************

$C$DW$CIE	.dwcie 14
	.dwcfi	cfa_register, 13
	.dwcfi	cfa_offset, 0
	.dwcfi	undefined, 0
	.dwcfi	undefined, 1
	.dwcfi	undefined, 2
	.dwcfi	undefined, 3
	.dwcfi	same_value, 4
	.dwcfi	same_value, 5
	.dwcfi	same_value, 6
	.dwcfi	same_value, 7
	.dwcfi	same_value, 8
	.dwcfi	same_value, 9
	.dwcfi	same_value, 10
	.dwcfi	same_value, 11
	.dwcfi	undefined, 12
	.dwcfi	undefined, 13
	.dwcfi	undefined, 14
	.dwcfi	undefined, 14
	.dwcfi	undefined, 7
	.dwcfi	undefined, 64
	.dwcfi	undefined, 65
	.dwcfi	undefined, 66
	.dwcfi	undefined, 67
	.dwcfi	undefined, 68
	.dwcfi	undefined, 69
	.dwcfi	undefined, 70
	.dwcfi	undefined, 71
	.dwcfi	undefined, 72
	.dwcfi	undefined, 73
	.dwcfi	undefined, 74
	.dwcfi	undefined, 75
	.dwcfi	undefined, 76
	.dwcfi	undefined, 77
	.dwcfi	undefined, 78
	.dwcfi	undefined, 79
	.dwcfi	same_value, 80
	.dwcfi	same_value, 81
	.dwcfi	same_value, 82
	.dwcfi	same_value, 83
	.dwcfi	same_value, 84
	.dwcfi	same_value, 85
	.dwcfi	same_value, 86
	.dwcfi	same_value, 87
	.dwcfi	same_value, 88
	.dwcfi	same_value, 89
	.dwcfi	same_value, 90
	.dwcfi	same_value, 91
	.dwcfi	same_value, 92
	.dwcfi	same_value, 93
	.dwcfi	same_value, 94
	.dwcfi	same_value, 95
	.dwendentry
	.dwendtag $C$DW$CU

