;******************************************************************************
;* TI ARM C/C++ Codegen                                             PC v5.2.4 *
;* Date/Time created: Mon Jun 22 22:17:29 2015                                *
;******************************************************************************
	.compiler_opts --abi=eabi --arm_vmrs_si_workaround=off --code_state=16 --diag_wrap=off --disable_dual_state --embedded_constants=on --endian=little --float_support=FPv4SPD16 --hll_source=on --object_format=elf --silicon_version=7M4 --symdebug:dwarf --symdebug:dwarf_version=3 --unaligned_access=on 
	.thumb

$C$DW$CU	.dwtag  DW_TAG_compile_unit
	.dwattr $C$DW$CU, DW_AT_name("../GPIO.c")
	.dwattr $C$DW$CU, DW_AT_producer("TI TI ARM C/C++ Codegen PC v5.2.4 Copyright (c) 1996-2015 Texas Instruments Incorporated")
	.dwattr $C$DW$CU, DW_AT_TI_version(0x01)
	.dwattr $C$DW$CU, DW_AT_comp_dir("C:\Dropbox\ArmBook\LaunchPad\ValvanoWareTM4C123\GPIO_4C123\Debug")
;	C:\ti\ccsv6\tools\compiler\ti-cgt-arm_5.2.4\bin\armacpia.exe -@C:\\Users\\VALVAN~1\\AppData\\Local\\Temp\\0743212 
	.sect	".text"
	.clink
	.thumbfunc GPIO_Init
	.thumb
	.global	GPIO_Init

$C$DW$1	.dwtag  DW_TAG_subprogram, DW_AT_name("GPIO_Init")
	.dwattr $C$DW$1, DW_AT_low_pc(GPIO_Init)
	.dwattr $C$DW$1, DW_AT_high_pc(0x00)
	.dwattr $C$DW$1, DW_AT_TI_symbol_name("GPIO_Init")
	.dwattr $C$DW$1, DW_AT_external
	.dwattr $C$DW$1, DW_AT_TI_begin_file("../GPIO.c")
	.dwattr $C$DW$1, DW_AT_TI_begin_line(0x28)
	.dwattr $C$DW$1, DW_AT_TI_begin_column(0x06)
	.dwattr $C$DW$1, DW_AT_decl_file("../GPIO.c")
	.dwattr $C$DW$1, DW_AT_decl_line(0x28)
	.dwattr $C$DW$1, DW_AT_decl_column(0x06)
	.dwattr $C$DW$1, DW_AT_TI_max_frame_size(0x00)
	.dwpsn	file "../GPIO.c",line 40,column 21,is_stmt,address GPIO_Init,isa 1

	.dwfde $C$DW$CIE, GPIO_Init
;----------------------------------------------------------------------
;  40 | void GPIO_Init(void){                                                  
;----------------------------------------------------------------------

;*****************************************************************************
;* FUNCTION NAME: GPIO_Init                                                  *
;*                                                                           *
;*   Regs Modified     : A1,A2,SR                                            *
;*   Regs Used         : A1,A2,LR,SR                                         *
;*   Local Frame Size  : 0 Args + 0 Auto + 0 Save = 0 byte                   *
;*****************************************************************************
GPIO_Init:
;* --------------------------------------------------------------------------*
	.dwcfi	cfa_offset, 0
	.dwpsn	file "../GPIO.c",line 41,column 3,is_stmt,isa 1
;----------------------------------------------------------------------
;  41 | SYSCTL_RCGCGPIO_R |= 0x08;        // 1) activate port D                
;----------------------------------------------------------------------
        LDR       A2, $C$CON1           ; [DPU_3_PIPE] |41| 
        LDR       A1, [A2, #0]          ; [DPU_3_PIPE] |41| 
        ORR       A1, A1, #8            ; [DPU_3_PIPE] |41| 
        STR       A1, [A2, #0]          ; [DPU_3_PIPE] |41| 
	.dwpsn	file "../GPIO.c",line 42,column 3,is_stmt,isa 1
;----------------------------------------------------------------------
;  42 | while((SYSCTL_PRGPIO_R&0x08)==0){};   // allow time for clock to stabil
;     | ize                                                                    
;----------------------------------------------------------------------
;* --------------------------------------------------------------------------*
;*   BEGIN LOOP ||$C$L1||
;*
;*   Loop source line                : 42
;*   Loop closing brace source line  : 42
;*   Known Minimum Trip Count        : 1
;*   Known Maximum Trip Count        : 4294967295
;*   Known Max Trip Count Factor     : 1
;* --------------------------------------------------------------------------*
||$C$L1||:    
	.dwpsn	file "../GPIO.c",line 42,column 9,is_stmt,isa 1
;----------------------------------------------------------------------
;  43 | // 2) no need to unlock PD3-0                                          
;----------------------------------------------------------------------
        LDR       A1, $C$CON2           ; [DPU_3_PIPE] |42| 
        LDR       A1, [A1, #0]          ; [DPU_3_PIPE] |42| 
        LSRS      A1, A1, #4            ; [DPU_3_PIPE] |42| 
        BCC       ||$C$L1||             ; [DPU_3_PIPE] |42| 
        ; BRANCHCC OCCURS {||$C$L1||}    ; [] |42| 
;* --------------------------------------------------------------------------*
	.dwpsn	file "../GPIO.c",line 44,column 3,is_stmt,isa 1
;----------------------------------------------------------------------
;  44 | GPIO_PORTD_AMSEL_R &= ~0x0F;      // 3) disable analog functionality on
;     |  PD3-0                                                                 
;----------------------------------------------------------------------
        LDR       A2, $C$CON3           ; [DPU_3_PIPE] |44| 
        LDR       A1, [A2, #0]          ; [DPU_3_PIPE] |44| 
        BIC       A1, A1, #15           ; [DPU_3_PIPE] |44| 
        STR       A1, [A2, #0]          ; [DPU_3_PIPE] |44| 
	.dwpsn	file "../GPIO.c",line 45,column 3,is_stmt,isa 1
;----------------------------------------------------------------------
;  45 | GPIO_PORTD_PCTL_R &= ~0x0000FFFF; // 4) GPIO                           
;----------------------------------------------------------------------
        LDR       A2, $C$CON4           ; [DPU_3_PIPE] |45| 
        LDR       A1, [A2, #0]          ; [DPU_3_PIPE] |45| 
        BFC       A1, #0, #16           ; [DPU_3_PIPE] |45| 
        STR       A1, [A2, #0]          ; [DPU_3_PIPE] |45| 
	.dwpsn	file "../GPIO.c",line 46,column 3,is_stmt,isa 1
;----------------------------------------------------------------------
;  46 | GPIO_PORTD_DIR_R |= 0x0F;         // 5) make PD3-0 out                 
;----------------------------------------------------------------------
        LDR       A2, $C$CON5           ; [DPU_3_PIPE] |46| 
        LDR       A1, [A2, #0]          ; [DPU_3_PIPE] |46| 
        ORR       A1, A1, #15           ; [DPU_3_PIPE] |46| 
        STR       A1, [A2, #0]          ; [DPU_3_PIPE] |46| 
	.dwpsn	file "../GPIO.c",line 47,column 3,is_stmt,isa 1
;----------------------------------------------------------------------
;  47 | GPIO_PORTD_AFSEL_R &= ~0x0F;      // 6) regular port function          
;----------------------------------------------------------------------
        LDR       A2, $C$CON6           ; [DPU_3_PIPE] |47| 
        LDR       A1, [A2, #0]          ; [DPU_3_PIPE] |47| 
        BIC       A1, A1, #15           ; [DPU_3_PIPE] |47| 
        STR       A1, [A2, #0]          ; [DPU_3_PIPE] |47| 
	.dwpsn	file "../GPIO.c",line 48,column 3,is_stmt,isa 1
;----------------------------------------------------------------------
;  48 | GPIO_PORTD_DEN_R |= 0x0F;         // 7) enable digital I/O on PD3-0    
;----------------------------------------------------------------------
        LDR       A2, $C$CON7           ; [DPU_3_PIPE] |48| 
        LDR       A1, [A2, #0]          ; [DPU_3_PIPE] |48| 
        ORR       A1, A1, #15           ; [DPU_3_PIPE] |48| 
        STR       A1, [A2, #0]          ; [DPU_3_PIPE] |48| 
	.dwpsn	file "../GPIO.c",line 49,column 1,is_stmt,isa 1
$C$DW$2	.dwtag  DW_TAG_TI_branch
	.dwattr $C$DW$2, DW_AT_low_pc(0x00)
	.dwattr $C$DW$2, DW_AT_TI_return
        BX        LR                    ; [DPU_3_PIPE] 
        ; BRANCH OCCURS                  ; [] 
	.dwattr $C$DW$1, DW_AT_TI_end_file("../GPIO.c")
	.dwattr $C$DW$1, DW_AT_TI_end_line(0x31)
	.dwattr $C$DW$1, DW_AT_TI_end_column(0x01)
	.dwendentry
	.dwendtag $C$DW$1

	.sect	".text"
	.clink
	.thumbfunc main
	.thumb
	.global	main

$C$DW$3	.dwtag  DW_TAG_subprogram, DW_AT_name("main")
	.dwattr $C$DW$3, DW_AT_low_pc(main)
	.dwattr $C$DW$3, DW_AT_high_pc(0x00)
	.dwattr $C$DW$3, DW_AT_TI_symbol_name("main")
	.dwattr $C$DW$3, DW_AT_external
	.dwattr $C$DW$3, DW_AT_type(*$C$DW$T$10)
	.dwattr $C$DW$3, DW_AT_TI_begin_file("../GPIO.c")
	.dwattr $C$DW$3, DW_AT_TI_begin_line(0x35)
	.dwattr $C$DW$3, DW_AT_TI_begin_column(0x05)
	.dwattr $C$DW$3, DW_AT_decl_file("../GPIO.c")
	.dwattr $C$DW$3, DW_AT_decl_line(0x35)
	.dwattr $C$DW$3, DW_AT_decl_column(0x05)
	.dwattr $C$DW$3, DW_AT_TI_max_frame_size(0x08)
	.dwpsn	file "../GPIO.c",line 53,column 15,is_stmt,address main,isa 1

	.dwfde $C$DW$CIE, main
;----------------------------------------------------------------------
;  53 | int main(void){                                                        
;----------------------------------------------------------------------

;*****************************************************************************
;* FUNCTION NAME: main                                                       *
;*                                                                           *
;*   Regs Modified     : A1,A2,A4,SP,LR,SR,FPEXC,FPSCR                       *
;*   Regs Used         : A1,A2,A4,SP,LR,SR,FPEXC,FPSCR                       *
;*   Local Frame Size  : 0 Args + 0 Auto + 4 Save = 4 byte                   *
;*****************************************************************************
main:
;* --------------------------------------------------------------------------*
	.dwcfi	cfa_offset, 0
        PUSH      {A4, LR}              ; [DPU_3_PIPE] 
	.dwcfi	cfa_offset, 8
	.dwcfi	save_reg_to_mem, 14, -4
	.dwcfi	save_reg_to_mem, 3, -8
	.dwpsn	file "../GPIO.c",line 54,column 3,is_stmt,isa 1
;----------------------------------------------------------------------
;  54 | GPIO_Init();                                                           
;----------------------------------------------------------------------
$C$DW$4	.dwtag  DW_TAG_TI_branch
	.dwattr $C$DW$4, DW_AT_low_pc(0x00)
	.dwattr $C$DW$4, DW_AT_name("GPIO_Init")
	.dwattr $C$DW$4, DW_AT_TI_call
        BL        GPIO_Init             ; [DPU_3_PIPE] |54| 
        ; CALL OCCURS {GPIO_Init }       ; [] |54| 
	.dwpsn	file "../GPIO.c",line 55,column 9,is_stmt,isa 1
;----------------------------------------------------------------------
;  55 | while(1){                                                              
;----------------------------------------------------------------------
;* --------------------------------------------------------------------------*
;*   BEGIN LOOP ||$C$L2||
;*
;*   Loop source line                : 55
;*   Loop closing brace source line  : 60
;*   Known Minimum Trip Count        : 1
;*   Known Maximum Trip Count        : 4294967295
;*   Known Max Trip Count Factor     : 1
;* --------------------------------------------------------------------------*
||$C$L2||:    
	.dwpsn	file "../GPIO.c",line 56,column 5,is_stmt,isa 1
;----------------------------------------------------------------------
;  56 | LEDS = 10; // 1010, LED is 0101                                        
;----------------------------------------------------------------------
        LDR       A2, $C$CON8           ; [DPU_3_PIPE] |56| 
        MOVS      A1, #10               ; [DPU_3_PIPE] |56| 
        STR       A1, [A2, #0]          ; [DPU_3_PIPE] |56| 
	.dwpsn	file "../GPIO.c",line 57,column 5,is_stmt,isa 1
;----------------------------------------------------------------------
;  57 | LEDS = 9;  // 1001, LED is 0110                                        
;----------------------------------------------------------------------
        LDR       A2, $C$CON8           ; [DPU_3_PIPE] |57| 
        MOVS      A1, #9                ; [DPU_3_PIPE] |57| 
        STR       A1, [A2, #0]          ; [DPU_3_PIPE] |57| 
	.dwpsn	file "../GPIO.c",line 58,column 5,is_stmt,isa 1
;----------------------------------------------------------------------
;  58 | LEDS = 5;  // 0101, LED is 1010                                        
;----------------------------------------------------------------------
        LDR       A2, $C$CON8           ; [DPU_3_PIPE] |58| 
        MOVS      A1, #5                ; [DPU_3_PIPE] |58| 
        STR       A1, [A2, #0]          ; [DPU_3_PIPE] |58| 
	.dwpsn	file "../GPIO.c",line 59,column 5,is_stmt,isa 1
;----------------------------------------------------------------------
;  59 | LEDS = 6;  // 0110, LED is 1001                                        
;----------------------------------------------------------------------
        LDR       A2, $C$CON8           ; [DPU_3_PIPE] |59| 
        MOVS      A1, #6                ; [DPU_3_PIPE] |59| 
        STR       A1, [A2, #0]          ; [DPU_3_PIPE] |59| 
	.dwpsn	file "../GPIO.c",line 55,column 9,is_stmt,isa 1
        B         ||$C$L2||             ; [DPU_3_PIPE] |55| 
        ; BRANCH OCCURS {||$C$L2||}      ; [] |55| 
;* --------------------------------------------------------------------------*
	.dwattr $C$DW$3, DW_AT_TI_end_file("../GPIO.c")
	.dwattr $C$DW$3, DW_AT_TI_end_line(0x3d)
	.dwattr $C$DW$3, DW_AT_TI_end_column(0x01)
	.dwendentry
	.dwendtag $C$DW$3

	.sect	".text"
	.clink
	.thumbfunc main2
	.thumb
	.global	main2

$C$DW$5	.dwtag  DW_TAG_subprogram, DW_AT_name("main2")
	.dwattr $C$DW$5, DW_AT_low_pc(main2)
	.dwattr $C$DW$5, DW_AT_high_pc(0x00)
	.dwattr $C$DW$5, DW_AT_TI_symbol_name("main2")
	.dwattr $C$DW$5, DW_AT_external
	.dwattr $C$DW$5, DW_AT_type(*$C$DW$T$10)
	.dwattr $C$DW$5, DW_AT_TI_begin_file("../GPIO.c")
	.dwattr $C$DW$5, DW_AT_TI_begin_line(0x42)
	.dwattr $C$DW$5, DW_AT_TI_begin_column(0x05)
	.dwattr $C$DW$5, DW_AT_decl_file("../GPIO.c")
	.dwattr $C$DW$5, DW_AT_decl_line(0x42)
	.dwattr $C$DW$5, DW_AT_decl_column(0x05)
	.dwattr $C$DW$5, DW_AT_TI_max_frame_size(0x00)
	.dwpsn	file "../GPIO.c",line 66,column 16,is_stmt,address main2,isa 1

	.dwfde $C$DW$CIE, main2
;----------------------------------------------------------------------
;  66 | int main2(void){                                                       
;----------------------------------------------------------------------

;*****************************************************************************
;* FUNCTION NAME: main2                                                      *
;*                                                                           *
;*   Regs Modified     : A1,A2,SR                                            *
;*   Regs Used         : A1,A2,LR,SR                                         *
;*   Local Frame Size  : 0 Args + 0 Auto + 0 Save = 0 byte                   *
;*****************************************************************************
main2:
;* --------------------------------------------------------------------------*
	.dwcfi	cfa_offset, 0
	.dwpsn	file "../GPIO.c",line 67,column 3,is_stmt,isa 1
;----------------------------------------------------------------------
;  67 | SYSCTL_RCGCGPIO_R |= 0x10;        // 1) activate clock for Port E      
;----------------------------------------------------------------------
        LDR       A2, $C$CON1           ; [DPU_3_PIPE] |67| 
        LDR       A1, [A2, #0]          ; [DPU_3_PIPE] |67| 
        ORR       A1, A1, #16           ; [DPU_3_PIPE] |67| 
        STR       A1, [A2, #0]          ; [DPU_3_PIPE] |67| 
	.dwpsn	file "../GPIO.c",line 68,column 3,is_stmt,isa 1
;----------------------------------------------------------------------
;  68 | while((SYSCTL_PRGPIO_R&0x10) == 0){};// ready?                         
;----------------------------------------------------------------------
;* --------------------------------------------------------------------------*
;*   BEGIN LOOP ||$C$L3||
;*
;*   Loop source line                : 68
;*   Loop closing brace source line  : 68
;*   Known Minimum Trip Count        : 1
;*   Known Maximum Trip Count        : 4294967295
;*   Known Max Trip Count Factor     : 1
;* --------------------------------------------------------------------------*
||$C$L3||:    
	.dwpsn	file "../GPIO.c",line 68,column 9,is_stmt,isa 1
        LDR       A1, $C$CON2           ; [DPU_3_PIPE] |68| 
        LDR       A1, [A1, #0]          ; [DPU_3_PIPE] |68| 
        LSRS      A1, A1, #5            ; [DPU_3_PIPE] |68| 
        BCC       ||$C$L3||             ; [DPU_3_PIPE] |68| 
        ; BRANCHCC OCCURS {||$C$L3||}    ; [] |68| 
;* --------------------------------------------------------------------------*
	.dwpsn	file "../GPIO.c",line 69,column 3,is_stmt,isa 1
;----------------------------------------------------------------------
;  69 | GPIO_PORTE_DIR_R |= 0x0F;         // PE3-0 is an output                
;----------------------------------------------------------------------
        LDR       A2, $C$CON9           ; [DPU_3_PIPE] |69| 
        LDR       A1, [A2, #0]          ; [DPU_3_PIPE] |69| 
        ORR       A1, A1, #15           ; [DPU_3_PIPE] |69| 
        STR       A1, [A2, #0]          ; [DPU_3_PIPE] |69| 
	.dwpsn	file "../GPIO.c",line 70,column 3,is_stmt,isa 1
;----------------------------------------------------------------------
;  70 | GPIO_PORTE_AFSEL_R &= ~0x0F;      // regular port function             
;----------------------------------------------------------------------
        LDR       A2, $C$CON10          ; [DPU_3_PIPE] |70| 
        LDR       A1, [A2, #0]          ; [DPU_3_PIPE] |70| 
        BIC       A1, A1, #15           ; [DPU_3_PIPE] |70| 
        STR       A1, [A2, #0]          ; [DPU_3_PIPE] |70| 
	.dwpsn	file "../GPIO.c",line 71,column 3,is_stmt,isa 1
;----------------------------------------------------------------------
;  71 | GPIO_PORTE_AMSEL_R &= ~0x0F;      // disable analog on PE3-0           
;----------------------------------------------------------------------
        LDR       A2, $C$CON11          ; [DPU_3_PIPE] |71| 
        LDR       A1, [A2, #0]          ; [DPU_3_PIPE] |71| 
        BIC       A1, A1, #15           ; [DPU_3_PIPE] |71| 
        STR       A1, [A2, #0]          ; [DPU_3_PIPE] |71| 
	.dwpsn	file "../GPIO.c",line 72,column 3,is_stmt,isa 1
;----------------------------------------------------------------------
;  72 | GPIO_PORTE_PCTL_R &= ~0x0000FFFF; // PCTL GPIO on PE3-0                
;----------------------------------------------------------------------
        LDR       A2, $C$CON12          ; [DPU_3_PIPE] |72| 
        LDR       A1, [A2, #0]          ; [DPU_3_PIPE] |72| 
        BFC       A1, #0, #16           ; [DPU_3_PIPE] |72| 
        STR       A1, [A2, #0]          ; [DPU_3_PIPE] |72| 
	.dwpsn	file "../GPIO.c",line 73,column 3,is_stmt,isa 1
;----------------------------------------------------------------------
;  73 | GPIO_PORTE_DEN_R |= 0x0F;         // PE3-0 enabled as a digital port   
;----------------------------------------------------------------------
        LDR       A2, $C$CON13          ; [DPU_3_PIPE] |73| 
        LDR       A1, [A2, #0]          ; [DPU_3_PIPE] |73| 
        ORR       A1, A1, #15           ; [DPU_3_PIPE] |73| 
        STR       A1, [A2, #0]          ; [DPU_3_PIPE] |73| 
	.dwpsn	file "../GPIO.c",line 74,column 9,is_stmt,isa 1
;----------------------------------------------------------------------
;  74 | while(1){                                                              
;----------------------------------------------------------------------
;* --------------------------------------------------------------------------*
;*   BEGIN LOOP ||$C$L4||
;*
;*   Loop source line                : 74
;*   Loop closing brace source line  : 79
;*   Known Minimum Trip Count        : 1
;*   Known Maximum Trip Count        : 4294967295
;*   Known Max Trip Count Factor     : 1
;* --------------------------------------------------------------------------*
||$C$L4||:    
	.dwpsn	file "../GPIO.c",line 75,column 5,is_stmt,isa 1
;----------------------------------------------------------------------
;  75 | LEDS2 = 10; // 1010, LED is 0101                                       
;----------------------------------------------------------------------
        LDR       A2, $C$CON14          ; [DPU_3_PIPE] |75| 
        MOVS      A1, #10               ; [DPU_3_PIPE] |75| 
        STR       A1, [A2, #0]          ; [DPU_3_PIPE] |75| 
	.dwpsn	file "../GPIO.c",line 76,column 5,is_stmt,isa 1
;----------------------------------------------------------------------
;  76 | LEDS2 = 9;  // 1001, LED is 0110                                       
;----------------------------------------------------------------------
        LDR       A2, $C$CON14          ; [DPU_3_PIPE] |76| 
        MOVS      A1, #9                ; [DPU_3_PIPE] |76| 
        STR       A1, [A2, #0]          ; [DPU_3_PIPE] |76| 
	.dwpsn	file "../GPIO.c",line 77,column 5,is_stmt,isa 1
;----------------------------------------------------------------------
;  77 | LEDS2 = 5;  // 0101, LED is 1010                                       
;----------------------------------------------------------------------
        LDR       A2, $C$CON14          ; [DPU_3_PIPE] |77| 
        MOVS      A1, #5                ; [DPU_3_PIPE] |77| 
        STR       A1, [A2, #0]          ; [DPU_3_PIPE] |77| 
	.dwpsn	file "../GPIO.c",line 78,column 5,is_stmt,isa 1
;----------------------------------------------------------------------
;  78 | LEDS2 = 6;  // 0110, LED is 1001                                       
;----------------------------------------------------------------------
        LDR       A2, $C$CON14          ; [DPU_3_PIPE] |78| 
        MOVS      A1, #6                ; [DPU_3_PIPE] |78| 
        STR       A1, [A2, #0]          ; [DPU_3_PIPE] |78| 
	.dwpsn	file "../GPIO.c",line 74,column 9,is_stmt,isa 1
        B         ||$C$L4||             ; [DPU_3_PIPE] |74| 
        ; BRANCH OCCURS {||$C$L4||}      ; [] |74| 
;* --------------------------------------------------------------------------*
	.dwattr $C$DW$5, DW_AT_TI_end_file("../GPIO.c")
	.dwattr $C$DW$5, DW_AT_TI_end_line(0x50)
	.dwattr $C$DW$5, DW_AT_TI_end_column(0x01)
	.dwendentry
	.dwendtag $C$DW$5

;******************************************************************************
;* CONSTANT TABLE                                                             *
;******************************************************************************
	.sect	".text"
	.align	4
||$C$CON1||:	.bits	1074783752,32
	.align	4
||$C$CON2||:	.bits	1074784776,32
	.align	4
||$C$CON3||:	.bits	1073771816,32
	.align	4
||$C$CON4||:	.bits	1073771820,32
	.align	4
||$C$CON5||:	.bits	1073771520,32
	.align	4
||$C$CON6||:	.bits	1073771552,32
	.align	4
||$C$CON7||:	.bits	1073771804,32
	.align	4
||$C$CON8||:	.bits	1073770556,32
	.align	4
||$C$CON9||:	.bits	1073890304,32
	.align	4
||$C$CON10||:	.bits	1073890336,32
	.align	4
||$C$CON11||:	.bits	1073890600,32
	.align	4
||$C$CON12||:	.bits	1073890604,32
	.align	4
||$C$CON13||:	.bits	1073890588,32
	.align	4
||$C$CON14||:	.bits	1073889340,32

;******************************************************************************
;* BUILD ATTRIBUTES                                                           *
;******************************************************************************
	.battr "aeabi", Tag_File, 1, Tag_ABI_PCS_wchar_t(2)
	.battr "aeabi", Tag_File, 1, Tag_ABI_FP_rounding(0)
	.battr "aeabi", Tag_File, 1, Tag_ABI_FP_denormal(0)
	.battr "aeabi", Tag_File, 1, Tag_ABI_FP_exceptions(0)
	.battr "aeabi", Tag_File, 1, Tag_ABI_FP_number_model(1)
	.battr "aeabi", Tag_File, 1, Tag_ABI_enum_size(0)
	.battr "aeabi", Tag_File, 1, Tag_ABI_optimization_goals(5)
	.battr "aeabi", Tag_File, 1, Tag_ABI_FP_optimization_goals(0)
	.battr "TI", Tag_File, 1, Tag_Bitfield_layout(2)
	.battr "TI", Tag_File, 1, Tag_FP_interface(1)

;******************************************************************************
;* TYPE INFORMATION                                                           *
;******************************************************************************
$C$DW$T$2	.dwtag  DW_TAG_unspecified_type
	.dwattr $C$DW$T$2, DW_AT_name("void")
$C$DW$T$4	.dwtag  DW_TAG_base_type
	.dwattr $C$DW$T$4, DW_AT_encoding(DW_ATE_boolean)
	.dwattr $C$DW$T$4, DW_AT_name("bool")
	.dwattr $C$DW$T$4, DW_AT_byte_size(0x01)
$C$DW$T$5	.dwtag  DW_TAG_base_type
	.dwattr $C$DW$T$5, DW_AT_encoding(DW_ATE_signed_char)
	.dwattr $C$DW$T$5, DW_AT_name("signed char")
	.dwattr $C$DW$T$5, DW_AT_byte_size(0x01)
$C$DW$T$21	.dwtag  DW_TAG_typedef, DW_AT_name("int8_t")
	.dwattr $C$DW$T$21, DW_AT_type(*$C$DW$T$5)
	.dwattr $C$DW$T$21, DW_AT_language(DW_LANG_C)
	.dwattr $C$DW$T$21, DW_AT_decl_file("C:/ti/ccsv6/tools/compiler/ti-cgt-arm_5.2.4/include/stdint.h")
	.dwattr $C$DW$T$21, DW_AT_decl_line(0x2a)
	.dwattr $C$DW$T$21, DW_AT_decl_column(0x1d)
$C$DW$T$22	.dwtag  DW_TAG_typedef, DW_AT_name("int_least8_t")
	.dwattr $C$DW$T$22, DW_AT_type(*$C$DW$T$21)
	.dwattr $C$DW$T$22, DW_AT_language(DW_LANG_C)
	.dwattr $C$DW$T$22, DW_AT_decl_file("C:/ti/ccsv6/tools/compiler/ti-cgt-arm_5.2.4/include/stdint.h")
	.dwattr $C$DW$T$22, DW_AT_decl_line(0x37)
	.dwattr $C$DW$T$22, DW_AT_decl_column(0x17)
$C$DW$T$6	.dwtag  DW_TAG_base_type
	.dwattr $C$DW$T$6, DW_AT_encoding(DW_ATE_unsigned_char)
	.dwattr $C$DW$T$6, DW_AT_name("unsigned char")
	.dwattr $C$DW$T$6, DW_AT_byte_size(0x01)
$C$DW$T$23	.dwtag  DW_TAG_typedef, DW_AT_name("uint8_t")
	.dwattr $C$DW$T$23, DW_AT_type(*$C$DW$T$6)
	.dwattr $C$DW$T$23, DW_AT_language(DW_LANG_C)
	.dwattr $C$DW$T$23, DW_AT_decl_file("C:/ti/ccsv6/tools/compiler/ti-cgt-arm_5.2.4/include/stdint.h")
	.dwattr $C$DW$T$23, DW_AT_decl_line(0x2b)
	.dwattr $C$DW$T$23, DW_AT_decl_column(0x1c)
$C$DW$T$24	.dwtag  DW_TAG_typedef, DW_AT_name("uint_least8_t")
	.dwattr $C$DW$T$24, DW_AT_type(*$C$DW$T$23)
	.dwattr $C$DW$T$24, DW_AT_language(DW_LANG_C)
	.dwattr $C$DW$T$24, DW_AT_decl_file("C:/ti/ccsv6/tools/compiler/ti-cgt-arm_5.2.4/include/stdint.h")
	.dwattr $C$DW$T$24, DW_AT_decl_line(0x38)
	.dwattr $C$DW$T$24, DW_AT_decl_column(0x16)
$C$DW$T$7	.dwtag  DW_TAG_base_type
	.dwattr $C$DW$T$7, DW_AT_encoding(DW_ATE_signed_char)
	.dwattr $C$DW$T$7, DW_AT_name("wchar_t")
	.dwattr $C$DW$T$7, DW_AT_byte_size(0x02)
$C$DW$T$8	.dwtag  DW_TAG_base_type
	.dwattr $C$DW$T$8, DW_AT_encoding(DW_ATE_signed)
	.dwattr $C$DW$T$8, DW_AT_name("short")
	.dwattr $C$DW$T$8, DW_AT_byte_size(0x02)
$C$DW$T$25	.dwtag  DW_TAG_typedef, DW_AT_name("int16_t")
	.dwattr $C$DW$T$25, DW_AT_type(*$C$DW$T$8)
	.dwattr $C$DW$T$25, DW_AT_language(DW_LANG_C)
	.dwattr $C$DW$T$25, DW_AT_decl_file("C:/ti/ccsv6/tools/compiler/ti-cgt-arm_5.2.4/include/stdint.h")
	.dwattr $C$DW$T$25, DW_AT_decl_line(0x2c)
	.dwattr $C$DW$T$25, DW_AT_decl_column(0x1d)
$C$DW$T$26	.dwtag  DW_TAG_typedef, DW_AT_name("int_least16_t")
	.dwattr $C$DW$T$26, DW_AT_type(*$C$DW$T$25)
	.dwattr $C$DW$T$26, DW_AT_language(DW_LANG_C)
	.dwattr $C$DW$T$26, DW_AT_decl_file("C:/ti/ccsv6/tools/compiler/ti-cgt-arm_5.2.4/include/stdint.h")
	.dwattr $C$DW$T$26, DW_AT_decl_line(0x3a)
	.dwattr $C$DW$T$26, DW_AT_decl_column(0x17)
$C$DW$T$9	.dwtag  DW_TAG_base_type
	.dwattr $C$DW$T$9, DW_AT_encoding(DW_ATE_unsigned)
	.dwattr $C$DW$T$9, DW_AT_name("unsigned short")
	.dwattr $C$DW$T$9, DW_AT_byte_size(0x02)
$C$DW$T$27	.dwtag  DW_TAG_typedef, DW_AT_name("uint16_t")
	.dwattr $C$DW$T$27, DW_AT_type(*$C$DW$T$9)
	.dwattr $C$DW$T$27, DW_AT_language(DW_LANG_C)
	.dwattr $C$DW$T$27, DW_AT_decl_file("C:/ti/ccsv6/tools/compiler/ti-cgt-arm_5.2.4/include/stdint.h")
	.dwattr $C$DW$T$27, DW_AT_decl_line(0x2d)
	.dwattr $C$DW$T$27, DW_AT_decl_column(0x1c)
$C$DW$T$28	.dwtag  DW_TAG_typedef, DW_AT_name("uint_least16_t")
	.dwattr $C$DW$T$28, DW_AT_type(*$C$DW$T$27)
	.dwattr $C$DW$T$28, DW_AT_language(DW_LANG_C)
	.dwattr $C$DW$T$28, DW_AT_decl_file("C:/ti/ccsv6/tools/compiler/ti-cgt-arm_5.2.4/include/stdint.h")
	.dwattr $C$DW$T$28, DW_AT_decl_line(0x3b)
	.dwattr $C$DW$T$28, DW_AT_decl_column(0x16)
$C$DW$T$10	.dwtag  DW_TAG_base_type
	.dwattr $C$DW$T$10, DW_AT_encoding(DW_ATE_signed)
	.dwattr $C$DW$T$10, DW_AT_name("int")
	.dwattr $C$DW$T$10, DW_AT_byte_size(0x04)
$C$DW$T$30	.dwtag  DW_TAG_typedef, DW_AT_name("int32_t")
	.dwattr $C$DW$T$30, DW_AT_type(*$C$DW$T$10)
	.dwattr $C$DW$T$30, DW_AT_language(DW_LANG_C)
	.dwattr $C$DW$T$30, DW_AT_decl_file("C:/ti/ccsv6/tools/compiler/ti-cgt-arm_5.2.4/include/stdint.h")
	.dwattr $C$DW$T$30, DW_AT_decl_line(0x2e)
	.dwattr $C$DW$T$30, DW_AT_decl_column(0x1d)
$C$DW$T$31	.dwtag  DW_TAG_typedef, DW_AT_name("int_fast16_t")
	.dwattr $C$DW$T$31, DW_AT_type(*$C$DW$T$30)
	.dwattr $C$DW$T$31, DW_AT_language(DW_LANG_C)
	.dwattr $C$DW$T$31, DW_AT_decl_file("C:/ti/ccsv6/tools/compiler/ti-cgt-arm_5.2.4/include/stdint.h")
	.dwattr $C$DW$T$31, DW_AT_decl_line(0x47)
	.dwattr $C$DW$T$31, DW_AT_decl_column(0x17)
$C$DW$T$32	.dwtag  DW_TAG_typedef, DW_AT_name("int_fast32_t")
	.dwattr $C$DW$T$32, DW_AT_type(*$C$DW$T$30)
	.dwattr $C$DW$T$32, DW_AT_language(DW_LANG_C)
	.dwattr $C$DW$T$32, DW_AT_decl_file("C:/ti/ccsv6/tools/compiler/ti-cgt-arm_5.2.4/include/stdint.h")
	.dwattr $C$DW$T$32, DW_AT_decl_line(0x4a)
	.dwattr $C$DW$T$32, DW_AT_decl_column(0x17)
$C$DW$T$33	.dwtag  DW_TAG_typedef, DW_AT_name("int_fast8_t")
	.dwattr $C$DW$T$33, DW_AT_type(*$C$DW$T$30)
	.dwattr $C$DW$T$33, DW_AT_language(DW_LANG_C)
	.dwattr $C$DW$T$33, DW_AT_decl_file("C:/ti/ccsv6/tools/compiler/ti-cgt-arm_5.2.4/include/stdint.h")
	.dwattr $C$DW$T$33, DW_AT_decl_line(0x45)
	.dwattr $C$DW$T$33, DW_AT_decl_column(0x17)
$C$DW$T$34	.dwtag  DW_TAG_typedef, DW_AT_name("int_least32_t")
	.dwattr $C$DW$T$34, DW_AT_type(*$C$DW$T$30)
	.dwattr $C$DW$T$34, DW_AT_language(DW_LANG_C)
	.dwattr $C$DW$T$34, DW_AT_decl_file("C:/ti/ccsv6/tools/compiler/ti-cgt-arm_5.2.4/include/stdint.h")
	.dwattr $C$DW$T$34, DW_AT_decl_line(0x3c)
	.dwattr $C$DW$T$34, DW_AT_decl_column(0x17)
$C$DW$T$35	.dwtag  DW_TAG_typedef, DW_AT_name("intptr_t")
	.dwattr $C$DW$T$35, DW_AT_type(*$C$DW$T$10)
	.dwattr $C$DW$T$35, DW_AT_language(DW_LANG_C)
	.dwattr $C$DW$T$35, DW_AT_decl_file("C:/ti/ccsv6/tools/compiler/ti-cgt-arm_5.2.4/include/stdint.h")
	.dwattr $C$DW$T$35, DW_AT_decl_line(0x52)
	.dwattr $C$DW$T$35, DW_AT_decl_column(0x1a)
$C$DW$T$11	.dwtag  DW_TAG_base_type
	.dwattr $C$DW$T$11, DW_AT_encoding(DW_ATE_unsigned)
	.dwattr $C$DW$T$11, DW_AT_name("unsigned int")
	.dwattr $C$DW$T$11, DW_AT_byte_size(0x04)
$C$DW$T$36	.dwtag  DW_TAG_typedef, DW_AT_name("uint32_t")
	.dwattr $C$DW$T$36, DW_AT_type(*$C$DW$T$11)
	.dwattr $C$DW$T$36, DW_AT_language(DW_LANG_C)
	.dwattr $C$DW$T$36, DW_AT_decl_file("C:/ti/ccsv6/tools/compiler/ti-cgt-arm_5.2.4/include/stdint.h")
	.dwattr $C$DW$T$36, DW_AT_decl_line(0x2f)
	.dwattr $C$DW$T$36, DW_AT_decl_column(0x1c)
$C$DW$T$39	.dwtag  DW_TAG_typedef, DW_AT_name("uint_fast16_t")
	.dwattr $C$DW$T$39, DW_AT_type(*$C$DW$T$36)
	.dwattr $C$DW$T$39, DW_AT_language(DW_LANG_C)
	.dwattr $C$DW$T$39, DW_AT_decl_file("C:/ti/ccsv6/tools/compiler/ti-cgt-arm_5.2.4/include/stdint.h")
	.dwattr $C$DW$T$39, DW_AT_decl_line(0x48)
	.dwattr $C$DW$T$39, DW_AT_decl_column(0x16)
$C$DW$T$40	.dwtag  DW_TAG_typedef, DW_AT_name("uint_fast32_t")
	.dwattr $C$DW$T$40, DW_AT_type(*$C$DW$T$36)
	.dwattr $C$DW$T$40, DW_AT_language(DW_LANG_C)
	.dwattr $C$DW$T$40, DW_AT_decl_file("C:/ti/ccsv6/tools/compiler/ti-cgt-arm_5.2.4/include/stdint.h")
	.dwattr $C$DW$T$40, DW_AT_decl_line(0x4b)
	.dwattr $C$DW$T$40, DW_AT_decl_column(0x16)
$C$DW$T$41	.dwtag  DW_TAG_typedef, DW_AT_name("uint_fast8_t")
	.dwattr $C$DW$T$41, DW_AT_type(*$C$DW$T$36)
	.dwattr $C$DW$T$41, DW_AT_language(DW_LANG_C)
	.dwattr $C$DW$T$41, DW_AT_decl_file("C:/ti/ccsv6/tools/compiler/ti-cgt-arm_5.2.4/include/stdint.h")
	.dwattr $C$DW$T$41, DW_AT_decl_line(0x46)
	.dwattr $C$DW$T$41, DW_AT_decl_column(0x16)
$C$DW$T$42	.dwtag  DW_TAG_typedef, DW_AT_name("uint_least32_t")
	.dwattr $C$DW$T$42, DW_AT_type(*$C$DW$T$36)
	.dwattr $C$DW$T$42, DW_AT_language(DW_LANG_C)
	.dwattr $C$DW$T$42, DW_AT_decl_file("C:/ti/ccsv6/tools/compiler/ti-cgt-arm_5.2.4/include/stdint.h")
	.dwattr $C$DW$T$42, DW_AT_decl_line(0x3d)
	.dwattr $C$DW$T$42, DW_AT_decl_column(0x16)
$C$DW$T$43	.dwtag  DW_TAG_typedef, DW_AT_name("uintptr_t")
	.dwattr $C$DW$T$43, DW_AT_type(*$C$DW$T$11)
	.dwattr $C$DW$T$43, DW_AT_language(DW_LANG_C)
	.dwattr $C$DW$T$43, DW_AT_decl_file("C:/ti/ccsv6/tools/compiler/ti-cgt-arm_5.2.4/include/stdint.h")
	.dwattr $C$DW$T$43, DW_AT_decl_line(0x53)
	.dwattr $C$DW$T$43, DW_AT_decl_column(0x1a)
$C$DW$T$12	.dwtag  DW_TAG_base_type
	.dwattr $C$DW$T$12, DW_AT_encoding(DW_ATE_signed)
	.dwattr $C$DW$T$12, DW_AT_name("long")
	.dwattr $C$DW$T$12, DW_AT_byte_size(0x04)
$C$DW$T$13	.dwtag  DW_TAG_base_type
	.dwattr $C$DW$T$13, DW_AT_encoding(DW_ATE_unsigned)
	.dwattr $C$DW$T$13, DW_AT_name("unsigned long")
	.dwattr $C$DW$T$13, DW_AT_byte_size(0x04)
$C$DW$T$14	.dwtag  DW_TAG_base_type
	.dwattr $C$DW$T$14, DW_AT_encoding(DW_ATE_signed)
	.dwattr $C$DW$T$14, DW_AT_name("long long")
	.dwattr $C$DW$T$14, DW_AT_byte_size(0x08)
$C$DW$T$44	.dwtag  DW_TAG_typedef, DW_AT_name("int64_t")
	.dwattr $C$DW$T$44, DW_AT_type(*$C$DW$T$14)
	.dwattr $C$DW$T$44, DW_AT_language(DW_LANG_C)
	.dwattr $C$DW$T$44, DW_AT_decl_file("C:/ti/ccsv6/tools/compiler/ti-cgt-arm_5.2.4/include/stdint.h")
	.dwattr $C$DW$T$44, DW_AT_decl_line(0x32)
	.dwattr $C$DW$T$44, DW_AT_decl_column(0x21)
$C$DW$T$45	.dwtag  DW_TAG_typedef, DW_AT_name("int_fast64_t")
	.dwattr $C$DW$T$45, DW_AT_type(*$C$DW$T$44)
	.dwattr $C$DW$T$45, DW_AT_language(DW_LANG_C)
	.dwattr $C$DW$T$45, DW_AT_decl_file("C:/ti/ccsv6/tools/compiler/ti-cgt-arm_5.2.4/include/stdint.h")
	.dwattr $C$DW$T$45, DW_AT_decl_line(0x4e)
	.dwattr $C$DW$T$45, DW_AT_decl_column(0x17)
$C$DW$T$46	.dwtag  DW_TAG_typedef, DW_AT_name("int_least64_t")
	.dwattr $C$DW$T$46, DW_AT_type(*$C$DW$T$44)
	.dwattr $C$DW$T$46, DW_AT_language(DW_LANG_C)
	.dwattr $C$DW$T$46, DW_AT_decl_file("C:/ti/ccsv6/tools/compiler/ti-cgt-arm_5.2.4/include/stdint.h")
	.dwattr $C$DW$T$46, DW_AT_decl_line(0x40)
	.dwattr $C$DW$T$46, DW_AT_decl_column(0x17)
$C$DW$T$47	.dwtag  DW_TAG_typedef, DW_AT_name("intmax_t")
	.dwattr $C$DW$T$47, DW_AT_type(*$C$DW$T$14)
	.dwattr $C$DW$T$47, DW_AT_language(DW_LANG_C)
	.dwattr $C$DW$T$47, DW_AT_decl_file("C:/ti/ccsv6/tools/compiler/ti-cgt-arm_5.2.4/include/stdint.h")
	.dwattr $C$DW$T$47, DW_AT_decl_line(0x56)
	.dwattr $C$DW$T$47, DW_AT_decl_column(0x20)
$C$DW$T$15	.dwtag  DW_TAG_base_type
	.dwattr $C$DW$T$15, DW_AT_encoding(DW_ATE_unsigned)
	.dwattr $C$DW$T$15, DW_AT_name("unsigned long long")
	.dwattr $C$DW$T$15, DW_AT_byte_size(0x08)
$C$DW$T$48	.dwtag  DW_TAG_typedef, DW_AT_name("uint64_t")
	.dwattr $C$DW$T$48, DW_AT_type(*$C$DW$T$15)
	.dwattr $C$DW$T$48, DW_AT_language(DW_LANG_C)
	.dwattr $C$DW$T$48, DW_AT_decl_file("C:/ti/ccsv6/tools/compiler/ti-cgt-arm_5.2.4/include/stdint.h")
	.dwattr $C$DW$T$48, DW_AT_decl_line(0x33)
	.dwattr $C$DW$T$48, DW_AT_decl_column(0x20)
$C$DW$T$49	.dwtag  DW_TAG_typedef, DW_AT_name("uint_fast64_t")
	.dwattr $C$DW$T$49, DW_AT_type(*$C$DW$T$48)
	.dwattr $C$DW$T$49, DW_AT_language(DW_LANG_C)
	.dwattr $C$DW$T$49, DW_AT_decl_file("C:/ti/ccsv6/tools/compiler/ti-cgt-arm_5.2.4/include/stdint.h")
	.dwattr $C$DW$T$49, DW_AT_decl_line(0x4f)
	.dwattr $C$DW$T$49, DW_AT_decl_column(0x16)
$C$DW$T$50	.dwtag  DW_TAG_typedef, DW_AT_name("uint_least64_t")
	.dwattr $C$DW$T$50, DW_AT_type(*$C$DW$T$48)
	.dwattr $C$DW$T$50, DW_AT_language(DW_LANG_C)
	.dwattr $C$DW$T$50, DW_AT_decl_file("C:/ti/ccsv6/tools/compiler/ti-cgt-arm_5.2.4/include/stdint.h")
	.dwattr $C$DW$T$50, DW_AT_decl_line(0x41)
	.dwattr $C$DW$T$50, DW_AT_decl_column(0x16)
$C$DW$T$51	.dwtag  DW_TAG_typedef, DW_AT_name("uintmax_t")
	.dwattr $C$DW$T$51, DW_AT_type(*$C$DW$T$15)
	.dwattr $C$DW$T$51, DW_AT_language(DW_LANG_C)
	.dwattr $C$DW$T$51, DW_AT_decl_file("C:/ti/ccsv6/tools/compiler/ti-cgt-arm_5.2.4/include/stdint.h")
	.dwattr $C$DW$T$51, DW_AT_decl_line(0x57)
	.dwattr $C$DW$T$51, DW_AT_decl_column(0x20)
$C$DW$T$16	.dwtag  DW_TAG_base_type
	.dwattr $C$DW$T$16, DW_AT_encoding(DW_ATE_float)
	.dwattr $C$DW$T$16, DW_AT_name("float")
	.dwattr $C$DW$T$16, DW_AT_byte_size(0x04)
$C$DW$T$17	.dwtag  DW_TAG_base_type
	.dwattr $C$DW$T$17, DW_AT_encoding(DW_ATE_float)
	.dwattr $C$DW$T$17, DW_AT_name("double")
	.dwattr $C$DW$T$17, DW_AT_byte_size(0x08)
$C$DW$T$18	.dwtag  DW_TAG_base_type
	.dwattr $C$DW$T$18, DW_AT_encoding(DW_ATE_float)
	.dwattr $C$DW$T$18, DW_AT_name("long double")
	.dwattr $C$DW$T$18, DW_AT_byte_size(0x08)
$C$DW$T$53	.dwtag  DW_TAG_pointer_type
	.dwattr $C$DW$T$53, DW_AT_type(*$C$DW$T$6)
	.dwattr $C$DW$T$53, DW_AT_address_class(0x20)
$C$DW$T$54	.dwtag  DW_TAG_typedef, DW_AT_name("__builtin_va_list")
	.dwattr $C$DW$T$54, DW_AT_type(*$C$DW$T$53)
	.dwattr $C$DW$T$54, DW_AT_language(DW_LANG_C)
	.dwattr $C$DW$T$54, DW_AT_decl_file("../GPIO.c")
	.dwattr $C$DW$T$54, DW_AT_decl_line(0x50)
	.dwattr $C$DW$T$54, DW_AT_decl_column(0x01)
	.dwattr $C$DW$CU, DW_AT_language(DW_LANG_C)

;***************************************************************
;* DWARF CIE ENTRIES                                           *
;***************************************************************

$C$DW$CIE	.dwcie 14
	.dwcfi	cfa_register, 13
	.dwcfi	cfa_offset, 0
	.dwcfi	undefined, 0
	.dwcfi	undefined, 1
	.dwcfi	undefined, 2
	.dwcfi	undefined, 3
	.dwcfi	same_value, 4
	.dwcfi	same_value, 5
	.dwcfi	same_value, 6
	.dwcfi	same_value, 7
	.dwcfi	same_value, 8
	.dwcfi	same_value, 9
	.dwcfi	same_value, 10
	.dwcfi	same_value, 11
	.dwcfi	undefined, 12
	.dwcfi	undefined, 13
	.dwcfi	undefined, 14
	.dwcfi	undefined, 14
	.dwcfi	undefined, 7
	.dwcfi	undefined, 64
	.dwcfi	undefined, 65
	.dwcfi	undefined, 66
	.dwcfi	undefined, 67
	.dwcfi	undefined, 68
	.dwcfi	undefined, 69
	.dwcfi	undefined, 70
	.dwcfi	undefined, 71
	.dwcfi	undefined, 72
	.dwcfi	undefined, 73
	.dwcfi	undefined, 74
	.dwcfi	undefined, 75
	.dwcfi	undefined, 76
	.dwcfi	undefined, 77
	.dwcfi	undefined, 78
	.dwcfi	undefined, 79
	.dwcfi	same_value, 80
	.dwcfi	same_value, 81
	.dwcfi	same_value, 82
	.dwcfi	same_value, 83
	.dwcfi	same_value, 84
	.dwcfi	same_value, 85
	.dwcfi	same_value, 86
	.dwcfi	same_value, 87
	.dwcfi	same_value, 88
	.dwcfi	same_value, 89
	.dwcfi	same_value, 90
	.dwcfi	same_value, 91
	.dwcfi	same_value, 92
	.dwcfi	same_value, 93
	.dwcfi	same_value, 94
	.dwcfi	same_value, 95
	.dwendentry
	.dwendtag $C$DW$CU

